GAS LISTING /tmp/ccAHGWMV.s 			page 1


   1              		.file	"main.cpp"
   2              		.option nopic
   3              		.option norelax
   4              		.text
   5              	.Ltext0:
   6              		.align	2
   7              		.globl	_Z11userWrapperPv
   9              	_Z11userWrapperPv:
  10              	.LFB51:
  11              		.file 1 "src/main.cpp"
   1:src/main.cpp  **** #include "../h/tcb.hpp"
   2:src/main.cpp  **** #include "../h/riscv.hpp"
   3:src/main.cpp  **** #include "../h/syscall_cpp.hpp"
   4:src/main.cpp  **** 
   5:src/main.cpp  **** 
   6:src/main.cpp  **** extern void userMain();
   7:src/main.cpp  **** 
   8:src/main.cpp  **** void userWrapper(void*){
  12              		.loc 1 8 24
  13              		.cfi_startproc
  14 0000 130101FF 		addi	sp,sp,-16
  15              		.cfi_def_cfa_offset 16
  16 0004 23341100 		sd	ra,8(sp)
  17 0008 23308100 		sd	s0,0(sp)
  18              		.cfi_offset 1, -8
  19              		.cfi_offset 8, -16
  20 000c 13040101 		addi	s0,sp,16
  21              		.cfi_def_cfa 8, 0
   9:src/main.cpp  ****     userMain();
  22              		.loc 1 9 5
  23              		.loc 1 9 13 is_stmt 0
  24 0010 97000000 		call	_Z8userMainv
  24      E7800000 
  25              	.LVL0:
  10:src/main.cpp  **** }
  26              		.loc 1 10 1
  27 0018 83308100 		ld	ra,8(sp)
  28              		.cfi_restore 1
  29 001c 03340100 		ld	s0,0(sp)
  30              		.cfi_restore 8
  31 0020 13010101 		addi	sp,sp,16
  32              		.cfi_def_cfa_register 2
  33 0024 67800000 		jr	ra
  34              		.cfi_endproc
  35              	.LFE51:
  37              		.align	2
  38              		.globl	main
  40              	main:
  41              	.LFB52:
  11:src/main.cpp  **** 
  12:src/main.cpp  **** int main()
  13:src/main.cpp  **** {
  42              		.loc 1 13 1 is_stmt 1
  43              		.cfi_startproc
  44 0028 130101FE 		addi	sp,sp,-32
  45              		.cfi_def_cfa_offset 32
  46 002c 233C1100 		sd	ra,24(sp)
GAS LISTING /tmp/ccAHGWMV.s 			page 2


  47 0030 23388100 		sd	s0,16(sp)
  48              		.cfi_offset 1, -8
  49              		.cfi_offset 8, -16
  50 0034 13040102 		addi	s0,sp,32
  51              		.cfi_def_cfa 8, 0
  14:src/main.cpp  ****     MemoryAllocator::initialize();
  52              		.loc 1 14 5
  53              		.loc 1 14 32 is_stmt 0
  54 0038 97000000 		call	_ZN15MemoryAllocator10initializeEv
  54      E7800000 
  55              	.LVL1:
  15:src/main.cpp  ****     Riscv::w_stvec((uint64)&Riscv::supervisorTrap);
  56              		.loc 1 15 5 is_stmt 1
  57              		.loc 1 15 19 is_stmt 0
  58 0040 97070000 		lla	a5,_ZN5Riscv14supervisorTrapEv
  58      93870700 
  59              	.LVL2:
  60              	.LBB6:
  61              	.LBB7:
  62              		.file 2 "src/../h/riscv.hpp"
   1:src/../h/riscv.hpp **** #ifndef PROJECT_BASE_RISCV_HPP
   2:src/../h/riscv.hpp **** #define PROJECT_BASE_RISCV_HPP
   3:src/../h/riscv.hpp **** 
   4:src/../h/riscv.hpp **** #include "../lib/hw.h"
   5:src/../h/riscv.hpp **** 
   6:src/../h/riscv.hpp **** class Riscv
   7:src/../h/riscv.hpp **** {
   8:src/../h/riscv.hpp **** public:
   9:src/../h/riscv.hpp **** 
  10:src/../h/riscv.hpp ****     // pop sstatus.spp and sstatus.spie bits (has to be a non inline function)
  11:src/../h/riscv.hpp ****     static void popSppSpie();
  12:src/../h/riscv.hpp **** 
  13:src/../h/riscv.hpp ****     // read register scause
  14:src/../h/riscv.hpp ****     static uint64 r_scause();
  15:src/../h/riscv.hpp **** 
  16:src/../h/riscv.hpp ****     // write register scause
  17:src/../h/riscv.hpp ****     static void w_scause(uint64 scause);
  18:src/../h/riscv.hpp **** 
  19:src/../h/riscv.hpp ****     // read register sepc
  20:src/../h/riscv.hpp ****     static uint64 r_sepc();
  21:src/../h/riscv.hpp **** 
  22:src/../h/riscv.hpp ****     // write register sepc
  23:src/../h/riscv.hpp ****     static void w_sepc(uint64 sepc);
  24:src/../h/riscv.hpp **** 
  25:src/../h/riscv.hpp ****     // read register stvec
  26:src/../h/riscv.hpp ****     static uint64 r_stvec();
  27:src/../h/riscv.hpp **** 
  28:src/../h/riscv.hpp ****     // write register stvec
  29:src/../h/riscv.hpp ****     static void w_stvec(uint64 stvec);
  30:src/../h/riscv.hpp **** 
  31:src/../h/riscv.hpp ****     // read register stval
  32:src/../h/riscv.hpp ****     static uint64 r_stval();
  33:src/../h/riscv.hpp **** 
  34:src/../h/riscv.hpp ****     // write register stval
  35:src/../h/riscv.hpp ****     static void w_stval(uint64 stval);
  36:src/../h/riscv.hpp **** 
  37:src/../h/riscv.hpp ****     enum BitMaskSip
GAS LISTING /tmp/ccAHGWMV.s 			page 3


  38:src/../h/riscv.hpp ****     {
  39:src/../h/riscv.hpp ****         SIP_SSIP = (1 << 1),
  40:src/../h/riscv.hpp ****         SIP_STIP = (1 << 5),
  41:src/../h/riscv.hpp ****         SIP_SEIP = (1 << 9),
  42:src/../h/riscv.hpp ****     };
  43:src/../h/riscv.hpp **** 
  44:src/../h/riscv.hpp ****     // mask set register sip
  45:src/../h/riscv.hpp ****     static void ms_sip(uint64 mask);
  46:src/../h/riscv.hpp **** 
  47:src/../h/riscv.hpp ****     // mask clear register sip
  48:src/../h/riscv.hpp ****     static void mc_sip(uint64 mask);
  49:src/../h/riscv.hpp **** 
  50:src/../h/riscv.hpp ****     // read register sip
  51:src/../h/riscv.hpp ****     static uint64 r_sip();
  52:src/../h/riscv.hpp **** 
  53:src/../h/riscv.hpp ****     // write register sip
  54:src/../h/riscv.hpp ****     static void w_sip(uint64 sip);
  55:src/../h/riscv.hpp **** 
  56:src/../h/riscv.hpp ****     enum BitMaskSstatus
  57:src/../h/riscv.hpp ****     {
  58:src/../h/riscv.hpp ****         SSTATUS_SIE = (1 << 1),
  59:src/../h/riscv.hpp ****         SSTATUS_SPIE = (1 << 5),
  60:src/../h/riscv.hpp ****         SSTATUS_SPP = (1 << 8),
  61:src/../h/riscv.hpp ****     };
  62:src/../h/riscv.hpp **** 
  63:src/../h/riscv.hpp ****     // mask set register sstatus
  64:src/../h/riscv.hpp ****     static void ms_sstatus(uint64 mask);
  65:src/../h/riscv.hpp **** 
  66:src/../h/riscv.hpp ****     // mask clear register sstatus
  67:src/../h/riscv.hpp ****     static void mc_sstatus(uint64 mask);
  68:src/../h/riscv.hpp **** 
  69:src/../h/riscv.hpp ****     // read register sstatus
  70:src/../h/riscv.hpp ****     static uint64 r_sstatus();
  71:src/../h/riscv.hpp **** 
  72:src/../h/riscv.hpp ****     // write register sstatus
  73:src/../h/riscv.hpp ****     static void w_sstatus(uint64 sstatus);
  74:src/../h/riscv.hpp **** 
  75:src/../h/riscv.hpp ****     // supervisor trap
  76:src/../h/riscv.hpp ****     static void supervisorTrap();
  77:src/../h/riscv.hpp **** 
  78:src/../h/riscv.hpp **** private:
  79:src/../h/riscv.hpp **** 
  80:src/../h/riscv.hpp ****     // supervisor trap handler
  81:src/../h/riscv.hpp ****     static void handleSupervisorTrap();
  82:src/../h/riscv.hpp **** 
  83:src/../h/riscv.hpp **** };
  84:src/../h/riscv.hpp **** 
  85:src/../h/riscv.hpp **** inline uint64 Riscv::r_scause()
  86:src/../h/riscv.hpp **** {
  87:src/../h/riscv.hpp ****     uint64 volatile scause;
  88:src/../h/riscv.hpp ****     __asm__ volatile ("csrr %[scause], scause" : [scause] "=r"(scause));
  89:src/../h/riscv.hpp ****     return scause;
  90:src/../h/riscv.hpp **** }
  91:src/../h/riscv.hpp **** 
  92:src/../h/riscv.hpp **** inline void Riscv::w_scause(uint64 scause)
  93:src/../h/riscv.hpp **** {
  94:src/../h/riscv.hpp ****     __asm__ volatile ("csrw scause, %[scause]" : : [scause] "r"(scause));
GAS LISTING /tmp/ccAHGWMV.s 			page 4


  95:src/../h/riscv.hpp **** }
  96:src/../h/riscv.hpp **** 
  97:src/../h/riscv.hpp **** inline uint64 Riscv::r_sepc()
  98:src/../h/riscv.hpp **** {
  99:src/../h/riscv.hpp ****     uint64 volatile sepc;
 100:src/../h/riscv.hpp ****     __asm__ volatile ("csrr %[sepc], sepc" : [sepc] "=r"(sepc));
 101:src/../h/riscv.hpp ****     return sepc;
 102:src/../h/riscv.hpp **** }
 103:src/../h/riscv.hpp **** 
 104:src/../h/riscv.hpp **** inline void Riscv::w_sepc(uint64 sepc)
 105:src/../h/riscv.hpp **** {
 106:src/../h/riscv.hpp ****     __asm__ volatile ("csrw sepc, %[sepc]" : : [sepc] "r"(sepc));
 107:src/../h/riscv.hpp **** }
 108:src/../h/riscv.hpp **** 
 109:src/../h/riscv.hpp **** inline uint64 Riscv::r_stvec()
 110:src/../h/riscv.hpp **** {
 111:src/../h/riscv.hpp ****     uint64 volatile stvec;
 112:src/../h/riscv.hpp ****     __asm__ volatile ("csrr %[stvec], stvec" : [stvec] "=r"(stvec));
 113:src/../h/riscv.hpp ****     return stvec;
 114:src/../h/riscv.hpp **** }
 115:src/../h/riscv.hpp **** 
 116:src/../h/riscv.hpp **** inline void Riscv::w_stvec(uint64 stvec)
 117:src/../h/riscv.hpp **** {
 118:src/../h/riscv.hpp ****     __asm__ volatile ("csrw stvec, %[stvec]" : : [stvec] "r"(stvec));
  63              		.loc 2 118 5 is_stmt 1
  64              		.loc 2 118 69 is_stmt 0
  65              	#APP
  66              	# 118 "src/../h/riscv.hpp" 1
 119              	}
  67              		csrw stvec, a5
  68              	# 0 "" 2
  69              	.LVL3:
  70              	#NO_APP
  71              	.LBE7:
  72              	.LBE6:
  16:src/main.cpp  **** 
  17:src/main.cpp  ****     //1 - user main
  18:src/main.cpp  **** 
  19:src/main.cpp  **** 
  20:src/main.cpp  ****     TCB* mainThread;
  73              		.loc 1 20 5 is_stmt 1
  21:src/main.cpp  ****     thread_create(&mainThread, nullptr, nullptr);
  74              		.loc 1 21 5
  75              		.loc 1 21 18 is_stmt 0
  76 004c 13060000 		li	a2,0
  77 0050 93050000 		li	a1,0
  78 0054 130584FE 		addi	a0,s0,-24
  79 0058 97000000 		call	_Z13thread_createPP3TCBPFvPvES2_
  79      E7800000 
  80              	.LVL4:
  22:src/main.cpp  ****     TCB* userThread;
  81              		.loc 1 22 5 is_stmt 1
  23:src/main.cpp  ****     thread_create(&userThread, userWrapper, nullptr);
  82              		.loc 1 23 5
  83              		.loc 1 23 18 is_stmt 0
  84 0060 13060000 		li	a2,0
  85 0064 97050000 		lla	a1,_Z11userWrapperPv
GAS LISTING /tmp/ccAHGWMV.s 			page 5


  85      93850500 
  86 006c 130504FE 		addi	a0,s0,-32
  87 0070 97000000 		call	_Z13thread_createPP3TCBPFvPvES2_
  87      E7800000 
  88              	.LVL5:
  89              	.L5:
  24:src/main.cpp  ****     while(!userThread->isFinished()){
  90              		.loc 1 24 5 is_stmt 1
  91              		.loc 1 24 34 is_stmt 0
  92 0078 833704FE 		ld	a5,-32(s0)
  93              	.LVL6:
  94              	.LBB8:
  95              	.LBB9:
  96              		.file 3 "src/../h/tcb.hpp"
   1:src/../h/tcb.hpp **** #ifndef PROJECT_BASE_TCB_HPP
   2:src/../h/tcb.hpp **** #define PROJECT_BASE_TCB_HPP
   3:src/../h/tcb.hpp **** 
   4:src/../h/tcb.hpp **** #include "../lib/hw.h"
   5:src/../h/tcb.hpp **** #include "scheduler.hpp"
   6:src/../h/tcb.hpp **** 
   7:src/../h/tcb.hpp **** // Thread Control Block
   8:src/../h/tcb.hpp **** class TCB
   9:src/../h/tcb.hpp **** {
  10:src/../h/tcb.hpp **** public:
  11:src/../h/tcb.hpp ****     void *operator new(size_t n) { return MemoryAllocator::mem_alloc((n + MEM_BLOCK_SIZE - 1) / MEM
  12:src/../h/tcb.hpp ****     void *operator new[](size_t n) { return MemoryAllocator::mem_alloc((n + MEM_BLOCK_SIZE - 1) / M
  13:src/../h/tcb.hpp **** 
  14:src/../h/tcb.hpp ****     void operator delete(void *p) noexcept { MemoryAllocator::mem_free(p); }
  15:src/../h/tcb.hpp ****     void operator delete[](void *p) noexcept { MemoryAllocator::mem_free(p); }
  16:src/../h/tcb.hpp **** 
  17:src/../h/tcb.hpp ****     ~TCB() { delete[] stack; }
  18:src/../h/tcb.hpp **** 
  19:src/../h/tcb.hpp ****     bool isFinished() const { return finished; }
  97              		.loc 3 19 31 is_stmt 1
  98              		.loc 3 19 38 is_stmt 0
  99 007c 83C70703 		lbu	a5,48(a5)
 100              	.LVL7:
 101              	.LBE9:
 102              	.LBE8:
 103              		.loc 1 24 11
 104 0080 63980700 		bnez	a5,.L4
  25:src/main.cpp  ****         thread_dispatch();
 105              		.loc 1 25 9 is_stmt 1
 106              		.loc 1 25 24 is_stmt 0
 107 0084 97000000 		call	_Z15thread_dispatchv
 107      E7800000 
 108              	.LVL8:
 109 008c 6FF0DFFE 		j	.L5
 110              	.L4:
  26:src/main.cpp  ****     }
  27:src/main.cpp  **** 
  28:src/main.cpp  **** 
  29:src/main.cpp  ****     
  30:src/main.cpp  ****     return 0;
 111              		.loc 1 30 5 is_stmt 1
  31:src/main.cpp  **** }
 112              		.loc 1 31 1 is_stmt 0
GAS LISTING /tmp/ccAHGWMV.s 			page 6


 113 0090 13050000 		li	a0,0
 114 0094 83308101 		ld	ra,24(sp)
 115              		.cfi_restore 1
 116 0098 03340101 		ld	s0,16(sp)
 117              		.cfi_restore 8
 118 009c 13010102 		addi	sp,sp,32
 119              		.cfi_def_cfa_register 2
 120 00a0 67800000 		jr	ra
 121              		.cfi_endproc
 122              	.LFE52:
 124              	.Letext0:
 125              		.file 4 "src/../h/../lib/hw.h"
 126              		.file 5 "src/../h/../h/MemoryAllocator.hpp"
 127              		.file 6 "src/../h/list.hpp"
 128              		.file 7 "src/../h/syscall_c.hpp"
GAS LISTING /tmp/ccAHGWMV.s 			page 7

