GAS LISTING /tmp/ccAHGWMV.s 			page 1


   1              		.file	"main.cpp"
   2              		.option nopic
   3              		.option norelax
   4              		.text
   5              	.Ltext0:
   6              		.align	2
   7              		.globl	_Z11userWrapperPv
   9              	_Z11userWrapperPv:
  10              	.LFB51:
  11              		.file 1 "src/main.cpp"
   1:src/main.cpp  **** #include "../h/tcb.hpp"
   2:src/main.cpp  **** #include "../h/riscv.hpp"
   3:src/main.cpp  **** #include "../h/syscall_cpp.hpp"
   4:src/main.cpp  **** 
   5:src/main.cpp  **** 
   6:src/main.cpp  **** extern void userMain();
   7:src/main.cpp  **** 
   8:src/main.cpp  **** void userWrapper(void*){
  12              		.loc 1 8 24
  13              		.cfi_startproc
  14 0000 130101FF 		addi	sp,sp,-16
  15              		.cfi_def_cfa_offset 16
  16 0004 23341100 		sd	ra,8(sp)
  17 0008 23308100 		sd	s0,0(sp)
  18              		.cfi_offset 1, -8
  19              		.cfi_offset 8, -16
  20 000c 13040101 		addi	s0,sp,16
  21              		.cfi_def_cfa 8, 0
   9:src/main.cpp  ****     userMain();
  22              		.loc 1 9 5
  23              		.loc 1 9 13 is_stmt 0
  24 0010 97000000 		call	_Z8userMainv
  24      E7800000 
  25              	.LVL0:
  10:src/main.cpp  **** }
  26              		.loc 1 10 1
  27 0018 83308100 		ld	ra,8(sp)
  28              		.cfi_restore 1
  29 001c 03340100 		ld	s0,0(sp)
  30              		.cfi_restore 8
  31 0020 13010101 		addi	sp,sp,16
  32              		.cfi_def_cfa_register 2
  33 0024 67800000 		jr	ra
  34              		.cfi_endproc
  35              	.LFE51:
  37              		.align	2
  38              		.globl	main
  40              	main:
  41              	.LFB52:
  11:src/main.cpp  **** 
  12:src/main.cpp  **** int main()
  13:src/main.cpp  **** {
  42              		.loc 1 13 1 is_stmt 1
  43              		.cfi_startproc
  44 0028 130101FE 		addi	sp,sp,-32
  45              		.cfi_def_cfa_offset 32
  46 002c 233C1100 		sd	ra,24(sp)
GAS LISTING /tmp/ccAHGWMV.s 			page 2


  47 0030 23388100 		sd	s0,16(sp)
  48              		.cfi_offset 1, -8
  49              		.cfi_offset 8, -16
  50 0034 13040102 		addi	s0,sp,32
  51              		.cfi_def_cfa 8, 0
  14:src/main.cpp  ****     MemoryAllocator::initialize();
  52              		.loc 1 14 5
  53              		.loc 1 14 32 is_stmt 0
  54 0038 97000000 		call	_ZN15MemoryAllocator10initializeEv
  54      E7800000 
  55              	.LVL1:
  15:src/main.cpp  ****     Riscv::w_stvec((uint64)&Riscv::supervisorTrap);
  56              		.loc 1 15 5 is_stmt 1
  57              		.loc 1 15 19 is_stmt 0
  58 0040 97070000 		lla	a5,_ZN5Riscv14supervisorTrapEv
  58      93870700 
  59              	.LVL2:
  60              	.LBB6:
  61              	.LBB7:
  62              		.file 2 "src/../h/riscv.hpp"
   1:src/../h/riscv.hpp **** #ifndef PROJECT_BASE_RISCV_HPP
   2:src/../h/riscv.hpp **** #define PROJECT_BASE_RISCV_HPP
   3:src/../h/riscv.hpp **** 
   4:src/../h/riscv.hpp **** #include "../lib/hw.h"
   5:src/../h/riscv.hpp **** 
   6:src/../h/riscv.hpp **** class Riscv
   7:src/../h/riscv.hpp **** {
   8:src/../h/riscv.hpp **** public:
   9:src/../h/riscv.hpp **** 
  10:src/../h/riscv.hpp ****     // pop sstatus.spp and sstatus.spie bits (has to be a non inline function)
  11:src/../h/riscv.hpp ****     static void popSppSpie();
  12:src/../h/riscv.hpp **** 
  13:src/../h/riscv.hpp ****     // read register scause
  14:src/../h/riscv.hpp ****     static uint64 r_scause();
  15:src/../h/riscv.hpp **** 
  16:src/../h/riscv.hpp ****     // write register scause
  17:src/../h/riscv.hpp ****     static void w_scause(uint64 scause);
  18:src/../h/riscv.hpp **** 
  19:src/../h/riscv.hpp ****     // read register sepc
  20:src/../h/riscv.hpp ****     static uint64 r_sepc();
  21:src/../h/riscv.hpp **** 
  22:src/../h/riscv.hpp ****     // write register sepc
  23:src/../h/riscv.hpp ****     static void w_sepc(uint64 sepc);
  24:src/../h/riscv.hpp **** 
  25:src/../h/riscv.hpp ****     // read register stvec
  26:src/../h/riscv.hpp ****     static uint64 r_stvec();
  27:src/../h/riscv.hpp **** 
  28:src/../h/riscv.hpp ****     // write register stvec
  29:src/../h/riscv.hpp ****     static void w_stvec(uint64 stvec);
  30:src/../h/riscv.hpp **** 
  31:src/../h/riscv.hpp ****     // read register stval
  32:src/../h/riscv.hpp ****     static uint64 r_stval();
  33:src/../h/riscv.hpp **** 
  34:src/../h/riscv.hpp ****     // write register stval
  35:src/../h/riscv.hpp ****     static void w_stval(uint64 stval);
  36:src/../h/riscv.hpp **** 
  37:src/../h/riscv.hpp ****     enum BitMaskSip
GAS LISTING /tmp/ccAHGWMV.s 			page 3


  38:src/../h/riscv.hpp ****     {
  39:src/../h/riscv.hpp ****         SIP_SSIP = (1 << 1),
  40:src/../h/riscv.hpp ****         SIP_STIP = (1 << 5),
  41:src/../h/riscv.hpp ****         SIP_SEIP = (1 << 9),
  42:src/../h/riscv.hpp ****     };
  43:src/../h/riscv.hpp **** 
  44:src/../h/riscv.hpp ****     // mask set register sip
  45:src/../h/riscv.hpp ****     static void ms_sip(uint64 mask);
  46:src/../h/riscv.hpp **** 
  47:src/../h/riscv.hpp ****     // mask clear register sip
  48:src/../h/riscv.hpp ****     static void mc_sip(uint64 mask);
  49:src/../h/riscv.hpp **** 
  50:src/../h/riscv.hpp ****     // read register sip
  51:src/../h/riscv.hpp ****     static uint64 r_sip();
  52:src/../h/riscv.hpp **** 
  53:src/../h/riscv.hpp ****     // write register sip
  54:src/../h/riscv.hpp ****     static void w_sip(uint64 sip);
  55:src/../h/riscv.hpp **** 
  56:src/../h/riscv.hpp ****     enum BitMaskSstatus
  57:src/../h/riscv.hpp ****     {
  58:src/../h/riscv.hpp ****         SSTATUS_SIE = (1 << 1),
  59:src/../h/riscv.hpp ****         SSTATUS_SPIE = (1 << 5),
  60:src/../h/riscv.hpp ****         SSTATUS_SPP = (1 << 8),
  61:src/../h/riscv.hpp ****     };
  62:src/../h/riscv.hpp **** 
  63:src/../h/riscv.hpp ****     // mask set register sstatus
  64:src/../h/riscv.hpp ****     static void ms_sstatus(uint64 mask);
  65:src/../h/riscv.hpp **** 
  66:src/../h/riscv.hpp ****     // mask clear register sstatus
  67:src/../h/riscv.hpp ****     static void mc_sstatus(uint64 mask);
  68:src/../h/riscv.hpp **** 
  69:src/../h/riscv.hpp ****     // read register sstatus
  70:src/../h/riscv.hpp ****     static uint64 r_sstatus();
  71:src/../h/riscv.hpp **** 
  72:src/../h/riscv.hpp ****     // write register sstatus
  73:src/../h/riscv.hpp ****     static void w_sstatus(uint64 sstatus);
  74:src/../h/riscv.hpp **** 
  75:src/../h/riscv.hpp ****     // supervisor trap
  76:src/../h/riscv.hpp ****     static void supervisorTrap();
  77:src/../h/riscv.hpp **** 
  78:src/../h/riscv.hpp **** private:
  79:src/../h/riscv.hpp **** 
  80:src/../h/riscv.hpp ****     // supervisor trap handler
  81:src/../h/riscv.hpp ****     static void handleSupervisorTrap();
  82:src/../h/riscv.hpp **** 
  83:src/../h/riscv.hpp **** };
  84:src/../h/riscv.hpp **** 
  85:src/../h/riscv.hpp **** inline uint64 Riscv::r_scause()
  86:src/../h/riscv.hpp **** {
  87:src/../h/riscv.hpp ****     uint64 volatile scause;
  88:src/../h/riscv.hpp ****     __asm__ volatile ("csrr %[scause], scause" : [scause] "=r"(scause));
  89:src/../h/riscv.hpp ****     return scause;
  90:src/../h/riscv.hpp **** }
  91:src/../h/riscv.hpp **** 
  92:src/../h/riscv.hpp **** inline void Riscv::w_scause(uint64 scause)
  93:src/../h/riscv.hpp **** {
  94:src/../h/riscv.hpp ****     __asm__ volatile ("csrw scause, %[scause]" : : [scause] "r"(scause));
GAS LISTING /tmp/ccAHGWMV.s 			page 4


  95:src/../h/riscv.hpp **** }
  96:src/../h/riscv.hpp **** 
  97:src/../h/riscv.hpp **** inline uint64 Riscv::r_sepc()
  98:src/../h/riscv.hpp **** {
  99:src/../h/riscv.hpp ****     uint64 volatile sepc;
 100:src/../h/riscv.hpp ****     __asm__ volatile ("csrr %[sepc], sepc" : [sepc] "=r"(sepc));
 101:src/../h/riscv.hpp ****     return sepc;
 102:src/../h/riscv.hpp **** }
 103:src/../h/riscv.hpp **** 
 104:src/../h/riscv.hpp **** inline void Riscv::w_sepc(uint64 sepc)
 105:src/../h/riscv.hpp **** {
 106:src/../h/riscv.hpp ****     __asm__ volatile ("csrw sepc, %[sepc]" : : [sepc] "r"(sepc));
 107:src/../h/riscv.hpp **** }
 108:src/../h/riscv.hpp **** 
 109:src/../h/riscv.hpp **** inline uint64 Riscv::r_stvec()
 110:src/../h/riscv.hpp **** {
 111:src/../h/riscv.hpp ****     uint64 volatile stvec;
 112:src/../h/riscv.hpp ****     __asm__ volatile ("csrr %[stvec], stvec" : [stvec] "=r"(stvec));
 113:src/../h/riscv.hpp ****     return stvec;
 114:src/../h/riscv.hpp **** }
 115:src/../h/riscv.hpp **** 
 116:src/../h/riscv.hpp **** inline void Riscv::w_stvec(uint64 stvec)
 117:src/../h/riscv.hpp **** {
 118:src/../h/riscv.hpp ****     __asm__ volatile ("csrw stvec, %[stvec]" : : [stvec] "r"(stvec));
  63              		.loc 2 118 5 is_stmt 1
  64              		.loc 2 118 69 is_stmt 0
  65              	#APP
  66              	# 118 "src/../h/riscv.hpp" 1
 119              	}
  67              		csrw stvec, a5
  68              	# 0 "" 2
  69              	.LVL3:
  70              	#NO_APP
  71              	.LBE7:
  72              	.LBE6:
  16:src/main.cpp  **** 
  17:src/main.cpp  ****     //1 - user main
  18:src/main.cpp  **** 
  19:src/main.cpp  **** 
  20:src/main.cpp  ****     TCB* mainThread;
  73              		.loc 1 20 5 is_stmt 1
  21:src/main.cpp  ****     thread_create(&mainThread, nullptr, nullptr);
  74              		.loc 1 21 5
  75              		.loc 1 21 18 is_stmt 0
  76 004c 13060000 		li	a2,0
  77 0050 93050000 		li	a1,0
  78 0054 130584FE 		addi	a0,s0,-24
  79 0058 97000000 		call	_Z13thread_createPP3TCBPFvPvES2_
  79      E7800000 
  80              	.LVL4:
  22:src/main.cpp  ****     TCB* userThread;
  81              		.loc 1 22 5 is_stmt 1
  23:src/main.cpp  ****     thread_create(&userThread, userWrapper, nullptr);
  82              		.loc 1 23 5
  83              		.loc 1 23 18 is_stmt 0
  84 0060 13060000 		li	a2,0
  85 0064 97050000 		lla	a1,_Z11userWrapperPv
GAS LISTING /tmp/ccAHGWMV.s 			page 5


  85      93850500 
  86 006c 130504FE 		addi	a0,s0,-32
  87 0070 97000000 		call	_Z13thread_createPP3TCBPFvPvES2_
  87      E7800000 
  88              	.LVL5:
  89              	.L5:
  24:src/main.cpp  ****     while(!userThread->isFinished()){
  90              		.loc 1 24 5 is_stmt 1
  91              		.loc 1 24 34 is_stmt 0
  92 0078 833704FE 		ld	a5,-32(s0)
  93              	.LVL6:
  94              	.LBB8:
  95              	.LBB9:
  96              		.file 3 "src/../h/tcb.hpp"
   1:src/../h/tcb.hpp **** #ifndef PROJECT_BASE_TCB_HPP
   2:src/../h/tcb.hpp **** #define PROJECT_BASE_TCB_HPP
   3:src/../h/tcb.hpp **** 
   4:src/../h/tcb.hpp **** #include "../lib/hw.h"
   5:src/../h/tcb.hpp **** #include "scheduler.hpp"
   6:src/../h/tcb.hpp **** 
   7:src/../h/tcb.hpp **** // Thread Control Block
   8:src/../h/tcb.hpp **** class TCB
   9:src/../h/tcb.hpp **** {
  10:src/../h/tcb.hpp **** public:
  11:src/../h/tcb.hpp ****     void *operator new(size_t n) { return MemoryAllocator::mem_alloc((n + MEM_BLOCK_SIZE - 1) / MEM
  12:src/../h/tcb.hpp ****     void *operator new[](size_t n) { return MemoryAllocator::mem_alloc((n + MEM_BLOCK_SIZE - 1) / M
  13:src/../h/tcb.hpp **** 
  14:src/../h/tcb.hpp ****     void operator delete(void *p) noexcept { MemoryAllocator::mem_free(p); }
  15:src/../h/tcb.hpp ****     void operator delete[](void *p) noexcept { MemoryAllocator::mem_free(p); }
  16:src/../h/tcb.hpp **** 
  17:src/../h/tcb.hpp ****     ~TCB() { delete[] stack; }
  18:src/../h/tcb.hpp **** 
  19:src/../h/tcb.hpp ****     bool isFinished() const { return finished; }
  97              		.loc 3 19 31 is_stmt 1
  98              		.loc 3 19 38 is_stmt 0
  99 007c 83C70703 		lbu	a5,48(a5)
 100              	.LVL7:
 101              	.LBE9:
 102              	.LBE8:
 103              		.loc 1 24 11
 104 0080 63980700 		bnez	a5,.L4
  25:src/main.cpp  ****         thread_dispatch();
 105              		.loc 1 25 9 is_stmt 1
 106              		.loc 1 25 24 is_stmt 0
 107 0084 97000000 		call	_Z15thread_dispatchv
 107      E7800000 
 108              	.LVL8:
 109 008c 6FF0DFFE 		j	.L5
 110              	.L4:
  26:src/main.cpp  ****     }
  27:src/main.cpp  **** 
  28:src/main.cpp  **** 
  29:src/main.cpp  ****     
  30:src/main.cpp  ****     return 0;
 111              		.loc 1 30 5 is_stmt 1
  31:src/main.cpp  **** }
 112              		.loc 1 31 1 is_stmt 0
GAS LISTING /tmp/ccAHGWMV.s 			page 6


 113 0090 13050000 		li	a0,0
 114 0094 83308101 		ld	ra,24(sp)
 115              		.cfi_restore 1
 116 0098 03340101 		ld	s0,16(sp)
 117              		.cfi_restore 8
 118 009c 13010102 		addi	sp,sp,32
 119              		.cfi_def_cfa_register 2
 120 00a0 67800000 		jr	ra
 121              		.cfi_endproc
 122              	.LFE52:
 124              	.Letext0:
 125              		.file 4 "src/../h/../lib/hw.h"
 126              		.file 5 "src/../h/../h/MemoryAllocator.hpp"
 127              		.file 6 "src/../h/list.hpp"
 128              		.file 7 "src/../h/syscall_c.hpp"
GAS LISTING /tmp/ccAHGWMV.s 			page 7


DEFINED SYMBOLS
                            *ABS*:0000000000000000 main.cpp
     /tmp/ccAHGWMV.s:9      .text:0000000000000000 _Z11userWrapperPv
     /tmp/ccAHGWMV.s:13     .text:0000000000000000 .L0 
     /tmp/ccAHGWMV.s:14     .text:0000000000000000 .L0 
     /tmp/ccAHGWMV.s:15     .text:0000000000000004 .L0 
     /tmp/ccAHGWMV.s:18     .text:000000000000000c .L0 
     /tmp/ccAHGWMV.s:19     .text:000000000000000c .L0 
     /tmp/ccAHGWMV.s:21     .text:0000000000000010 .L0 
     /tmp/ccAHGWMV.s:23     .text:0000000000000010 .L0 
     /tmp/ccAHGWMV.s:24     .text:0000000000000010 .L0 
     /tmp/ccAHGWMV.s:27     .text:0000000000000018 .L0 
     /tmp/ccAHGWMV.s:28     .text:000000000000001c .L0 
     /tmp/ccAHGWMV.s:30     .text:0000000000000020 .L0 
     /tmp/ccAHGWMV.s:32     .text:0000000000000024 .L0 
     /tmp/ccAHGWMV.s:34     .text:0000000000000028 .L0 
     /tmp/ccAHGWMV.s:40     .text:0000000000000028 main
     /tmp/ccAHGWMV.s:43     .text:0000000000000028 .L0 
     /tmp/ccAHGWMV.s:44     .text:0000000000000028 .L0 
     /tmp/ccAHGWMV.s:45     .text:000000000000002c .L0 
     /tmp/ccAHGWMV.s:48     .text:0000000000000034 .L0 
     /tmp/ccAHGWMV.s:49     .text:0000000000000034 .L0 
     /tmp/ccAHGWMV.s:51     .text:0000000000000038 .L0 
     /tmp/ccAHGWMV.s:53     .text:0000000000000038 .L0 
     /tmp/ccAHGWMV.s:54     .text:0000000000000038 .L0 
     /tmp/ccAHGWMV.s:57     .text:0000000000000040 .L0 
     /tmp/ccAHGWMV.s:58     .text:0000000000000040 .L0 
     /tmp/ccAHGWMV.s:64     .text:0000000000000048 .L0 
  src/../h/riscv.hpp:118    .text:0000000000000048 .L0 
     /tmp/ccAHGWMV.s:74     .text:000000000000004c .L0 
     /tmp/ccAHGWMV.s:75     .text:000000000000004c .L0 
     /tmp/ccAHGWMV.s:76     .text:000000000000004c .L0 
     /tmp/ccAHGWMV.s:82     .text:0000000000000060 .L0 
     /tmp/ccAHGWMV.s:83     .text:0000000000000060 .L0 
     /tmp/ccAHGWMV.s:84     .text:0000000000000060 .L0 
     /tmp/ccAHGWMV.s:91     .text:0000000000000078 .L0 
     /tmp/ccAHGWMV.s:92     .text:0000000000000078 .L0 
     /tmp/ccAHGWMV.s:98     .text:000000000000007c .L0 
     /tmp/ccAHGWMV.s:99     .text:000000000000007c .L0 
     /tmp/ccAHGWMV.s:104    .text:0000000000000080 .L0 
     /tmp/ccAHGWMV.s:106    .text:0000000000000084 .L0 
     /tmp/ccAHGWMV.s:107    .text:0000000000000084 .L0 
     /tmp/ccAHGWMV.s:112    .text:0000000000000090 .L0 
     /tmp/ccAHGWMV.s:113    .text:0000000000000090 .L0 
     /tmp/ccAHGWMV.s:115    .text:0000000000000098 .L0 
     /tmp/ccAHGWMV.s:117    .text:000000000000009c .L0 
     /tmp/ccAHGWMV.s:119    .text:00000000000000a0 .L0 
     /tmp/ccAHGWMV.s:121    .text:00000000000000a4 .L0 
     /tmp/ccAHGWMV.s:129    .text:00000000000000a4 .L0 
     /tmp/ccAHGWMV.s:58     .text:0000000000000040 .L0 
     /tmp/ccAHGWMV.s:85     .text:0000000000000064 .L0 
     /tmp/ccAHGWMV.s:110    .text:0000000000000090 .L4
     /tmp/ccAHGWMV.s:89     .text:0000000000000078 .L5
     /tmp/ccAHGWMV.s:1276   .debug_abbrev:0000000000000000 .Ldebug_abbrev0
     /tmp/ccAHGWMV.s:2307   .debug_str:0000000000000392 .LASF150
     /tmp/ccAHGWMV.s:2267   .debug_str:0000000000000240 .LASF151
     /tmp/ccAHGWMV.s:2429   .debug_str:00000000000007c5 .LASF152
GAS LISTING /tmp/ccAHGWMV.s 			page 8


     /tmp/ccAHGWMV.s:5      .text:0000000000000000 .Ltext0
     /tmp/ccAHGWMV.s:124    .text:00000000000000a4 .Letext0
     /tmp/ccAHGWMV.s:2195   .debug_line:0000000000000000 .Ldebug_line0
     /tmp/ccAHGWMV.s:2295   .debug_str:0000000000000326 .LASF0
     /tmp/ccAHGWMV.s:2319   .debug_str:00000000000004a7 .LASF1
     /tmp/ccAHGWMV.s:2403   .debug_str:0000000000000713 .LASF2
     /tmp/ccAHGWMV.s:2413   .debug_str:000000000000075b .LASF4
     /tmp/ccAHGWMV.s:2303   .debug_str:0000000000000357 .LASF3
     /tmp/ccAHGWMV.s:2207   .debug_str:0000000000000070 .LASF5
     /tmp/ccAHGWMV.s:2375   .debug_str:000000000000063a .LASF6
     /tmp/ccAHGWMV.s:2311   .debug_str:0000000000000473 .LASF7
     /tmp/ccAHGWMV.s:2275   .debug_str:0000000000000280 .LASF8
     /tmp/ccAHGWMV.s:2283   .debug_str:00000000000002c4 .LASF9
     /tmp/ccAHGWMV.s:2227   .debug_str:0000000000000113 .LASF10
     /tmp/ccAHGWMV.s:2265   .debug_str:0000000000000231 .LASF11
     /tmp/ccAHGWMV.s:2241   .debug_str:0000000000000171 .LASF12
     /tmp/ccAHGWMV.s:2225   .debug_str:0000000000000103 .LASF13
     /tmp/ccAHGWMV.s:2449   .debug_str:0000000000000872 .LASF14
     /tmp/ccAHGWMV.s:2255   .debug_str:00000000000001ba .LASF15
     /tmp/ccAHGWMV.s:2435   .debug_str:00000000000007f9 .LASF16
     /tmp/ccAHGWMV.s:2461   .debug_str:00000000000008b0 .LASF54
     /tmp/ccAHGWMV.s:2229   .debug_str:0000000000000122 .LASF17
     /tmp/ccAHGWMV.s:2215   .debug_str:00000000000000bc .LASF18
     /tmp/ccAHGWMV.s:2317   .debug_str:00000000000004a2 .LASF19
     /tmp/ccAHGWMV.s:2369   .debug_str:0000000000000616 .LASF26
     /tmp/ccAHGWMV.s:2343   .debug_str:0000000000000540 .LASF20
     /tmp/ccAHGWMV.s:2211   .debug_str:0000000000000082 .LASF22
     /tmp/ccAHGWMV.s:2455   .debug_str:0000000000000897 .LASF21
     /tmp/ccAHGWMV.s:2345   .debug_str:000000000000054a .LASF23
     /tmp/ccAHGWMV.s:2301   .debug_str:000000000000034d .LASF24
     /tmp/ccAHGWMV.s:2305   .debug_str:0000000000000369 .LASF25
     /tmp/ccAHGWMV.s:2427   .debug_str:00000000000007ba .LASF75
     /tmp/ccAHGWMV.s:2439   .debug_str:0000000000000822 .LASF77
     /tmp/ccAHGWMV.s:2213   .debug_str:00000000000000a3 .LASF61
     /tmp/ccAHGWMV.s:2431   .debug_str:00000000000007dc .LASF89
     /tmp/ccAHGWMV.s:2491   .debug_str:0000000000000986 .LASF27
     /tmp/ccAHGWMV.s:2483   .debug_str:000000000000094f .LASF153
     /tmp/ccAHGWMV.s:2441   .debug_str:0000000000000845 .LASF28
     /tmp/ccAHGWMV.s:2355   .debug_str:00000000000005a4 .LASF29
     /tmp/ccAHGWMV.s:2373   .debug_str:0000000000000632 .LASF30
     /tmp/ccAHGWMV.s:2349   .debug_str:0000000000000580 .LASF31
     /tmp/ccAHGWMV.s:2437   .debug_str:000000000000080f .LASF32
     /tmp/ccAHGWMV.s:2261   .debug_str:000000000000020e .LASF34
     /tmp/ccAHGWMV.s:2407   .debug_str:000000000000072e .LASF154
     /tmp/ccAHGWMV.s:2395   .debug_str:00000000000006cb .LASF155
     /tmp/ccAHGWMV.s:2327   .debug_str:00000000000004e6 .LASF33
     /tmp/ccAHGWMV.s:2479   .debug_str:0000000000000929 .LASF35
     /tmp/ccAHGWMV.s:2263   .debug_str:0000000000000225 .LASF36
     /tmp/ccAHGWMV.s:2497   .debug_str:00000000000009b4 .LASF37
     /tmp/ccAHGWMV.s:2513   .debug_str:0000000000000a46 .LASF38
     /tmp/ccAHGWMV.s:2391   .debug_str:00000000000006ad .LASF39
     /tmp/ccAHGWMV.s:2389   .debug_str:00000000000006a2 .LASF40
     /tmp/ccAHGWMV.s:2397   .debug_str:00000000000006e2 .LASF41
     /tmp/ccAHGWMV.s:2315   .debug_str:0000000000000499 .LASF42
     /tmp/ccAHGWMV.s:2223   .debug_str:00000000000000e6 .LASF43
     /tmp/ccAHGWMV.s:2333   .debug_str:00000000000004ff .LASF44
     /tmp/ccAHGWMV.s:2257   .debug_str:00000000000001d0 .LASF45
GAS LISTING /tmp/ccAHGWMV.s 			page 9


     /tmp/ccAHGWMV.s:2371   .debug_str:0000000000000626 .LASF46
     /tmp/ccAHGWMV.s:2493   .debug_str:0000000000000990 .LASF47
     /tmp/ccAHGWMV.s:2521   .debug_str:0000000000000a83 .LASF48
     /tmp/ccAHGWMV.s:2509   .debug_str:0000000000000a14 .LASF49
     /tmp/ccAHGWMV.s:2425   .debug_str:00000000000007af .LASF50
     /tmp/ccAHGWMV.s:2309   .debug_str:0000000000000456 .LASF51
     /tmp/ccAHGWMV.s:2387   .debug_str:0000000000000699 .LASF52
     /tmp/ccAHGWMV.s:2201   .debug_str:0000000000000022 .LASF53
     /tmp/ccAHGWMV.s:2235   .debug_str:0000000000000144 .LASF55
     /tmp/ccAHGWMV.s:2515   .debug_str:0000000000000a4e .LASF56
     /tmp/ccAHGWMV.s:2279   .debug_str:000000000000029c .LASF57
     /tmp/ccAHGWMV.s:2339   .debug_str:000000000000051a .LASF58
     /tmp/ccAHGWMV.s:2273   .debug_str:0000000000000274 .LASF59
     /tmp/ccAHGWMV.s:2199   .debug_str:0000000000000012 .LASF60
     /tmp/ccAHGWMV.s:2335   .debug_str:0000000000000507 .LASF62
     /tmp/ccAHGWMV.s:2433   .debug_str:00000000000007e6 .LASF63
     /tmp/ccAHGWMV.s:2405   .debug_str:0000000000000721 .LASF64
     /tmp/ccAHGWMV.s:2415   .debug_str:0000000000000762 .LASF65
     /tmp/ccAHGWMV.s:2205   .debug_str:0000000000000064 .LASF66
     /tmp/ccAHGWMV.s:2457   .debug_str:00000000000008a0 .LASF67
     /tmp/ccAHGWMV.s:2351   .debug_str:0000000000000585 .LASF68
     /tmp/ccAHGWMV.s:2217   .debug_str:00000000000000c1 .LASF69
     /tmp/ccAHGWMV.s:2363   .debug_str:00000000000005d9 .LASF70
     /tmp/ccAHGWMV.s:2323   .debug_str:00000000000004c0 .LASF71
     /tmp/ccAHGWMV.s:2487   .debug_str:0000000000000962 .LASF72
     /tmp/ccAHGWMV.s:2447   .debug_str:0000000000000865 .LASF73
     /tmp/ccAHGWMV.s:2269   .debug_str:000000000000024d .LASF74
     /tmp/ccAHGWMV.s:2367   .debug_str:0000000000000611 .LASF156
     /tmp/ccAHGWMV.s:2321   .debug_str:00000000000004ba .LASF76
     /tmp/ccAHGWMV.s:2467   .debug_str:00000000000008d8 .LASF78
     /tmp/ccAHGWMV.s:2463   .debug_str:00000000000008b8 .LASF157
     /tmp/ccAHGWMV.s:2197   .debug_str:0000000000000000 .LASF79
     /tmp/ccAHGWMV.s:2519   .debug_str:0000000000000a63 .LASF80
     /tmp/ccAHGWMV.s:2239   .debug_str:000000000000015f .LASF81
     /tmp/ccAHGWMV.s:2423   .debug_str:0000000000000792 .LASF82
     /tmp/ccAHGWMV.s:2511   .debug_str:0000000000000a2f .LASF158
     /tmp/ccAHGWMV.s:2249   .debug_str:00000000000001a6 .LASF83
     /tmp/ccAHGWMV.s:2337   .debug_str:0000000000000514 .LASF84
     /tmp/ccAHGWMV.s:2475   .debug_str:000000000000090c .LASF85
     /tmp/ccAHGWMV.s:2471   .debug_str:00000000000008f8 .LASF86
     /tmp/ccAHGWMV.s:2453   .debug_str:000000000000088e .LASF87
     /tmp/ccAHGWMV.s:2473   .debug_str:0000000000000902 .LASF88
     /tmp/ccAHGWMV.s:2469   .debug_str:00000000000008e8 .LASF90
     /tmp/ccAHGWMV.s:2221   .debug_str:00000000000000d8 .LASF91
     /tmp/ccAHGWMV.s:2325   .debug_str:00000000000004cd .LASF93
     /tmp/ccAHGWMV.s:2243   .debug_str:0000000000000181 .LASF159
     /tmp/ccAHGWMV.s:2203   .debug_str:000000000000003c .LASF160
     /tmp/ccAHGWMV.s:2251   .debug_str:00000000000001ab .LASF92
     /tmp/ccAHGWMV.s:2237   .debug_str:000000000000014c .LASF94
     /tmp/ccAHGWMV.s:2421   .debug_str:0000000000000781 .LASF95
     /tmp/ccAHGWMV.s:2411   .debug_str:0000000000000750 .LASF96
     /tmp/ccAHGWMV.s:2505   .debug_str:00000000000009f3 .LASF97
     /tmp/ccAHGWMV.s:2393   .debug_str:00000000000006c6 .LASF98
     /tmp/ccAHGWMV.s:2495   .debug_str:00000000000009ae .LASF99
     /tmp/ccAHGWMV.s:2285   .debug_str:00000000000002d2 .LASF100
     /tmp/ccAHGWMV.s:2291   .debug_str:0000000000000301 .LASF101
     /tmp/ccAHGWMV.s:2481   .debug_str:0000000000000946 .LASF104
GAS LISTING /tmp/ccAHGWMV.s 			page 10


     /tmp/ccAHGWMV.s:2477   .debug_str:0000000000000914 .LASF106
     /tmp/ccAHGWMV.s:2399   .debug_str:00000000000006ff .LASF102
     /tmp/ccAHGWMV.s:2361   .debug_str:00000000000005c4 .LASF103
     /tmp/ccAHGWMV.s:2381   .debug_str:000000000000066b .LASF105
     /tmp/ccAHGWMV.s:2383   .debug_str:0000000000000672 .LASF107
     /tmp/ccAHGWMV.s:2357   .debug_str:00000000000005a9 .LASF108
     /tmp/ccAHGWMV.s:2313   .debug_str:0000000000000486 .LASF109
     /tmp/ccAHGWMV.s:2503   .debug_str:00000000000009eb .LASF110
     /tmp/ccAHGWMV.s:2445   .debug_str:0000000000000851 .LASF111
     /tmp/ccAHGWMV.s:2353   .debug_str:000000000000059c .LASF112
     /tmp/ccAHGWMV.s:2359   .debug_str:00000000000005b0 .LASF113
     /tmp/ccAHGWMV.s:2329   .debug_str:00000000000004f1 .LASF114
     /tmp/ccAHGWMV.s:2385   .debug_str:0000000000000685 .LASF115
     /tmp/ccAHGWMV.s:2517   .debug_str:0000000000000a5b .LASF116
     /tmp/ccAHGWMV.s:2299   .debug_str:0000000000000339 .LASF117
     /tmp/ccAHGWMV.s:2443   .debug_str:000000000000084a .LASF118
     /tmp/ccAHGWMV.s:2417   .debug_str:0000000000000767 .LASF119
     /tmp/ccAHGWMV.s:2419   .debug_str:000000000000077a .LASF120
     /tmp/ccAHGWMV.s:2233   .debug_str:0000000000000131 .LASF121
     /tmp/ccAHGWMV.s:2253   .debug_str:00000000000001b4 .LASF122
     /tmp/ccAHGWMV.s:2289   .debug_str:00000000000002ef .LASF123
     /tmp/ccAHGWMV.s:2297   .debug_str:0000000000000333 .LASF124
     /tmp/ccAHGWMV.s:2247   .debug_str:0000000000000194 .LASF125
     /tmp/ccAHGWMV.s:2209   .debug_str:0000000000000077 .LASF126
     /tmp/ccAHGWMV.s:2409   .debug_str:0000000000000738 .LASF127
     /tmp/ccAHGWMV.s:2401   .debug_str:0000000000000708 .LASF128
     /tmp/ccAHGWMV.s:2465   .debug_str:00000000000008c0 .LASF129
     /tmp/ccAHGWMV.s:2499   .debug_str:00000000000009d2 .LASF130
     /tmp/ccAHGWMV.s:2507   .debug_str:00000000000009fe .LASF131
     /tmp/ccAHGWMV.s:2231   .debug_str:0000000000000127 .LASF132
     /tmp/ccAHGWMV.s:2341   .debug_str:000000000000052a .LASF133
     /tmp/ccAHGWMV.s:2501   .debug_str:00000000000009dc .LASF134
     /tmp/ccAHGWMV.s:2281   .debug_str:00000000000002a8 .LASF135
     /tmp/ccAHGWMV.s:2377   .debug_str:000000000000064d .LASF136
     /tmp/ccAHGWMV.s:2259   .debug_str:00000000000001ec .LASF137
     /tmp/ccAHGWMV.s:2459   .debug_str:00000000000008ab .LASF138
     /tmp/ccAHGWMV.s:2271   .debug_str:000000000000026f .LASF139
     /tmp/ccAHGWMV.s:41     .text:0000000000000028 .LFB52
     /tmp/ccAHGWMV.s:122    .text:00000000000000a4 .LFE52
     /tmp/ccAHGWMV.s:2219   .debug_str:00000000000000cd .LASF140
     /tmp/ccAHGWMV.s:2489   .debug_str:000000000000097b .LASF141
     /tmp/ccAHGWMV.s:60     .text:0000000000000048 .LBB6
     /tmp/ccAHGWMV.s:72     .text:000000000000004c .LBE6
     /tmp/ccAHGWMV.s:94     .text:000000000000007c .LBB8
     /tmp/ccAHGWMV.s:102    .text:0000000000000080 .LBE8
     /tmp/ccAHGWMV.s:2175   .debug_loc:0000000000000000 .LLST0
     /tmp/ccAHGWMV.s:55     .text:0000000000000040 .LVL1
     /tmp/ccAHGWMV.s:80     .text:0000000000000060 .LVL4
     /tmp/ccAHGWMV.s:88     .text:0000000000000078 .LVL5
     /tmp/ccAHGWMV.s:108    .text:000000000000008c .LVL8
     /tmp/ccAHGWMV.s:2277   .debug_str:0000000000000290 .LASF142
     /tmp/ccAHGWMV.s:2287   .debug_str:00000000000002dd .LASF143
     /tmp/ccAHGWMV.s:10     .text:0000000000000000 .LFB51
     /tmp/ccAHGWMV.s:35     .text:0000000000000028 .LFE51
     /tmp/ccAHGWMV.s:25     .text:0000000000000018 .LVL0
     /tmp/ccAHGWMV.s:2331   .debug_str:00000000000004f9 .LASF161
     /tmp/ccAHGWMV.s:2245   .debug_str:000000000000018f .LASF162
GAS LISTING /tmp/ccAHGWMV.s 			page 11


     /tmp/ccAHGWMV.s:2365   .debug_str:00000000000005f0 .LASF144
     /tmp/ccAHGWMV.s:2485   .debug_str:0000000000000954 .LASF146
     /tmp/ccAHGWMV.s:2347   .debug_str:000000000000056b .LASF145
     /tmp/ccAHGWMV.s:2451   .debug_str:000000000000087e .LASF147
     /tmp/ccAHGWMV.s:2293   .debug_str:0000000000000319 .LASF148
     /tmp/ccAHGWMV.s:2379   .debug_str:0000000000000662 .LASF149
     /tmp/ccAHGWMV.s:93     .text:000000000000007c .LVL6
     /tmp/ccAHGWMV.s:100    .text:0000000000000080 .LVL7
     /tmp/ccAHGWMV.s:130    .debug_info:0000000000000000 .Ldebug_info0

UNDEFINED SYMBOLS
_Z8userMainv
_ZN15MemoryAllocator10initializeEv
_ZN5Riscv14supervisorTrapEv
_Z13thread_createPP3TCBPFvPvES2_
_Z15thread_dispatchv
