GAS LISTING /tmp/ccw9uv4m.s 			page 1


   1              		.file	"MemoryAllocator.cpp"
   2              		.option nopic
   3              		.option norelax
   4              		.text
   5              	.Ltext0:
   6              		.align	2
   7              		.globl	_ZN15MemoryAllocator10initializeEv
   9              	_ZN15MemoryAllocator10initializeEv:
  10              	.LFB0:
  11              		.file 1 "src/MemoryAllocator.cpp"
   1:src/MemoryAllocator.cpp **** #include "../lib/hw.h"
   2:src/MemoryAllocator.cpp **** #include "../h/MemoryAllocator.hpp"
   3:src/MemoryAllocator.cpp **** 
   4:src/MemoryAllocator.cpp **** FreeMem *MemoryAllocator::fmem_head = nullptr;
   5:src/MemoryAllocator.cpp **** const size_t HEADER_SIZE = MEM_BLOCK_SIZE;
   6:src/MemoryAllocator.cpp **** 
   7:src/MemoryAllocator.cpp **** void MemoryAllocator::initialize()
   8:src/MemoryAllocator.cpp **** {
  12              		.loc 1 8 1
  13              		.cfi_startproc
  14 0000 130101FF 		addi	sp,sp,-16
  15              		.cfi_def_cfa_offset 16
  16 0004 23348100 		sd	s0,8(sp)
  17              		.cfi_offset 8, -8
  18 0008 13040101 		addi	s0,sp,16
  19              		.cfi_def_cfa 8, 0
   9:src/MemoryAllocator.cpp ****     fmem_head = (FreeMem *)((size_t)HEAP_START_ADDR + MEM_BLOCK_SIZE - (size_t)HEAP_START_ADDR % ME
  20              		.loc 1 9 5
  21              		.loc 1 9 70 is_stmt 0
  22 000c 97070000 		lla	a5,HEAP_START_ADDR
  22      93870700 
  23 0014 83B70700 		ld	a5,0(a5)
  24 0018 93F707FC 		andi	a5,a5,-64
  25 001c 93860704 		addi	a3,a5,64
  26              		.loc 1 9 15
  27 0020 17070000 		lla	a4,_ZN15MemoryAllocator9fmem_headE
  27      13070700 
  28 0028 2330D700 		sd	a3,0(a4)
  10:src/MemoryAllocator.cpp ****     fmem_head->next = nullptr;
  29              		.loc 1 10 5 is_stmt 1
  30              		.loc 1 10 21 is_stmt 0
  31 002c 23B00704 		sd	zero,64(a5)
  11:src/MemoryAllocator.cpp ****     fmem_head->prev = nullptr;
  32              		.loc 1 11 5 is_stmt 1
  33              		.loc 1 11 16 is_stmt 0
  34 0030 03370700 		ld	a4,0(a4)
  35              		.loc 1 11 21
  36 0034 23340700 		sd	zero,8(a4)
  12:src/MemoryAllocator.cpp ****     fmem_head->size = (size_t)HEAP_END_ADDR - (size_t)fmem_head - HEADER_SIZE;
  37              		.loc 1 12 5 is_stmt 1
  38              		.loc 1 12 45 is_stmt 0
  39 0038 97070000 		lla	a5,HEAP_END_ADDR
  39      93870700 
  40 0040 83B70700 		ld	a5,0(a5)
  41 0044 B387E740 		sub	a5,a5,a4
  42              		.loc 1 12 65
  43 0048 938707FC 		addi	a5,a5,-64
GAS LISTING /tmp/ccw9uv4m.s 			page 2


  44              		.loc 1 12 21
  45 004c 2338F700 		sd	a5,16(a4)
  13:src/MemoryAllocator.cpp **** }
  46              		.loc 1 13 1
  47 0050 03348100 		ld	s0,8(sp)
  48              		.cfi_restore 8
  49 0054 13010101 		addi	sp,sp,16
  50              		.cfi_def_cfa_register 2
  51 0058 67800000 		jr	ra
  52              		.cfi_endproc
  53              	.LFE0:
  55              		.align	2
  56              		.globl	_ZN15MemoryAllocator9mem_allocEm
  58              	_ZN15MemoryAllocator9mem_allocEm:
  59              	.LFB1:
  14:src/MemoryAllocator.cpp **** 
  15:src/MemoryAllocator.cpp **** void *MemoryAllocator::mem_alloc(size_t sz)
  16:src/MemoryAllocator.cpp **** {
  60              		.loc 1 16 1 is_stmt 1
  61              		.cfi_startproc
  62              	.LVL0:
  63 005c 130101FF 		addi	sp,sp,-16
  64              		.cfi_def_cfa_offset 16
  65 0060 23348100 		sd	s0,8(sp)
  66              		.cfi_offset 8, -8
  67 0064 13040101 		addi	s0,sp,16
  68              		.cfi_def_cfa 8, 0
  17:src/MemoryAllocator.cpp **** 
  18:src/MemoryAllocator.cpp ****     size_t size = sz * MEM_BLOCK_SIZE;
  69              		.loc 1 18 5
  70              		.loc 1 18 12 is_stmt 0
  71 0068 13176500 		slli	a4,a0,6
  72              	.LVL1:
  19:src/MemoryAllocator.cpp ****     if (size <= 0)
  73              		.loc 1 19 5 is_stmt 1
  74 006c 630E070C 		beqz	a4,.L13
  20:src/MemoryAllocator.cpp ****         return nullptr;
  21:src/MemoryAllocator.cpp **** 
  22:src/MemoryAllocator.cpp ****     FreeMem *curr = fmem_head;
  75              		.loc 1 22 5
  76              		.loc 1 22 14 is_stmt 0
  77 0070 97070000 		lla	a5,_ZN15MemoryAllocator9fmem_headE
  77      93870700 
  78 0078 83B60700 		ld	a3,0(a5)
  79              	.LVL2:
  23:src/MemoryAllocator.cpp **** 
  24:src/MemoryAllocator.cpp ****     for (curr = fmem_head; curr && curr->size < size; curr = curr->next)
  80              		.loc 1 24 5 is_stmt 1
  81              		.loc 1 24 15 is_stmt 0
  82 007c 13850600 		mv	a0,a3
  83              	.LVL3:
  84              	.L6:
  85              		.loc 1 24 33 discriminator 4
  86 0080 630A0500 		beqz	a0,.L5
  87              		.loc 1 24 42 discriminator 2
  88 0084 83370501 		ld	a5,16(a0)
  89              		.loc 1 24 33 discriminator 2
GAS LISTING /tmp/ccw9uv4m.s 			page 3


  90 0088 63F6E700 		bgeu	a5,a4,.L5
  91              		.loc 1 24 60 discriminator 3
  92 008c 03350500 		ld	a0,0(a0)
  93              	.LVL4:
  94              		.loc 1 24 5 discriminator 3
  95 0090 6FF01FFF 		j	.L6
  96              	.L5:
  25:src/MemoryAllocator.cpp ****         ; // search for the block big enough
  26:src/MemoryAllocator.cpp **** 
  27:src/MemoryAllocator.cpp ****     if (!curr)
  97              		.loc 1 27 5 is_stmt 1
  98 0094 63040506 		beqz	a0,.L3
  28:src/MemoryAllocator.cpp ****         return nullptr; // not enough free memory
  29:src/MemoryAllocator.cpp **** 
  30:src/MemoryAllocator.cpp ****     if (curr->size == size)
  99              		.loc 1 30 5
 100              	.LBB2:
 101              		.loc 1 30 15 is_stmt 0
 102 0098 83370501 		ld	a5,16(a0)
 103              		.loc 1 30 5
 104 009c 6386E706 		beq	a5,a4,.L15
 105              	.LBB3:
  31:src/MemoryAllocator.cpp ****     {
  32:src/MemoryAllocator.cpp ****         // No fragment left, remove from list
  33:src/MemoryAllocator.cpp ****         if (curr != fmem_head)
  34:src/MemoryAllocator.cpp ****             curr->prev->next = curr->next;
  35:src/MemoryAllocator.cpp ****         else
  36:src/MemoryAllocator.cpp ****             fmem_head = curr->next; // nullptr - !!!
  37:src/MemoryAllocator.cpp ****         if (curr->next)
  38:src/MemoryAllocator.cpp ****             curr->next->prev = curr->prev;
  39:src/MemoryAllocator.cpp ****     }
  40:src/MemoryAllocator.cpp ****     else
  41:src/MemoryAllocator.cpp ****     {
  42:src/MemoryAllocator.cpp ****         // Make a new free segment
  43:src/MemoryAllocator.cpp ****         FreeMem *free = (FreeMem *)((char *)curr + size + HEADER_SIZE);
 106              		.loc 1 43 9 is_stmt 1
 107              		.loc 1 43 57 is_stmt 0
 108 00a0 93070704 		addi	a5,a4,64
 109              		.loc 1 43 18
 110 00a4 B307F500 		add	a5,a0,a5
 111              	.LVL5:
  44:src/MemoryAllocator.cpp ****         free->next = curr->next;
 112              		.loc 1 44 9 is_stmt 1
 113              		.loc 1 44 28 is_stmt 0
 114 00a8 83360500 		ld	a3,0(a0)
 115              		.loc 1 44 20
 116 00ac 23B0D700 		sd	a3,0(a5)
  45:src/MemoryAllocator.cpp ****         free->prev = curr->prev;
 117              		.loc 1 45 9 is_stmt 1
 118              		.loc 1 45 28 is_stmt 0
 119 00b0 83368500 		ld	a3,8(a0)
 120              		.loc 1 45 20
 121 00b4 23B4D700 		sd	a3,8(a5)
  46:src/MemoryAllocator.cpp ****         free->size = curr->size - size - MEM_BLOCK_SIZE;
 122              		.loc 1 46 9 is_stmt 1
 123              		.loc 1 46 28 is_stmt 0
 124 00b8 83360501 		ld	a3,16(a0)
GAS LISTING /tmp/ccw9uv4m.s 			page 4


 125              		.loc 1 46 33
 126 00bc B386E640 		sub	a3,a3,a4
 127              		.loc 1 46 40
 128 00c0 938606FC 		addi	a3,a3,-64
 129              		.loc 1 46 20
 130 00c4 23B8D700 		sd	a3,16(a5)
  47:src/MemoryAllocator.cpp **** 
  48:src/MemoryAllocator.cpp ****         // Update the free list - remove curr
  49:src/MemoryAllocator.cpp ****         if (curr == fmem_head)
 131              		.loc 1 49 9 is_stmt 1
 132              		.loc 1 49 18 is_stmt 0
 133 00c8 97060000 		lla	a3,_ZN15MemoryAllocator9fmem_headE
 133      93860600 
 134 00d0 83B60600 		ld	a3,0(a3)
 135              		.loc 1 49 9
 136 00d4 6384A606 		beq	a3,a0,.L16
  50:src/MemoryAllocator.cpp ****             fmem_head = free;
  51:src/MemoryAllocator.cpp ****         else
  52:src/MemoryAllocator.cpp ****             curr->prev->next = free;
 137              		.loc 1 52 13 is_stmt 1
 138              		.loc 1 52 19 is_stmt 0
 139 00d8 83368500 		ld	a3,8(a0)
 140              		.loc 1 52 30
 141 00dc 23B0F600 		sd	a5,0(a3)
 142              	.L12:
  53:src/MemoryAllocator.cpp ****         if (curr->next)
 143              		.loc 1 53 9 is_stmt 1
 144              		.loc 1 53 19 is_stmt 0
 145 00e0 83360500 		ld	a3,0(a0)
 146              		.loc 1 53 9
 147 00e4 63840600 		beqz	a3,.L10
  54:src/MemoryAllocator.cpp ****             curr->next->prev = free;
 148              		.loc 1 54 13 is_stmt 1
 149              		.loc 1 54 30 is_stmt 0
 150 00e8 23B4F600 		sd	a5,8(a3)
 151              	.LVL6:
 152              	.L10:
 153              	.LBE3:
 154              	.LBE2:
  55:src/MemoryAllocator.cpp ****     }
  56:src/MemoryAllocator.cpp ****     curr->prev = nullptr;
 155              		.loc 1 56 5 is_stmt 1
 156              		.loc 1 56 16 is_stmt 0
 157 00ec 23340500 		sd	zero,8(a0)
  57:src/MemoryAllocator.cpp ****     curr->next = nullptr;
 158              		.loc 1 57 5 is_stmt 1
 159              		.loc 1 57 16 is_stmt 0
 160 00f0 23300500 		sd	zero,0(a0)
  58:src/MemoryAllocator.cpp ****     curr->size = size;
 161              		.loc 1 58 5 is_stmt 1
 162              		.loc 1 58 16 is_stmt 0
 163 00f4 2338E500 		sd	a4,16(a0)
  59:src/MemoryAllocator.cpp **** 	
  60:src/MemoryAllocator.cpp ****     return (void *)((char *)curr + MEM_BLOCK_SIZE);
 164              		.loc 1 60 5 is_stmt 1
 165              		.loc 1 60 50 is_stmt 0
 166 00f8 13050504 		addi	a0,a0,64
GAS LISTING /tmp/ccw9uv4m.s 			page 5


 167              	.LVL7:
 168              	.L3:
  61:src/MemoryAllocator.cpp **** }
 169              		.loc 1 61 1
 170 00fc 03348100 		ld	s0,8(sp)
 171              		.cfi_remember_state
 172              		.cfi_restore 8
 173 0100 13010101 		addi	sp,sp,16
 174              		.cfi_def_cfa_register 2
 175 0104 67800000 		jr	ra
 176              	.LVL8:
 177              	.L15:
 178              		.cfi_restore_state
 179              	.LBB5:
  33:src/MemoryAllocator.cpp ****             curr->prev->next = curr->next;
 180              		.loc 1 33 9 is_stmt 1
 181 0108 6302D502 		beq	a0,a3,.L8
  34:src/MemoryAllocator.cpp ****         else
 182              		.loc 1 34 13
  34:src/MemoryAllocator.cpp ****         else
 183              		.loc 1 34 19 is_stmt 0
 184 010c 83378500 		ld	a5,8(a0)
  34:src/MemoryAllocator.cpp ****         else
 185              		.loc 1 34 38
 186 0110 83360500 		ld	a3,0(a0)
  34:src/MemoryAllocator.cpp ****         else
 187              		.loc 1 34 30
 188 0114 23B0D700 		sd	a3,0(a5)
 189              	.L9:
  37:src/MemoryAllocator.cpp ****             curr->next->prev = curr->prev;
 190              		.loc 1 37 9 is_stmt 1
  37:src/MemoryAllocator.cpp ****             curr->next->prev = curr->prev;
 191              		.loc 1 37 19 is_stmt 0
 192 0118 83370500 		ld	a5,0(a0)
  37:src/MemoryAllocator.cpp ****             curr->next->prev = curr->prev;
 193              		.loc 1 37 9
 194 011c E38807FC 		beqz	a5,.L10
  38:src/MemoryAllocator.cpp ****     }
 195              		.loc 1 38 13 is_stmt 1
  38:src/MemoryAllocator.cpp ****     }
 196              		.loc 1 38 38 is_stmt 0
 197 0120 83368500 		ld	a3,8(a0)
  38:src/MemoryAllocator.cpp ****     }
 198              		.loc 1 38 30
 199 0124 23B4D700 		sd	a3,8(a5)
 200 0128 6FF05FFC 		j	.L10
 201              	.L8:
  36:src/MemoryAllocator.cpp ****         if (curr->next)
 202              		.loc 1 36 13 is_stmt 1
  36:src/MemoryAllocator.cpp ****         if (curr->next)
 203              		.loc 1 36 31 is_stmt 0
 204 012c 83370500 		ld	a5,0(a0)
  36:src/MemoryAllocator.cpp ****         if (curr->next)
 205              		.loc 1 36 23
 206 0130 97060000 		sd	a5,_ZN15MemoryAllocator9fmem_headE,a3
 206      23B0F600 
 207 0138 6FF01FFE 		j	.L9
GAS LISTING /tmp/ccw9uv4m.s 			page 6


 208              	.LVL9:
 209              	.L16:
 210              	.LBB4:
  50:src/MemoryAllocator.cpp ****         else
 211              		.loc 1 50 13 is_stmt 1
  50:src/MemoryAllocator.cpp ****         else
 212              		.loc 1 50 23 is_stmt 0
 213 013c 97060000 		sd	a5,_ZN15MemoryAllocator9fmem_headE,a3
 213      23B0F600 
 214 0144 6FF0DFF9 		j	.L12
 215              	.LVL10:
 216              	.L13:
 217              	.LBE4:
 218              	.LBE5:
  20:src/MemoryAllocator.cpp **** 
 219              		.loc 1 20 16
 220 0148 13050000 		li	a0,0
 221              	.LVL11:
 222 014c 6FF01FFB 		j	.L3
 223              		.cfi_endproc
 224              	.LFE1:
 226              		.align	2
 227              		.globl	_ZN15MemoryAllocator9tryToJoinEP7FreeMem
 229              	_ZN15MemoryAllocator9tryToJoinEP7FreeMem:
 230              	.LFB2:
  62:src/MemoryAllocator.cpp **** 
  63:src/MemoryAllocator.cpp **** int MemoryAllocator::tryToJoin(FreeMem *curr)
  64:src/MemoryAllocator.cpp **** {
 231              		.loc 1 64 1 is_stmt 1
 232              		.cfi_startproc
 233              	.LVL12:
 234 0150 130101FF 		addi	sp,sp,-16
 235              		.cfi_def_cfa_offset 16
 236 0154 23348100 		sd	s0,8(sp)
 237              		.cfi_offset 8, -8
 238 0158 13040101 		addi	s0,sp,16
 239              		.cfi_def_cfa 8, 0
  65:src/MemoryAllocator.cpp ****     if (!curr)
 240              		.loc 1 65 5
 241 015c 630A0504 		beqz	a0,.L20
  66:src/MemoryAllocator.cpp ****         return 0;
  67:src/MemoryAllocator.cpp ****     if (curr->next && (char *)curr + curr->size + HEADER_SIZE == (char *)curr->next)
 242              		.loc 1 67 5
 243              		.loc 1 67 15 is_stmt 0
 244 0160 83370500 		ld	a5,0(a0)
 245              		.loc 1 67 5
 246 0164 638A0704 		beqz	a5,.L21
 247              		.loc 1 67 44 discriminator 1
 248 0168 83360501 		ld	a3,16(a0)
 249              		.loc 1 67 49 discriminator 1
 250 016c 13870604 		addi	a4,a3,64
 251 0170 3307E500 		add	a4,a0,a4
 252              		.loc 1 67 20 discriminator 1
 253 0174 638AE700 		beq	a5,a4,.L24
  68:src/MemoryAllocator.cpp ****     {
  69:src/MemoryAllocator.cpp ****         curr->size += curr->next->size + HEADER_SIZE;
  70:src/MemoryAllocator.cpp ****         curr->next = curr->next->next;
GAS LISTING /tmp/ccw9uv4m.s 			page 7


  71:src/MemoryAllocator.cpp ****         if (curr->next)
  72:src/MemoryAllocator.cpp ****             curr->next->prev = curr;
  73:src/MemoryAllocator.cpp ****         return 1;
  74:src/MemoryAllocator.cpp ****     }
  75:src/MemoryAllocator.cpp ****     else
  76:src/MemoryAllocator.cpp ****         return 0;
 254              		.loc 1 76 16
 255 0178 13050000 		li	a0,0
 256              	.LVL13:
 257              	.L18:
  77:src/MemoryAllocator.cpp **** }
 258              		.loc 1 77 1
 259 017c 03348100 		ld	s0,8(sp)
 260              		.cfi_remember_state
 261              		.cfi_restore 8
 262 0180 13010101 		addi	sp,sp,16
 263              		.cfi_def_cfa_register 2
 264 0184 67800000 		jr	ra
 265              	.LVL14:
 266              	.L24:
 267              		.cfi_restore_state
  69:src/MemoryAllocator.cpp ****         curr->next = curr->next->next;
 268              		.loc 1 69 9 is_stmt 1
  69:src/MemoryAllocator.cpp ****         curr->next = curr->next->next;
 269              		.loc 1 69 35 is_stmt 0
 270 0188 03B70701 		ld	a4,16(a5)
  69:src/MemoryAllocator.cpp ****         curr->next = curr->next->next;
 271              		.loc 1 69 20
 272 018c B386E600 		add	a3,a3,a4
 273 0190 93860604 		addi	a3,a3,64
 274 0194 2338D500 		sd	a3,16(a0)
  70:src/MemoryAllocator.cpp ****         if (curr->next)
 275              		.loc 1 70 9 is_stmt 1
  70:src/MemoryAllocator.cpp ****         if (curr->next)
 276              		.loc 1 70 34 is_stmt 0
 277 0198 83B70700 		ld	a5,0(a5)
  70:src/MemoryAllocator.cpp ****         if (curr->next)
 278              		.loc 1 70 20
 279 019c 2330F500 		sd	a5,0(a0)
  71:src/MemoryAllocator.cpp ****             curr->next->prev = curr;
 280              		.loc 1 71 9 is_stmt 1
 281 01a0 63840700 		beqz	a5,.L19
  72:src/MemoryAllocator.cpp ****         return 1;
 282              		.loc 1 72 13
  72:src/MemoryAllocator.cpp ****         return 1;
 283              		.loc 1 72 30 is_stmt 0
 284 01a4 23B4A700 		sd	a0,8(a5)
 285              	.L19:
  73:src/MemoryAllocator.cpp ****     }
 286              		.loc 1 73 9 is_stmt 1
  73:src/MemoryAllocator.cpp ****     }
 287              		.loc 1 73 16 is_stmt 0
 288 01a8 13051000 		li	a0,1
 289              	.LVL15:
 290 01ac 6FF01FFD 		j	.L18
 291              	.LVL16:
 292              	.L20:
GAS LISTING /tmp/ccw9uv4m.s 			page 8


  66:src/MemoryAllocator.cpp ****     if (curr->next && (char *)curr + curr->size + HEADER_SIZE == (char *)curr->next)
 293              		.loc 1 66 16
 294 01b0 13050000 		li	a0,0
 295              	.LVL17:
 296 01b4 6FF09FFC 		j	.L18
 297              	.LVL18:
 298              	.L21:
  76:src/MemoryAllocator.cpp **** }
 299              		.loc 1 76 16
 300 01b8 13050000 		li	a0,0
 301              	.LVL19:
 302 01bc 6FF01FFC 		j	.L18
 303              		.cfi_endproc
 304              	.LFE2:
 306              		.align	2
 307              		.globl	_ZN15MemoryAllocator8mem_freeEPv
 309              	_ZN15MemoryAllocator8mem_freeEPv:
 310              	.LFB3:
  78:src/MemoryAllocator.cpp **** 
  79:src/MemoryAllocator.cpp **** int MemoryAllocator::mem_free(void *addr)
  80:src/MemoryAllocator.cpp **** {
 311              		.loc 1 80 1 is_stmt 1
 312              		.cfi_startproc
 313              	.LVL20:
  81:src/MemoryAllocator.cpp ****     if (addr < HEAP_START_ADDR || addr >= HEAP_END_ADDR || addr == nullptr)
 314              		.loc 1 81 5
 315              		.loc 1 81 14 is_stmt 0
 316 01c0 97070000 		lla	a5,HEAP_START_ADDR
 316      93870700 
 317 01c8 83B70700 		ld	a5,0(a5)
 318              		.loc 1 81 5
 319 01cc 6368F50C 		bgtu	a5,a0,.L34
 320              		.loc 1 81 40 discriminator 1
 321 01d0 97070000 		lla	a5,HEAP_END_ADDR
 321      93870700 
 322 01d8 83B70700 		ld	a5,0(a5)
 323              		.loc 1 81 32 discriminator 1
 324 01dc 6374F50C 		bleu	a5,a0,.L35
 325              		.loc 1 81 57 discriminator 2
 326 01e0 6306050C 		beqz	a0,.L36
  80:src/MemoryAllocator.cpp ****     if (addr < HEAP_START_ADDR || addr >= HEAP_END_ADDR || addr == nullptr)
 327              		.loc 1 80 1
 328 01e4 130101FE 		addi	sp,sp,-32
 329              		.cfi_def_cfa_offset 32
 330 01e8 233C1100 		sd	ra,24(sp)
 331 01ec 23388100 		sd	s0,16(sp)
 332 01f0 23349100 		sd	s1,8(sp)
 333              		.cfi_offset 1, -8
 334              		.cfi_offset 8, -16
 335              		.cfi_offset 9, -24
 336 01f4 13040102 		addi	s0,sp,32
 337              		.cfi_def_cfa 8, 0
  82:src/MemoryAllocator.cpp ****         return -1;
  83:src/MemoryAllocator.cpp ****     FreeMem *curr = nullptr;
 338              		.loc 1 83 5 is_stmt 1
 339              	.LVL21:
  84:src/MemoryAllocator.cpp ****     if (!fmem_head || addr < (char *)fmem_head)
GAS LISTING /tmp/ccw9uv4m.s 			page 9


 340              		.loc 1 84 5
 341              		.loc 1 84 9 is_stmt 0
 342 01f8 97070000 		lla	a5,_ZN15MemoryAllocator9fmem_headE
 342      93870700 
 343 0200 83B40700 		ld	s1,0(a5)
 344              		.loc 1 84 5
 345 0204 63860400 		beqz	s1,.L27
 346              		.loc 1 84 20 discriminator 1
 347 0208 63729506 		bleu	s1,a0,.L28
  85:src/MemoryAllocator.cpp ****         curr = nullptr;
 348              		.loc 1 85 14
 349 020c 93040000 		li	s1,0
 350              	.LVL22:
 351              	.L27:
  86:src/MemoryAllocator.cpp ****     else
  87:src/MemoryAllocator.cpp ****         for (curr = fmem_head; curr->next != nullptr && addr > (char *)(curr->next); curr = curr->n
  88:src/MemoryAllocator.cpp ****             ;
  89:src/MemoryAllocator.cpp **** 
  90:src/MemoryAllocator.cpp ****     FreeMem *newSeg = (FreeMem *)((char *)addr - MEM_BLOCK_SIZE);
 352              		.loc 1 90 5 is_stmt 1
 353              		.loc 1 90 14 is_stmt 0
 354 0210 930705FC 		addi	a5,a0,-64
 355              	.LVL23:
  91:src/MemoryAllocator.cpp ****     newSeg->prev = curr;
 356              		.loc 1 91 5 is_stmt 1
 357              		.loc 1 91 18 is_stmt 0
 358 0214 233495FC 		sd	s1,-56(a0)
  92:src/MemoryAllocator.cpp ****     if (curr)
 359              		.loc 1 92 5 is_stmt 1
 360 0218 63820406 		beqz	s1,.L29
  93:src/MemoryAllocator.cpp ****         newSeg->next = curr->next;
 361              		.loc 1 93 9
 362              		.loc 1 93 30 is_stmt 0
 363 021c 03B70400 		ld	a4,0(s1)
 364              		.loc 1 93 22
 365 0220 2330E5FC 		sd	a4,-64(a0)
 366              	.L30:
  94:src/MemoryAllocator.cpp ****     else
  95:src/MemoryAllocator.cpp ****         newSeg->next = fmem_head;
  96:src/MemoryAllocator.cpp ****     if (newSeg->next)
 367              		.loc 1 96 5 is_stmt 1
 368              		.loc 1 96 17 is_stmt 0
 369 0224 033705FC 		ld	a4,-64(a0)
 370              		.loc 1 96 5
 371 0228 63040700 		beqz	a4,.L31
  97:src/MemoryAllocator.cpp ****         newSeg->next->prev = newSeg;
 372              		.loc 1 97 9 is_stmt 1
 373              		.loc 1 97 28 is_stmt 0
 374 022c 2334F700 		sd	a5,8(a4)
 375              	.L31:
  98:src/MemoryAllocator.cpp ****     if (curr)
 376              		.loc 1 98 5 is_stmt 1
 377 0230 63800406 		beqz	s1,.L32
  99:src/MemoryAllocator.cpp ****         curr->next = newSeg;
 378              		.loc 1 99 9
 379              		.loc 1 99 20 is_stmt 0
 380 0234 23B0F400 		sd	a5,0(s1)
GAS LISTING /tmp/ccw9uv4m.s 			page 10


 381              	.L33:
 100:src/MemoryAllocator.cpp ****     else
 101:src/MemoryAllocator.cpp ****         fmem_head = newSeg;
 102:src/MemoryAllocator.cpp **** 
 103:src/MemoryAllocator.cpp ****     tryToJoin(newSeg);
 382              		.loc 1 103 5 is_stmt 1
 383              		.loc 1 103 14 is_stmt 0
 384 0238 13850700 		mv	a0,a5
 385              	.LVL24:
 386 023c 97000000 		call	_ZN15MemoryAllocator9tryToJoinEP7FreeMem
 386      E7800000 
 387              	.LVL25:
 104:src/MemoryAllocator.cpp ****     tryToJoin(curr);
 388              		.loc 1 104 5 is_stmt 1
 389              		.loc 1 104 14 is_stmt 0
 390 0244 13850400 		mv	a0,s1
 391 0248 97000000 		call	_ZN15MemoryAllocator9tryToJoinEP7FreeMem
 391      E7800000 
 392              	.LVL26:
 105:src/MemoryAllocator.cpp ****     return 0;
 393              		.loc 1 105 5 is_stmt 1
 394              		.loc 1 105 12 is_stmt 0
 395 0250 13050000 		li	a0,0
 106:src/MemoryAllocator.cpp **** }
 396              		.loc 1 106 1
 397 0254 83308101 		ld	ra,24(sp)
 398              		.cfi_remember_state
 399              		.cfi_restore 1
 400 0258 03340101 		ld	s0,16(sp)
 401              		.cfi_restore 8
 402 025c 83348100 		ld	s1,8(sp)
 403              		.cfi_restore 9
 404              	.LVL27:
 405 0260 13010102 		addi	sp,sp,32
 406              		.cfi_def_cfa_register 2
 407 0264 67800000 		jr	ra
 408              	.LVL28:
 409              	.L38:
 410              		.cfi_restore_state
  87:src/MemoryAllocator.cpp ****             ;
 411              		.loc 1 87 91
 412 0268 93840700 		mv	s1,a5
 413              	.LVL29:
 414              	.L28:
  87:src/MemoryAllocator.cpp ****             ;
 415              		.loc 1 87 38 discriminator 4
 416 026c 83B70400 		ld	a5,0(s1)
  87:src/MemoryAllocator.cpp ****             ;
 417              		.loc 1 87 54 discriminator 4
 418 0270 E38007FA 		beqz	a5,.L27
  87:src/MemoryAllocator.cpp ****             ;
 419              		.loc 1 87 54 discriminator 2
 420 0274 E3EAA7FE 		bltu	a5,a0,.L38
 421 0278 6FF09FF9 		j	.L27
 422              	.LVL30:
 423              	.L29:
  95:src/MemoryAllocator.cpp ****     if (newSeg->next)
GAS LISTING /tmp/ccw9uv4m.s 			page 11


 424              		.loc 1 95 9 is_stmt 1
  95:src/MemoryAllocator.cpp ****     if (newSeg->next)
 425              		.loc 1 95 22 is_stmt 0
 426 027c 17070000 		lla	a4,_ZN15MemoryAllocator9fmem_headE
 426      13070700 
 427 0284 03370700 		ld	a4,0(a4)
 428 0288 2330E5FC 		sd	a4,-64(a0)
 429 028c 6FF09FF9 		j	.L30
 430              	.L32:
 101:src/MemoryAllocator.cpp **** 
 431              		.loc 1 101 9 is_stmt 1
 101:src/MemoryAllocator.cpp **** 
 432              		.loc 1 101 19 is_stmt 0
 433 0290 17070000 		sd	a5,_ZN15MemoryAllocator9fmem_headE,a4
 433      2330F700 
 434 0298 6FF01FFA 		j	.L33
 435              	.LVL31:
 436              	.L34:
 437              		.cfi_def_cfa_register 2
 438              		.cfi_restore 1
 439              		.cfi_restore 8
 440              		.cfi_restore 9
  82:src/MemoryAllocator.cpp ****     FreeMem *curr = nullptr;
 441              		.loc 1 82 17
 442 029c 1305F0FF 		li	a0,-1
 443              	.LVL32:
 444 02a0 67800000 		ret
 445              	.LVL33:
 446              	.L35:
 447 02a4 1305F0FF 		li	a0,-1
 448              	.LVL34:
 449 02a8 67800000 		ret
 450              	.LVL35:
 451              	.L36:
 452 02ac 1305F0FF 		li	a0,-1
 453              	.LVL36:
 454              		.loc 1 106 1
 455 02b0 67800000 		ret
 456              		.cfi_endproc
 457              	.LFE3:
 459              		.globl	_ZN15MemoryAllocator9fmem_headE
 460              		.section	.sbss,"aw",@nobits
 461              		.align	3
 464              	_ZN15MemoryAllocator9fmem_headE:
 465 0000 00000000 		.zero	8
 465      00000000 
 466              		.text
 467              	.Letext0:
 468              		.file 2 "src/../lib/hw.h"
 469              		.file 3 "src/../h/MemoryAllocator.hpp"
GAS LISTING /tmp/ccw9uv4m.s 			page 12

