GAS LISTING /tmp/cci5x6w9.s 			page 1


   1              		.file	"mySem.cpp"
   2              		.option nopic
   3              		.option norelax
   4              		.text
   5              	.Ltext0:
   6              		.align	2
   8              	_Z41__static_initialization_and_destruction_0ii:
   9              	.LFB58:
  10              		.file 1 "src/mySem.cpp"
   1:src/mySem.cpp **** #include "../h/mySem.hpp"
   2:src/mySem.cpp **** 
   3:src/mySem.cpp **** List<TCB> mySem::sleepingOnSem;
   4:src/mySem.cpp **** 
   5:src/mySem.cpp **** List<mySem> mySem::allTimedSems;
   6:src/mySem.cpp **** 
   7:src/mySem.cpp **** void mySem::close() {
   8:src/mySem.cpp ****     TCB* thread;
   9:src/mySem.cpp ****     while((thread = blocked.removeFirst()) != nullptr){
  10:src/mySem.cpp ****         Scheduler::put(thread);
  11:src/mySem.cpp ****     }
  12:src/mySem.cpp ****     closed = true;
  13:src/mySem.cpp **** }
  14:src/mySem.cpp **** 
  15:src/mySem.cpp **** void mySem::block() {
  16:src/mySem.cpp ****     TCB* old = TCB::running;
  17:src/mySem.cpp ****     blocked.addLast(old);
  18:src/mySem.cpp ****     TCB::running = Scheduler::get();
  19:src/mySem.cpp ****     TCB::contextSwitch(&old->context, &TCB::running->context);
  20:src/mySem.cpp **** }
  21:src/mySem.cpp **** 
  22:src/mySem.cpp **** void mySem::wait() {
  23:src/mySem.cpp ****     if(--val < 0){
  24:src/mySem.cpp ****         block();
  25:src/mySem.cpp ****     }
  26:src/mySem.cpp **** }
  27:src/mySem.cpp **** 
  28:src/mySem.cpp **** void mySem::deblock() {
  29:src/mySem.cpp ****     TCB* thread = blocked.removeFirst();
  30:src/mySem.cpp ****     Scheduler::put(thread);
  31:src/mySem.cpp **** }
  32:src/mySem.cpp **** 
  33:src/mySem.cpp **** void mySem::signal() {
  34:src/mySem.cpp ****     if (val++<0)
  35:src/mySem.cpp ****         deblock();
  36:src/mySem.cpp **** }
  37:src/mySem.cpp **** 
  38:src/mySem.cpp **** int mySem::trywait() {
  39:src/mySem.cpp ****     if (val > 0){
  40:src/mySem.cpp ****         val--;
  41:src/mySem.cpp ****         return 1;
  42:src/mySem.cpp ****     }
  43:src/mySem.cpp ****     return 0;
  44:src/mySem.cpp **** }
  45:src/mySem.cpp **** 
  46:src/mySem.cpp **** void mySem::addToWaitingList(time_t period) {
  47:src/mySem.cpp ****     if(!flagAdded) {
  48:src/mySem.cpp ****         allTimedSems.addLast(this);
GAS LISTING /tmp/cci5x6w9.s 			page 2


  49:src/mySem.cpp ****         flagAdded = true;
  50:src/mySem.cpp ****     }
  51:src/mySem.cpp ****     TCB::running->sleepTime = period;
  52:src/mySem.cpp ****     sleepingOnSem.addLast(TCB::running);
  53:src/mySem.cpp **** 
  54:src/mySem.cpp ****     //context switch
  55:src/mySem.cpp ****     TCB* old = TCB::running;
  56:src/mySem.cpp ****     TCB::running = Scheduler::get();
  57:src/mySem.cpp ****     TCB::contextSwitch(&old->context, &TCB::running->context);
  58:src/mySem.cpp **** }
  59:src/mySem.cpp **** 
  60:src/mySem.cpp **** void mySem::checkWaitingList() {
  61:src/mySem.cpp ****     if(sleepingOnSem.setPointer() == 0) {
  62:src/mySem.cpp ****         while(1){
  63:src/mySem.cpp ****             TCB* thread = sleepingOnSem.getData();
  64:src/mySem.cpp ****             thread->sleepTime--;
  65:src/mySem.cpp ****             if(thread->sleepTime == 0){
  66:src/mySem.cpp ****                 sleepingOnSem.removeElem();
  67:src/mySem.cpp ****                 Scheduler::put(thread);
  68:src/mySem.cpp ****             }
  69:src/mySem.cpp ****             if(sleepingOnSem.movePointer() == -1) break;
  70:src/mySem.cpp ****         }
  71:src/mySem.cpp ****     }
  72:src/mySem.cpp **** }
  73:src/mySem.cpp **** 
  74:src/mySem.cpp **** void mySem::checkAllTimedSems() {
  75:src/mySem.cpp ****     if(allTimedSems.setPointer() == 0) {
  76:src/mySem.cpp ****         while(1){
  77:src/mySem.cpp ****             mySem* sem = allTimedSems.getData();
  78:src/mySem.cpp ****             if(sem) sem->checkWaitingList();
  79:src/mySem.cpp ****             if(allTimedSems.movePointer() == -1) break;
  80:src/mySem.cpp ****         }
  81:src/mySem.cpp ****     }
  82:src/mySem.cpp **** }
  11              		.loc 1 82 1
  12              		.cfi_startproc
  13              	.LVL0:
  14 0000 130101FF 		addi	sp,sp,-16
  15              		.cfi_def_cfa_offset 16
  16 0004 23348100 		sd	s0,8(sp)
  17              		.cfi_offset 8, -8
  18 0008 13040101 		addi	s0,sp,16
  19              		.cfi_def_cfa 8, 0
  20              		.loc 1 82 1 is_stmt 0
  21 000c 93071000 		li	a5,1
  22 0010 6308F500 		beq	a0,a5,.L4
  23              	.L1:
  24 0014 03348100 		ld	s0,8(sp)
  25              		.cfi_remember_state
  26              		.cfi_restore 8
  27 0018 13010101 		addi	sp,sp,16
  28              		.cfi_def_cfa_register 2
  29 001c 67800000 		jr	ra
  30              	.L4:
  31              		.cfi_restore_state
  32              		.loc 1 82 1 discriminator 1
  33 0020 B7070100 		li	a5,65536
GAS LISTING /tmp/cci5x6w9.s 			page 3


  34 0024 9387F7FF 		addi	a5,a5,-1
  35 0028 E396F5FE 		bne	a1,a5,.L1
  36              	.LVL1:
  37              	.LBB36:
  38              	.LBB37:
  39              	.LBB38:
  40              		.file 2 "src/../h/list.hpp"
   1:src/../h/list.hpp **** #ifndef OS1_VEZBE07_RISCV_CONTEXT_SWITCH_2_INTERRUPT_LIST_HPP
   2:src/../h/list.hpp **** #define OS1_VEZBE07_RISCV_CONTEXT_SWITCH_2_INTERRUPT_LIST_HPP
   3:src/../h/list.hpp **** 
   4:src/../h/list.hpp **** #include "../h/MemoryAllocator.hpp"
   5:src/../h/list.hpp **** 
   6:src/../h/list.hpp **** 
   7:src/../h/list.hpp **** template <typename T>
   8:src/../h/list.hpp **** class List
   9:src/../h/list.hpp **** {
  10:src/../h/list.hpp **** private:
  11:src/../h/list.hpp ****     struct Elem
  12:src/../h/list.hpp ****     {
  13:src/../h/list.hpp ****         T *data;
  14:src/../h/list.hpp ****         Elem *next;
  15:src/../h/list.hpp **** 
  16:src/../h/list.hpp ****         Elem(T *data, Elem *next) : data(data), next(next) {}
  17:src/../h/list.hpp ****     };
  18:src/../h/list.hpp **** 
  19:src/../h/list.hpp ****     Elem *head, *tail;
  20:src/../h/list.hpp ****     
  21:src/../h/list.hpp ****     Elem* pointer;
  22:src/../h/list.hpp ****     
  23:src/../h/list.hpp **** public:
  24:src/../h/list.hpp ****     List() : head(0), tail(0), pointer(0) {}
  41              		.loc 2 24 41
  42 002c 97070000 		lla	a5,.LANCHOR0
  42      93870700 
  43 0034 23B00700 		sd	zero,0(a5)
  44 0038 23B40700 		sd	zero,8(a5)
  45 003c 23B80700 		sd	zero,16(a5)
  46              	.LVL2:
  47              	.LBE38:
  48              	.LBE37:
  49              	.LBE36:
  50              	.LBB39:
  51              	.LBB40:
  52              	.LBB41:
  53 0040 23BC0700 		sd	zero,24(a5)
  54 0044 23B00702 		sd	zero,32(a5)
  55 0048 23B40702 		sd	zero,40(a5)
  56              	.LBE41:
  57              	.LBE40:
  58              	.LBE39:
  59              		.loc 1 82 1
  60 004c 6FF09FFC 		j	.L1
  61              		.cfi_endproc
  62              	.LFE58:
  64              		.align	2
  65              		.globl	_ZN5mySem5closeEv
  67              	_ZN5mySem5closeEv:
GAS LISTING /tmp/cci5x6w9.s 			page 4


  68              	.LFB32:
   7:src/mySem.cpp ****     TCB* thread;
  69              		.loc 1 7 21 is_stmt 1
  70              		.cfi_startproc
  71              	.LVL3:
  72 0050 130101FE 		addi	sp,sp,-32
  73              		.cfi_def_cfa_offset 32
  74 0054 233C1100 		sd	ra,24(sp)
  75 0058 23388100 		sd	s0,16(sp)
  76 005c 23349100 		sd	s1,8(sp)
  77 0060 23302101 		sd	s2,0(sp)
  78              		.cfi_offset 1, -8
  79              		.cfi_offset 8, -16
  80              		.cfi_offset 9, -24
  81              		.cfi_offset 18, -32
  82 0064 13040102 		addi	s0,sp,32
  83              		.cfi_def_cfa 8, 0
  84 0068 13090500 		mv	s2,a0
  85 006c 6F004002 		j	.L8
  86              	.LVL4:
  87              	.L10:
  88              	.LBB42:
  89              	.LBB43:
  25:src/../h/list.hpp **** 
  26:src/../h/list.hpp ****     List(const List<T> &) = delete;
  27:src/../h/list.hpp **** 
  28:src/../h/list.hpp ****     List<T> &operator=(const List<T> &) = delete;
  29:src/../h/list.hpp **** 
  30:src/../h/list.hpp ****  
  31:src/../h/list.hpp ****     int setPointer(){
  32:src/../h/list.hpp ****         if(!head) return -1;
  33:src/../h/list.hpp ****         pointer = head;
  34:src/../h/list.hpp ****         return 0;
  35:src/../h/list.hpp ****     } 
  36:src/../h/list.hpp **** 
  37:src/../h/list.hpp ****     int movePointer(){
  38:src/../h/list.hpp ****         if(!pointer) return -1;
  39:src/../h/list.hpp ****         pointer = pointer->next;
  40:src/../h/list.hpp ****         if(!pointer) return -1;
  41:src/../h/list.hpp ****         return 0;
  42:src/../h/list.hpp ****     }
  43:src/../h/list.hpp **** 
  44:src/../h/list.hpp ****     T* getData(){
  45:src/../h/list.hpp ****         return pointer->data;
  46:src/../h/list.hpp ****     }
  47:src/../h/list.hpp **** 
  48:src/../h/list.hpp ****     T* removeElem(){
  49:src/../h/list.hpp ****         if(pointer == head) removeFirst();
  50:src/../h/list.hpp ****         else if(pointer == tail) removeLast();
  51:src/../h/list.hpp ****         else{
  52:src/../h/list.hpp ****             Elem* last = nullptr;
  53:src/../h/list.hpp ****             Elem* curr = head;
  54:src/../h/list.hpp ****             while(curr != pointer){ last = curr; curr = curr->next; }
  55:src/../h/list.hpp ****             last->next = pointer->next;
  56:src/../h/list.hpp ****         }
  57:src/../h/list.hpp **** 
  58:src/../h/list.hpp ****         return pointer->data;
GAS LISTING /tmp/cci5x6w9.s 			page 5


  59:src/../h/list.hpp ****     }
  60:src/../h/list.hpp ****     void addFirst(T *data)
  61:src/../h/list.hpp ****     {
  62:src/../h/list.hpp ****         // Elem *elem = new Elem(data, head);
  63:src/../h/list.hpp ****         size_t size = sizeof(Elem);
  64:src/../h/list.hpp ****         size_t numBlocks = (size % MEM_BLOCK_SIZE == 0) ? size / MEM_BLOCK_SIZE : size / MEM_BLOCK_
  65:src/../h/list.hpp ****         Elem *elem = (Elem *)MemoryAllocator::mem_alloc(numBlocks);
  66:src/../h/list.hpp ****         elem->data = data;
  67:src/../h/list.hpp ****         elem->next = head;
  68:src/../h/list.hpp ****         head = elem;
  69:src/../h/list.hpp ****         if (!tail)
  70:src/../h/list.hpp ****         {
  71:src/../h/list.hpp ****             tail = head;
  72:src/../h/list.hpp ****         }
  73:src/../h/list.hpp ****     }
  74:src/../h/list.hpp **** 
  75:src/../h/list.hpp ****     void addLast(T *data)
  76:src/../h/list.hpp ****     {
  77:src/../h/list.hpp ****         // Elem *elem = new Elem(data, 0);
  78:src/../h/list.hpp ****         size_t size = sizeof(Elem);
  79:src/../h/list.hpp ****         size_t numBlocks = (size % MEM_BLOCK_SIZE == 0) ? size / MEM_BLOCK_SIZE : size / MEM_BLOCK_
  80:src/../h/list.hpp ****         Elem *elem = (Elem *)MemoryAllocator::mem_alloc(numBlocks);
  81:src/../h/list.hpp ****         elem->data = data;
  82:src/../h/list.hpp ****         elem->next = 0;
  83:src/../h/list.hpp ****         if (tail)
  84:src/../h/list.hpp ****         {
  85:src/../h/list.hpp ****             tail->next = elem;
  86:src/../h/list.hpp ****             tail = elem;
  87:src/../h/list.hpp ****         }
  88:src/../h/list.hpp ****         else
  89:src/../h/list.hpp ****         {
  90:src/../h/list.hpp ****             head = tail = elem;
  91:src/../h/list.hpp ****         }
  92:src/../h/list.hpp ****         
  93:src/../h/list.hpp ****     }
  94:src/../h/list.hpp **** 
  95:src/../h/list.hpp ****     T *removeFirst()
  96:src/../h/list.hpp ****     {
  97:src/../h/list.hpp ****         if (!head)
  98:src/../h/list.hpp ****         {
  99:src/../h/list.hpp ****             return 0;
 100:src/../h/list.hpp ****         }
 101:src/../h/list.hpp **** 
 102:src/../h/list.hpp ****         Elem *elem = head;
 103:src/../h/list.hpp ****         head = head->next;
 104:src/../h/list.hpp ****         if (!head)
 105:src/../h/list.hpp ****         {
 106:src/../h/list.hpp ****             tail = 0;
  90              		.loc 2 106 13 is_stmt 0
  91 0070 23380900 		sd	zero,16(s2)
  92              	.L7:
 107:src/../h/list.hpp ****         }
 108:src/../h/list.hpp **** 
 109:src/../h/list.hpp **** 
 110:src/../h/list.hpp ****         T *ret = elem->data;
  93              		.loc 2 110 12
  94 0074 83340500 		ld	s1,0(a0)
GAS LISTING /tmp/cci5x6w9.s 			page 6


  95              	.LVL5:
 111:src/../h/list.hpp ****         // delete elem;
 112:src/../h/list.hpp ****         MemoryAllocator::mem_free(elem);
  96              		.loc 2 112 34
  97 0078 97000000 		call	_ZN15MemoryAllocator8mem_freeEPv
  97      E7800000 
  98              	.LVL6:
  99              	.LBE43:
 100              	.LBE42:
   9:src/mySem.cpp ****         Scheduler::put(thread);
 101              		.loc 1 9 44
 102 0080 63840402 		beqz	s1,.L6
  10:src/mySem.cpp ****     }
 103              		.loc 1 10 9 is_stmt 1
  10:src/mySem.cpp ****     }
 104              		.loc 1 10 23 is_stmt 0
 105 0084 13850400 		mv	a0,s1
 106 0088 97000000 		call	_ZN9Scheduler3putEP3TCB
 106      E7800000 
 107              	.LVL7:
 108              	.L8:
   8:src/mySem.cpp ****     while((thread = blocked.removeFirst()) != nullptr){
 109              		.loc 1 8 5 is_stmt 1
   9:src/mySem.cpp ****         Scheduler::put(thread);
 110              		.loc 1 9 5
 111              	.LBB45:
 112              	.LBB44:
  97:src/../h/list.hpp ****         {
 113              		.loc 2 97 14 is_stmt 0
 114 0090 03358900 		ld	a0,8(s2)
  97:src/../h/list.hpp ****         {
 115              		.loc 2 97 9
 116 0094 630A0500 		beqz	a0,.L6
 117              	.LVL8:
 103:src/../h/list.hpp ****         if (!head)
 118              		.loc 2 103 22
 119 0098 83378500 		ld	a5,8(a0)
 103:src/../h/list.hpp ****         if (!head)
 120              		.loc 2 103 9
 121 009c 2334F900 		sd	a5,8(s2)
 104:src/../h/list.hpp ****         {
 122              		.loc 2 104 9
 123 00a0 E39A07FC 		bnez	a5,.L7
 124 00a4 6FF0DFFC 		j	.L10
 125              	.LVL9:
 126              	.L6:
 127              	.LBE44:
 128              	.LBE45:
  12:src/mySem.cpp **** }
 129              		.loc 1 12 5 is_stmt 1
  12:src/mySem.cpp **** }
 130              		.loc 1 12 12 is_stmt 0
 131 00a8 93071000 		li	a5,1
 132 00ac 2302F900 		sb	a5,4(s2)
  13:src/mySem.cpp **** 
 133              		.loc 1 13 1
 134 00b0 83308101 		ld	ra,24(sp)
GAS LISTING /tmp/cci5x6w9.s 			page 7


 135              		.cfi_restore 1
 136 00b4 03340101 		ld	s0,16(sp)
 137              		.cfi_restore 8
 138 00b8 83348100 		ld	s1,8(sp)
 139              		.cfi_restore 9
 140 00bc 03390100 		ld	s2,0(sp)
 141              		.cfi_restore 18
 142              	.LVL10:
 143 00c0 13010102 		addi	sp,sp,32
 144              		.cfi_def_cfa_register 2
 145 00c4 67800000 		jr	ra
 146              		.cfi_endproc
 147              	.LFE32:
 149              		.align	2
 150              		.globl	_ZN5mySem5blockEv
 152              	_ZN5mySem5blockEv:
 153              	.LFB33:
  15:src/mySem.cpp ****     TCB* old = TCB::running;
 154              		.loc 1 15 21 is_stmt 1
 155              		.cfi_startproc
 156              	.LVL11:
 157 00c8 130101FE 		addi	sp,sp,-32
 158              		.cfi_def_cfa_offset 32
 159 00cc 233C1100 		sd	ra,24(sp)
 160 00d0 23388100 		sd	s0,16(sp)
 161 00d4 23349100 		sd	s1,8(sp)
 162 00d8 23302101 		sd	s2,0(sp)
 163              		.cfi_offset 1, -8
 164              		.cfi_offset 8, -16
 165              		.cfi_offset 9, -24
 166              		.cfi_offset 18, -32
 167 00dc 13040102 		addi	s0,sp,32
 168              		.cfi_def_cfa 8, 0
 169 00e0 93040500 		mv	s1,a0
  16:src/mySem.cpp ****     blocked.addLast(old);
 170              		.loc 1 16 5
  16:src/mySem.cpp ****     blocked.addLast(old);
 171              		.loc 1 16 10 is_stmt 0
 172 00e4 97070000 		lla	a5,_ZN3TCB7runningE
 172      93870700 
 173 00ec 03B90700 		ld	s2,0(a5)
 174              	.LVL12:
  17:src/mySem.cpp ****     TCB::running = Scheduler::get();
 175              		.loc 1 17 5 is_stmt 1
 176              	.LBB46:
 177              	.LBB47:
  80:src/../h/list.hpp ****         elem->data = data;
 178              		.loc 2 80 56 is_stmt 0
 179 00f0 13051000 		li	a0,1
 180              	.LVL13:
 181 00f4 97000000 		call	_ZN15MemoryAllocator9mem_allocEm
 181      E7800000 
 182              	.LVL14:
  81:src/../h/list.hpp ****         elem->next = 0;
 183              		.loc 2 81 9
 184 00fc 23302501 		sd	s2,0(a0)
  82:src/../h/list.hpp ****         if (tail)
GAS LISTING /tmp/cci5x6w9.s 			page 8


 185              		.loc 2 82 9
 186 0100 23340500 		sd	zero,8(a0)
  83:src/../h/list.hpp ****         {
 187              		.loc 2 83 13
 188 0104 83B70401 		ld	a5,16(s1)
  83:src/../h/list.hpp ****         {
 189              		.loc 2 83 9
 190 0108 63820704 		beqz	a5,.L12
  85:src/../h/list.hpp ****             tail = elem;
 191              		.loc 2 85 13
 192 010c 23B4A700 		sd	a0,8(a5)
  86:src/../h/list.hpp ****         }
 193              		.loc 2 86 13
 194 0110 23B8A400 		sd	a0,16(s1)
 195              	.L13:
 196              	.LVL15:
 197              	.LBE47:
 198              	.LBE46:
  18:src/mySem.cpp ****     TCB::contextSwitch(&old->context, &TCB::running->context);
 199              		.loc 1 18 5 is_stmt 1
  18:src/mySem.cpp ****     TCB::contextSwitch(&old->context, &TCB::running->context);
 200              		.loc 1 18 34 is_stmt 0
 201 0114 97000000 		call	_ZN9Scheduler3getEv
 201      E7800000 
 202              	.LVL16:
  18:src/mySem.cpp ****     TCB::contextSwitch(&old->context, &TCB::running->context);
 203              		.loc 1 18 18
 204 011c 97070000 		sd	a0,_ZN3TCB7runningE,a5
 204      23B0A700 
  19:src/mySem.cpp **** }
 205              		.loc 1 19 5 is_stmt 1
  19:src/mySem.cpp **** }
 206              		.loc 1 19 23 is_stmt 0
 207 0124 93058501 		addi	a1,a0,24
 208 0128 13058901 		addi	a0,s2,24
 209 012c 97000000 		call	_ZN3TCB13contextSwitchEPNS_7ContextES1_
 209      E7800000 
 210              	.LVL17:
  20:src/mySem.cpp **** 
 211              		.loc 1 20 1
 212 0134 83308101 		ld	ra,24(sp)
 213              		.cfi_remember_state
 214              		.cfi_restore 1
 215 0138 03340101 		ld	s0,16(sp)
 216              		.cfi_restore 8
 217 013c 83348100 		ld	s1,8(sp)
 218              		.cfi_restore 9
 219              	.LVL18:
 220 0140 03390100 		ld	s2,0(sp)
 221              		.cfi_restore 18
 222              	.LVL19:
 223 0144 13010102 		addi	sp,sp,32
 224              		.cfi_def_cfa_register 2
 225 0148 67800000 		jr	ra
 226              	.LVL20:
 227              	.L12:
 228              		.cfi_restore_state
GAS LISTING /tmp/cci5x6w9.s 			page 9


 229              	.LBB49:
 230              	.LBB48:
  90:src/../h/list.hpp ****         }
 231              		.loc 2 90 13
 232 014c 23B8A400 		sd	a0,16(s1)
 233 0150 23B4A400 		sd	a0,8(s1)
 234 0154 6FF01FFC 		j	.L13
 235              	.LBE48:
 236              	.LBE49:
 237              		.cfi_endproc
 238              	.LFE33:
 240              		.align	2
 241              		.globl	_ZN5mySem4waitEv
 243              	_ZN5mySem4waitEv:
 244              	.LFB34:
  22:src/mySem.cpp ****     if(--val < 0){
 245              		.loc 1 22 20 is_stmt 1
 246              		.cfi_startproc
 247              	.LVL21:
  23:src/mySem.cpp ****         block();
 248              		.loc 1 23 5
  23:src/mySem.cpp ****         block();
 249              		.loc 1 23 10 is_stmt 0
 250 0158 83270500 		lw	a5,0(a0)
  23:src/mySem.cpp ****         block();
 251              		.loc 1 23 8
 252 015c 9B87F7FF 		addiw	a5,a5,-1
  23:src/mySem.cpp ****         block();
 253              		.loc 1 23 14
 254 0160 2320F500 		sw	a5,0(a0)
  23:src/mySem.cpp ****         block();
 255              		.loc 1 23 5
 256 0164 13970702 		slli	a4,a5,32
 257 0168 63440700 		bltz	a4,.L21
 258 016c 67800000 		ret
 259              	.L21:
  22:src/mySem.cpp ****     if(--val < 0){
 260              		.loc 1 22 20
 261 0170 130101FF 		addi	sp,sp,-16
 262              		.cfi_def_cfa_offset 16
 263 0174 23341100 		sd	ra,8(sp)
 264 0178 23308100 		sd	s0,0(sp)
 265              		.cfi_offset 1, -8
 266              		.cfi_offset 8, -16
 267 017c 13040101 		addi	s0,sp,16
 268              		.cfi_def_cfa 8, 0
  24:src/mySem.cpp ****     }
 269              		.loc 1 24 9 is_stmt 1
  24:src/mySem.cpp ****     }
 270              		.loc 1 24 14 is_stmt 0
 271 0180 97000000 		call	_ZN5mySem5blockEv
 271      E7800000 
 272              	.LVL22:
  26:src/mySem.cpp **** 
 273              		.loc 1 26 1
 274 0188 83308100 		ld	ra,8(sp)
 275              		.cfi_restore 1
GAS LISTING /tmp/cci5x6w9.s 			page 10


 276 018c 03340100 		ld	s0,0(sp)
 277              		.cfi_restore 8
 278 0190 13010101 		addi	sp,sp,16
 279              		.cfi_def_cfa_register 2
 280 0194 67800000 		jr	ra
 281              		.cfi_endproc
 282              	.LFE34:
 284              		.align	2
 285              		.globl	_ZN5mySem7deblockEv
 287              	_ZN5mySem7deblockEv:
 288              	.LFB35:
  28:src/mySem.cpp ****     TCB* thread = blocked.removeFirst();
 289              		.loc 1 28 23 is_stmt 1
 290              		.cfi_startproc
 291              	.LVL23:
 292 0198 130101FE 		addi	sp,sp,-32
 293              		.cfi_def_cfa_offset 32
 294 019c 233C1100 		sd	ra,24(sp)
 295 01a0 23388100 		sd	s0,16(sp)
 296 01a4 23349100 		sd	s1,8(sp)
 297              		.cfi_offset 1, -8
 298              		.cfi_offset 8, -16
 299              		.cfi_offset 9, -24
 300 01a8 13040102 		addi	s0,sp,32
 301              		.cfi_def_cfa 8, 0
  29:src/mySem.cpp ****     Scheduler::put(thread);
 302              		.loc 1 29 5
 303              	.LVL24:
 304              	.LBB50:
 305              	.LBB51:
  97:src/../h/list.hpp ****         {
 306              		.loc 2 97 14 is_stmt 0
 307 01ac 83378500 		ld	a5,8(a0)
  97:src/../h/list.hpp ****         {
 308              		.loc 2 97 9
 309 01b0 63840704 		beqz	a5,.L25
 310              	.LVL25:
 103:src/../h/list.hpp ****         if (!head)
 311              		.loc 2 103 22
 312 01b4 03B78700 		ld	a4,8(a5)
 103:src/../h/list.hpp ****         if (!head)
 313              		.loc 2 103 9
 314 01b8 2334E500 		sd	a4,8(a0)
 104:src/../h/list.hpp ****         {
 315              		.loc 2 104 9
 316 01bc 630A0702 		beqz	a4,.L27
 317              	.L24:
 110:src/../h/list.hpp ****         // delete elem;
 318              		.loc 2 110 12
 319 01c0 83B40700 		ld	s1,0(a5)
 320              	.LVL26:
 321              		.loc 2 112 34
 322 01c4 13850700 		mv	a0,a5
 323              	.LVL27:
 324 01c8 97000000 		call	_ZN15MemoryAllocator8mem_freeEPv
 324      E7800000 
 325              	.LVL28:
GAS LISTING /tmp/cci5x6w9.s 			page 11


 326              	.L23:
 327              	.LBE51:
 328              	.LBE50:
  30:src/mySem.cpp **** }
 329              		.loc 1 30 5 is_stmt 1
  30:src/mySem.cpp **** }
 330              		.loc 1 30 19 is_stmt 0
 331 01d0 13850400 		mv	a0,s1
 332 01d4 97000000 		call	_ZN9Scheduler3putEP3TCB
 332      E7800000 
 333              	.LVL29:
  31:src/mySem.cpp **** 
 334              		.loc 1 31 1
 335 01dc 83308101 		ld	ra,24(sp)
 336              		.cfi_remember_state
 337              		.cfi_restore 1
 338 01e0 03340101 		ld	s0,16(sp)
 339              		.cfi_restore 8
 340 01e4 83348100 		ld	s1,8(sp)
 341              		.cfi_restore 9
 342              	.LVL30:
 343 01e8 13010102 		addi	sp,sp,32
 344              		.cfi_def_cfa_register 2
 345 01ec 67800000 		jr	ra
 346              	.LVL31:
 347              	.L27:
 348              		.cfi_restore_state
 349              	.LBB53:
 350              	.LBB52:
 106:src/../h/list.hpp ****         }
 351              		.loc 2 106 13
 352 01f0 23380500 		sd	zero,16(a0)
 353 01f4 6FF0DFFC 		j	.L24
 354              	.LVL32:
 355              	.L25:
  99:src/../h/list.hpp ****         }
 356              		.loc 2 99 20
 357 01f8 93840700 		mv	s1,a5
 358 01fc 6FF05FFD 		j	.L23
 359              	.LBE52:
 360              	.LBE53:
 361              		.cfi_endproc
 362              	.LFE35:
 364              		.align	2
 365              		.globl	_ZN5mySem6signalEv
 367              	_ZN5mySem6signalEv:
 368              	.LFB36:
  33:src/mySem.cpp ****     if (val++<0)
 369              		.loc 1 33 22 is_stmt 1
 370              		.cfi_startproc
 371              	.LVL33:
  34:src/mySem.cpp ****         deblock();
 372              		.loc 1 34 5
  34:src/mySem.cpp ****         deblock();
 373              		.loc 1 34 9 is_stmt 0
 374 0200 83270500 		lw	a5,0(a0)
  34:src/mySem.cpp ****         deblock();
GAS LISTING /tmp/cci5x6w9.s 			page 12


 375              		.loc 1 34 12
 376 0204 1B871700 		addiw	a4,a5,1
 377 0208 2320E500 		sw	a4,0(a0)
  34:src/mySem.cpp ****         deblock();
 378              		.loc 1 34 5
 379 020c 63C40700 		bltz	a5,.L34
 380 0210 67800000 		ret
 381              	.L34:
  33:src/mySem.cpp ****     if (val++<0)
 382              		.loc 1 33 22
 383 0214 130101FF 		addi	sp,sp,-16
 384              		.cfi_def_cfa_offset 16
 385 0218 23341100 		sd	ra,8(sp)
 386 021c 23308100 		sd	s0,0(sp)
 387              		.cfi_offset 1, -8
 388              		.cfi_offset 8, -16
 389 0220 13040101 		addi	s0,sp,16
 390              		.cfi_def_cfa 8, 0
  35:src/mySem.cpp **** }
 391              		.loc 1 35 9 is_stmt 1
  35:src/mySem.cpp **** }
 392              		.loc 1 35 16 is_stmt 0
 393 0224 97000000 		call	_ZN5mySem7deblockEv
 393      E7800000 
 394              	.LVL34:
  36:src/mySem.cpp **** 
 395              		.loc 1 36 1
 396 022c 83308100 		ld	ra,8(sp)
 397              		.cfi_restore 1
 398 0230 03340100 		ld	s0,0(sp)
 399              		.cfi_restore 8
 400 0234 13010101 		addi	sp,sp,16
 401              		.cfi_def_cfa_register 2
 402 0238 67800000 		jr	ra
 403              		.cfi_endproc
 404              	.LFE36:
 406              		.align	2
 407              		.globl	_ZN5mySem7trywaitEv
 409              	_ZN5mySem7trywaitEv:
 410              	.LFB37:
  38:src/mySem.cpp ****     if (val > 0){
 411              		.loc 1 38 22 is_stmt 1
 412              		.cfi_startproc
 413              	.LVL35:
 414 023c 130101FF 		addi	sp,sp,-16
 415              		.cfi_def_cfa_offset 16
 416 0240 23348100 		sd	s0,8(sp)
 417              		.cfi_offset 8, -8
 418 0244 13040101 		addi	s0,sp,16
 419              		.cfi_def_cfa 8, 0
  39:src/mySem.cpp ****         val--;
 420              		.loc 1 39 5
  39:src/mySem.cpp ****         val--;
 421              		.loc 1 39 9 is_stmt 0
 422 0248 83270500 		lw	a5,0(a0)
  39:src/mySem.cpp ****         val--;
 423              		.loc 1 39 5
GAS LISTING /tmp/cci5x6w9.s 			page 13


 424 024c 634AF000 		bgtz	a5,.L39
  43:src/mySem.cpp **** }
 425              		.loc 1 43 12
 426 0250 13050000 		li	a0,0
 427              	.LVL36:
 428              	.L36:
  44:src/mySem.cpp **** 
 429              		.loc 1 44 1
 430 0254 03348100 		ld	s0,8(sp)
 431              		.cfi_remember_state
 432              		.cfi_restore 8
 433 0258 13010101 		addi	sp,sp,16
 434              		.cfi_def_cfa_register 2
 435 025c 67800000 		jr	ra
 436              	.LVL37:
 437              	.L39:
 438              		.cfi_restore_state
  40:src/mySem.cpp ****         return 1;
 439              		.loc 1 40 9 is_stmt 1
  40:src/mySem.cpp ****         return 1;
 440              		.loc 1 40 12 is_stmt 0
 441 0260 9B87F7FF 		addiw	a5,a5,-1
 442 0264 2320F500 		sw	a5,0(a0)
  41:src/mySem.cpp ****     }
 443              		.loc 1 41 9 is_stmt 1
  41:src/mySem.cpp ****     }
 444              		.loc 1 41 16 is_stmt 0
 445 0268 13051000 		li	a0,1
 446              	.LVL38:
 447 026c 6FF09FFE 		j	.L36
 448              		.cfi_endproc
 449              	.LFE37:
 451              		.align	2
 452              		.globl	_ZN5mySem16addToWaitingListEm
 454              	_ZN5mySem16addToWaitingListEm:
 455              	.LFB38:
  46:src/mySem.cpp ****     if(!flagAdded) {
 456              		.loc 1 46 45 is_stmt 1
 457              		.cfi_startproc
 458              	.LVL39:
 459 0270 130101FE 		addi	sp,sp,-32
 460              		.cfi_def_cfa_offset 32
 461 0274 233C1100 		sd	ra,24(sp)
 462 0278 23388100 		sd	s0,16(sp)
 463 027c 23349100 		sd	s1,8(sp)
 464 0280 23302101 		sd	s2,0(sp)
 465              		.cfi_offset 1, -8
 466              		.cfi_offset 8, -16
 467              		.cfi_offset 9, -24
 468              		.cfi_offset 18, -32
 469 0284 13040102 		addi	s0,sp,32
 470              		.cfi_def_cfa 8, 0
 471 0288 13890500 		mv	s2,a1
  47:src/mySem.cpp ****         allTimedSems.addLast(this);
 472              		.loc 1 47 5
  47:src/mySem.cpp ****         allTimedSems.addLast(this);
 473              		.loc 1 47 9 is_stmt 0
GAS LISTING /tmp/cci5x6w9.s 			page 14


 474 028c 83470502 		lbu	a5,32(a0)
  47:src/mySem.cpp ****         allTimedSems.addLast(this);
 475              		.loc 1 47 5
 476 0290 63820708 		beqz	a5,.L47
 477              	.LVL40:
 478              	.L41:
  51:src/mySem.cpp ****     sleepingOnSem.addLast(TCB::running);
 479              		.loc 1 51 5 is_stmt 1
  51:src/mySem.cpp ****     sleepingOnSem.addLast(TCB::running);
 480              		.loc 1 51 19 is_stmt 0
 481 0294 97070000 		lla	a5,_ZN3TCB7runningE
 481      93870700 
 482 029c 83B40700 		ld	s1,0(a5)
  51:src/mySem.cpp ****     sleepingOnSem.addLast(TCB::running);
 483              		.loc 1 51 29
 484 02a0 23AA2403 		sw	s2,52(s1)
  52:src/mySem.cpp **** 
 485              		.loc 1 52 5 is_stmt 1
 486              	.LVL41:
 487              	.LBB54:
 488              	.LBB55:
  80:src/../h/list.hpp ****         elem->data = data;
 489              		.loc 2 80 56 is_stmt 0
 490 02a4 13051000 		li	a0,1
 491 02a8 97000000 		call	_ZN15MemoryAllocator9mem_allocEm
 491      E7800000 
 492              	.LVL42:
  81:src/../h/list.hpp ****         elem->next = 0;
 493              		.loc 2 81 9
 494 02b0 23309500 		sd	s1,0(a0)
  82:src/../h/list.hpp ****         if (tail)
 495              		.loc 2 82 9
 496 02b4 23340500 		sd	zero,8(a0)
  83:src/../h/list.hpp ****         {
 497              		.loc 2 83 13
 498 02b8 97070000 		lla	a5,.LANCHOR0
 498      93870700 
 499 02c0 83B78700 		ld	a5,8(a5)
  83:src/../h/list.hpp ****         {
 500              		.loc 2 83 9
 501 02c4 6382070A 		beqz	a5,.L44
  85:src/../h/list.hpp ****             tail = elem;
 502              		.loc 2 85 13
 503 02c8 23B4A700 		sd	a0,8(a5)
  86:src/../h/list.hpp ****         }
 504              		.loc 2 86 13
 505 02cc 97070000 		sd	a0,.LANCHOR0+8,a5
 505      23B0A700 
 506              	.L45:
 507              	.LVL43:
 508              	.LBE55:
 509              	.LBE54:
  55:src/mySem.cpp ****     TCB::running = Scheduler::get();
 510              		.loc 1 55 5 is_stmt 1
  55:src/mySem.cpp ****     TCB::running = Scheduler::get();
 511              		.loc 1 55 10 is_stmt 0
 512 02d4 97040000 		lla	s1,_ZN3TCB7runningE
GAS LISTING /tmp/cci5x6w9.s 			page 15


 512      93840400 
 513 02dc 03B90400 		ld	s2,0(s1)
 514              	.LVL44:
  56:src/mySem.cpp ****     TCB::contextSwitch(&old->context, &TCB::running->context);
 515              		.loc 1 56 5 is_stmt 1
  56:src/mySem.cpp ****     TCB::contextSwitch(&old->context, &TCB::running->context);
 516              		.loc 1 56 34 is_stmt 0
 517 02e0 97000000 		call	_ZN9Scheduler3getEv
 517      E7800000 
 518              	.LVL45:
  56:src/mySem.cpp ****     TCB::contextSwitch(&old->context, &TCB::running->context);
 519              		.loc 1 56 18
 520 02e8 23B0A400 		sd	a0,0(s1)
  57:src/mySem.cpp **** }
 521              		.loc 1 57 5 is_stmt 1
  57:src/mySem.cpp **** }
 522              		.loc 1 57 23 is_stmt 0
 523 02ec 93058501 		addi	a1,a0,24
 524 02f0 13058901 		addi	a0,s2,24
 525 02f4 97000000 		call	_ZN3TCB13contextSwitchEPNS_7ContextES1_
 525      E7800000 
 526              	.LVL46:
  58:src/mySem.cpp **** 
 527              		.loc 1 58 1
 528 02fc 83308101 		ld	ra,24(sp)
 529              		.cfi_remember_state
 530              		.cfi_restore 1
 531 0300 03340101 		ld	s0,16(sp)
 532              		.cfi_restore 8
 533 0304 83348100 		ld	s1,8(sp)
 534              		.cfi_restore 9
 535 0308 03390100 		ld	s2,0(sp)
 536              		.cfi_restore 18
 537              	.LVL47:
 538 030c 13010102 		addi	sp,sp,32
 539              		.cfi_def_cfa_register 2
 540 0310 67800000 		jr	ra
 541              	.LVL48:
 542              	.L47:
 543              		.cfi_restore_state
 544 0314 93040500 		mv	s1,a0
  48:src/mySem.cpp ****         flagAdded = true;
 545              		.loc 1 48 9 is_stmt 1
 546              	.LVL49:
 547              	.LBB57:
 548              	.LBB58:
  80:src/../h/list.hpp ****         elem->data = data;
 549              		.loc 2 80 56 is_stmt 0
 550 0318 13051000 		li	a0,1
 551              	.LVL50:
 552 031c 97000000 		call	_ZN15MemoryAllocator9mem_allocEm
 552      E7800000 
 553              	.LVL51:
  81:src/../h/list.hpp ****         elem->next = 0;
 554              		.loc 2 81 9
 555 0324 23309500 		sd	s1,0(a0)
  82:src/../h/list.hpp ****         if (tail)
GAS LISTING /tmp/cci5x6w9.s 			page 16


 556              		.loc 2 82 9
 557 0328 23340500 		sd	zero,8(a0)
  83:src/../h/list.hpp ****         {
 558              		.loc 2 83 13
 559 032c 97070000 		lla	a5,.LANCHOR0
 559      93870700 
 560 0334 83B70702 		ld	a5,32(a5)
  83:src/../h/list.hpp ****         {
 561              		.loc 2 83 9
 562 0338 638E0700 		beqz	a5,.L42
  85:src/../h/list.hpp ****             tail = elem;
 563              		.loc 2 85 13
 564 033c 23B4A700 		sd	a0,8(a5)
  86:src/../h/list.hpp ****         }
 565              		.loc 2 86 13
 566 0340 97070000 		sd	a0,.LANCHOR0+32,a5
 566      23B0A700 
 567              	.L43:
 568              	.LVL52:
 569              	.LBE58:
 570              	.LBE57:
  49:src/mySem.cpp ****     }
 571              		.loc 1 49 9 is_stmt 1
  49:src/mySem.cpp ****     }
 572              		.loc 1 49 19 is_stmt 0
 573 0348 93071000 		li	a5,1
 574 034c 2380F402 		sb	a5,32(s1)
 575 0350 6FF05FF4 		j	.L41
 576              	.LVL53:
 577              	.L42:
 578              	.LBB60:
 579              	.LBB59:
  90:src/../h/list.hpp ****         }
 580              		.loc 2 90 13
 581 0354 97070000 		lla	a5,.LANCHOR0
 581      93870700 
 582 035c 23B0A702 		sd	a0,32(a5)
 583 0360 23BCA700 		sd	a0,24(a5)
 584 0364 6FF05FFE 		j	.L43
 585              	.LVL54:
 586              	.L44:
 587              	.LBE59:
 588              	.LBE60:
 589              	.LBB61:
 590              	.LBB56:
 591 0368 97070000 		lla	a5,.LANCHOR0
 591      93870700 
 592 0370 23B4A700 		sd	a0,8(a5)
 593 0374 23B0A700 		sd	a0,0(a5)
 594 0378 6FF0DFF5 		j	.L45
 595              	.LBE56:
 596              	.LBE61:
 597              		.cfi_endproc
 598              	.LFE38:
 600              		.align	2
 601              		.globl	_ZN5mySem16checkWaitingListEv
 603              	_ZN5mySem16checkWaitingListEv:
GAS LISTING /tmp/cci5x6w9.s 			page 17


 604              	.LFB39:
  60:src/mySem.cpp ****     if(sleepingOnSem.setPointer() == 0) {
 605              		.loc 1 60 32 is_stmt 1
 606              		.cfi_startproc
 607              	.LVL55:
  61:src/mySem.cpp ****         while(1){
 608              		.loc 1 61 5
 609              	.LBB79:
 610              	.LBB80:
  32:src/../h/list.hpp ****         pointer = head;
 611              		.loc 2 32 13 is_stmt 0
 612 037c 97070000 		lla	a5,.LANCHOR0
 612      93870700 
 613 0384 83B70700 		ld	a5,0(a5)
  32:src/../h/list.hpp ****         pointer = head;
 614              		.loc 2 32 9
 615 0388 63840716 		beqz	a5,.L65
 616              	.LBE80:
 617              	.LBE79:
  60:src/mySem.cpp ****     if(sleepingOnSem.setPointer() == 0) {
 618              		.loc 1 60 32
 619 038c 130101FE 		addi	sp,sp,-32
 620              		.cfi_def_cfa_offset 32
 621 0390 233C1100 		sd	ra,24(sp)
 622 0394 23388100 		sd	s0,16(sp)
 623 0398 23349100 		sd	s1,8(sp)
 624              		.cfi_offset 1, -8
 625              		.cfi_offset 8, -16
 626              		.cfi_offset 9, -24
 627 039c 13040102 		addi	s0,sp,32
 628              		.cfi_def_cfa 8, 0
 629              	.LBB82:
 630              	.LBB81:
  33:src/../h/list.hpp ****         return 0;
 631              		.loc 2 33 9
 632 03a0 17070000 		sd	a5,.LANCHOR0+16,a4
 632      2330F700 
 633              	.LVL56:
 634 03a8 6F00800D 		j	.L62
 635              	.LVL57:
 636              	.L69:
 637              	.LBE81:
 638              	.LBE82:
 639              	.LBB83:
 640              	.LBB84:
 641              	.LBB85:
 642              	.LBB86:
 643              	.LBB87:
  97:src/../h/list.hpp ****         {
 644              		.loc 2 97 14
 645 03ac 97070000 		lla	a5,.LANCHOR0
 645      93870700 
 646 03b4 03B50700 		ld	a0,0(a5)
  97:src/../h/list.hpp ****         {
 647              		.loc 2 97 9
 648 03b8 630E0508 		beqz	a0,.L54
 649              	.LVL58:
GAS LISTING /tmp/cci5x6w9.s 			page 18


 103:src/../h/list.hpp ****         if (!head)
 650              		.loc 2 103 22
 651 03bc 83378500 		ld	a5,8(a0)
 103:src/../h/list.hpp ****         if (!head)
 652              		.loc 2 103 9
 653 03c0 17070000 		sd	a5,.LANCHOR0,a4
 653      2330F700 
 104:src/../h/list.hpp ****         {
 654              		.loc 2 104 9
 655 03c8 63880700 		beqz	a5,.L68
 656              	.L53:
 657              	.LVL59:
 658              		.loc 2 112 34
 659 03cc 97000000 		call	_ZN15MemoryAllocator8mem_freeEPv
 659      E7800000 
 660              	.LVL60:
 661 03d4 6F000008 		j	.L54
 662              	.LVL61:
 663              	.L68:
 106:src/../h/list.hpp ****         }
 664              		.loc 2 106 13
 665 03d8 97070000 		sd	zero,.LANCHOR0+8,a5
 665      23B00700 
 666 03e0 6FF0DFFE 		j	.L53
 667              	.LVL62:
 668              	.L70:
 669              	.LBE87:
 670              	.LBE86:
 671              	.LBB88:
 672              	.LBB89:
 673              	.LBB90:
 113:src/../h/list.hpp ****         return ret;
 114:src/../h/list.hpp ****     }
 115:src/../h/list.hpp **** 
 116:src/../h/list.hpp ****     T *peekFirst()
 117:src/../h/list.hpp ****     {
 118:src/../h/list.hpp ****         if (!head)
 119:src/../h/list.hpp ****         {
 120:src/../h/list.hpp ****             return 0;
 121:src/../h/list.hpp ****         }
 122:src/../h/list.hpp ****         return head->data;
 123:src/../h/list.hpp ****     }
 124:src/../h/list.hpp **** 
 125:src/../h/list.hpp ****     T *removeLast()
 126:src/../h/list.hpp ****     {
 127:src/../h/list.hpp ****         if (!head)
 674              		.loc 2 127 14
 675 03e4 97070000 		lla	a5,.LANCHOR0
 675      93870700 
 676 03ec 83B70700 		ld	a5,0(a5)
 677              		.loc 2 127 9
 678 03f0 63820706 		beqz	a5,.L54
 128:src/../h/list.hpp ****         {
 129:src/../h/list.hpp ****             return 0;
 130:src/../h/list.hpp ****         }
 131:src/../h/list.hpp **** 
 132:src/../h/list.hpp ****         Elem *prev = 0;
GAS LISTING /tmp/cci5x6w9.s 			page 19


 679              		.loc 2 132 15
 680 03f4 93060000 		li	a3,0
 681              	.L58:
 682              	.LVL63:
 683              	.LBB91:
 133:src/../h/list.hpp ****         for (Elem *curr = head; curr && curr != tail; curr = curr->next)
 684              		.loc 2 133 38
 685 03f8 63800702 		beqz	a5,.L57
 686              		.loc 2 133 49
 687 03fc 17070000 		lla	a4,.LANCHOR0
 687      13070700 
 688 0404 03378700 		ld	a4,8(a4)
 689              		.loc 2 133 38
 690 0408 6388E700 		beq	a5,a4,.L57
 691              	.LVL64:
 134:src/../h/list.hpp ****         {
 135:src/../h/list.hpp ****             prev = curr;
 692              		.loc 2 135 13
 693 040c 93860700 		mv	a3,a5
 133:src/../h/list.hpp ****         for (Elem *curr = head; curr && curr != tail; curr = curr->next)
 694              		.loc 2 133 9
 695 0410 83B78700 		ld	a5,8(a5)
 696              	.LVL65:
 697 0414 6FF05FFE 		j	.L58
 698              	.L57:
 699              	.LBE91:
 136:src/../h/list.hpp ****         }
 137:src/../h/list.hpp **** 
 138:src/../h/list.hpp ****         Elem *elem = tail;
 700              		.loc 2 138 15
 701 0418 97070000 		lla	a5,.LANCHOR0
 701      93870700 
 702              	.LVL66:
 703 0420 03B58700 		ld	a0,8(a5)
 704              	.LVL67:
 139:src/../h/list.hpp ****         if (prev)
 705              		.loc 2 139 9
 706 0424 638E0600 		beqz	a3,.L59
 140:src/../h/list.hpp ****         {
 141:src/../h/list.hpp ****             prev->next = 0;
 707              		.loc 2 141 13
 708 0428 23B40600 		sd	zero,8(a3)
 709              	.L60:
 142:src/../h/list.hpp ****         }
 143:src/../h/list.hpp ****         else
 144:src/../h/list.hpp ****         {
 145:src/../h/list.hpp ****             head = 0;
 146:src/../h/list.hpp ****         }
 147:src/../h/list.hpp ****         tail = prev;
 710              		.loc 2 147 9
 711 042c 97070000 		sd	a3,.LANCHOR0+8,a5
 711      23B0D700 
 712              	.LVL68:
 148:src/../h/list.hpp ****         
 149:src/../h/list.hpp ****       
 150:src/../h/list.hpp ****         T *ret = elem->data;
 151:src/../h/list.hpp ****         // delete elem;
GAS LISTING /tmp/cci5x6w9.s 			page 20


 152:src/../h/list.hpp ****         MemoryAllocator::mem_free(elem);
 713              		.loc 2 152 34
 714 0434 97000000 		call	_ZN15MemoryAllocator8mem_freeEPv
 714      E7800000 
 715              	.LVL69:
 716 043c 6F008001 		j	.L54
 717              	.LVL70:
 718              	.L59:
 145:src/../h/list.hpp ****         }
 719              		.loc 2 145 13
 720 0440 97070000 		sd	zero,.LANCHOR0,a5
 720      23B00700 
 721 0448 6FF05FFE 		j	.L60
 722              	.LVL71:
 723              	.L61:
 724              	.LBE90:
 725              	.LBE89:
 726              	.LBB92:
  55:src/../h/list.hpp ****         }
 727              		.loc 2 55 35
 728 044c 83378700 		ld	a5,8(a4)
 729              	.LVL72:
  55:src/../h/list.hpp ****         }
 730              		.loc 2 55 13
 731 0450 23B4F600 		sd	a5,8(a3)
 732              	.LVL73:
 733              	.L54:
 734              	.LBE92:
 735              	.LBE88:
 736              	.LBE85:
 737              	.LBE84:
  67:src/mySem.cpp ****             }
 738              		.loc 1 67 17 is_stmt 1
  67:src/mySem.cpp ****             }
 739              		.loc 1 67 31 is_stmt 0
 740 0454 13850400 		mv	a0,s1
 741 0458 97000000 		call	_ZN9Scheduler3putEP3TCB
 741      E7800000 
 742              	.LVL74:
 743              	.L50:
  69:src/mySem.cpp ****         }
 744              		.loc 1 69 13 is_stmt 1
 745              	.LBB96:
 746              	.LBB97:
  38:src/../h/list.hpp ****         pointer = pointer->next;
 747              		.loc 2 38 13 is_stmt 0
 748 0460 97070000 		lla	a5,.LANCHOR0
 748      93870700 
 749 0468 83B70701 		ld	a5,16(a5)
  38:src/../h/list.hpp ****         pointer = pointer->next;
 750              		.loc 2 38 9
 751 046c 63880706 		beqz	a5,.L48
  39:src/../h/list.hpp ****         if(!pointer) return -1;
 752              		.loc 2 39 28
 753 0470 83B78700 		ld	a5,8(a5)
  39:src/../h/list.hpp ****         if(!pointer) return -1;
 754              		.loc 2 39 9
GAS LISTING /tmp/cci5x6w9.s 			page 21


 755 0474 17070000 		sd	a5,.LANCHOR0+16,a4
 755      2330F700 
  40:src/../h/list.hpp ****         return 0;
 756              		.loc 2 40 9
 757 047c 63800706 		beqz	a5,.L48
 758              	.LVL75:
 759              	.L62:
 760              	.LBE97:
 761              	.LBE96:
 762              	.LBE83:
  62:src/mySem.cpp ****             TCB* thread = sleepingOnSem.getData();
 763              		.loc 1 62 9 is_stmt 1
 764              	.LBB101:
  63:src/mySem.cpp ****             thread->sleepTime--;
 765              		.loc 1 63 13
 766              	.LBB98:
 767              	.LBB99:
  45:src/../h/list.hpp ****     }
 768              		.loc 2 45 16 is_stmt 0
 769 0480 97070000 		lla	a5,.LANCHOR0
 769      93870700 
 770 0488 83B70701 		ld	a5,16(a5)
  45:src/../h/list.hpp ****     }
 771              		.loc 2 45 25
 772 048c 83B40700 		ld	s1,0(a5)
 773              	.LVL76:
 774              	.LBE99:
 775              	.LBE98:
  64:src/mySem.cpp ****             if(thread->sleepTime == 0){
 776              		.loc 1 64 13 is_stmt 1
  64:src/mySem.cpp ****             if(thread->sleepTime == 0){
 777              		.loc 1 64 21 is_stmt 0
 778 0490 83A74403 		lw	a5,52(s1)
  64:src/mySem.cpp ****             if(thread->sleepTime == 0){
 779              		.loc 1 64 30
 780 0494 9B87F7FF 		addiw	a5,a5,-1
 781 0498 1B870700 		sext.w	a4,a5
 782 049c 23AAF402 		sw	a5,52(s1)
  65:src/mySem.cpp ****                 sleepingOnSem.removeElem();
 783              		.loc 1 65 13 is_stmt 1
 784 04a0 E31007FC 		bnez	a4,.L50
  66:src/mySem.cpp ****                 Scheduler::put(thread);
 785              		.loc 1 66 17
 786              	.LVL77:
 787              	.LBB100:
 788              	.LBB95:
  49:src/../h/list.hpp ****         else if(pointer == tail) removeLast();
 789              		.loc 2 49 12 is_stmt 0
 790 04a4 97070000 		lla	a5,.LANCHOR0
 790      93870700 
 791 04ac 03B70701 		ld	a4,16(a5)
  49:src/../h/list.hpp ****         else if(pointer == tail) removeLast();
 792              		.loc 2 49 23
 793 04b0 83B70700 		ld	a5,0(a5)
  49:src/../h/list.hpp ****         else if(pointer == tail) removeLast();
 794              		.loc 2 49 9
 795 04b4 E30CF7EE 		beq	a4,a5,.L69
GAS LISTING /tmp/cci5x6w9.s 			page 22


 796              	.LBB94:
  50:src/../h/list.hpp ****         else{
 797              		.loc 2 50 28
 798 04b8 97060000 		lla	a3,.LANCHOR0
 798      93860600 
 799 04c0 83B68600 		ld	a3,8(a3)
  50:src/../h/list.hpp ****         else{
 800              		.loc 2 50 14
 801 04c4 E300D7F2 		beq	a4,a3,.L70
 802              	.LBB93:
  52:src/../h/list.hpp ****             Elem* curr = head;
 803              		.loc 2 52 19
 804 04c8 93060000 		li	a3,0
 805              	.L55:
 806              	.LVL78:
  54:src/../h/list.hpp ****             last->next = pointer->next;
 807              		.loc 2 54 24
 808 04cc E300F7F8 		beq	a4,a5,.L61
 809              	.LVL79:
  54:src/../h/list.hpp ****             last->next = pointer->next;
 810              		.loc 2 54 37
 811 04d0 93860700 		mv	a3,a5
  54:src/../h/list.hpp ****             last->next = pointer->next;
 812              		.loc 2 54 50
 813 04d4 83B78700 		ld	a5,8(a5)
 814              	.LVL80:
 815 04d8 6FF05FFF 		j	.L55
 816              	.LVL81:
 817              	.L48:
 818              	.LBE93:
 819              	.LBE94:
 820              	.LBE95:
 821              	.LBE100:
 822              	.LBE101:
  72:src/mySem.cpp **** 
 823              		.loc 1 72 1
 824 04dc 83308101 		ld	ra,24(sp)
 825              		.cfi_restore 1
 826 04e0 03340101 		ld	s0,16(sp)
 827              		.cfi_restore 8
 828 04e4 83348100 		ld	s1,8(sp)
 829              		.cfi_restore 9
 830              	.LVL82:
 831 04e8 13010102 		addi	sp,sp,32
 832              		.cfi_def_cfa_register 2
 833 04ec 67800000 		jr	ra
 834              	.LVL83:
 835              	.L65:
 836 04f0 67800000 		ret
 837              		.cfi_endproc
 838              	.LFE39:
 840              		.align	2
 841              		.globl	_ZN5mySem17checkAllTimedSemsEv
 843              	_ZN5mySem17checkAllTimedSemsEv:
 844              	.LFB40:
  74:src/mySem.cpp ****     if(allTimedSems.setPointer() == 0) {
 845              		.loc 1 74 33 is_stmt 1
GAS LISTING /tmp/cci5x6w9.s 			page 23


 846              		.cfi_startproc
  75:src/mySem.cpp ****         while(1){
 847              		.loc 1 75 5
 848              	.LVL84:
 849              	.LBB102:
 850              	.LBB103:
  32:src/../h/list.hpp ****         pointer = head;
 851              		.loc 2 32 13 is_stmt 0
 852 04f4 97070000 		lla	a5,.LANCHOR0
 852      93870700 
 853 04fc 83B78701 		ld	a5,24(a5)
  32:src/../h/list.hpp ****         pointer = head;
 854              		.loc 2 32 9
 855 0500 6384070A 		beqz	a5,.L76
  33:src/../h/list.hpp ****         return 0;
 856              		.loc 2 33 9
 857 0504 17070000 		sd	a5,.LANCHOR0+40,a4
 857      2330F700 
 858              	.LVL85:
 859 050c 6F004003 		j	.L77
 860              	.LVL86:
 861              	.L71:
 862              		.cfi_def_cfa_register 8
 863              		.cfi_offset 1, -8
 864              		.cfi_offset 8, -16
 865              	.LBE103:
 866              	.LBE102:
 867              		.loc 1 82 1
 868 0510 83308100 		ld	ra,8(sp)
 869              		.cfi_restore 1
 870 0514 03340100 		ld	s0,0(sp)
 871              		.cfi_restore 8
 872 0518 13010101 		addi	sp,sp,16
 873              		.cfi_def_cfa_register 2
 874 051c 67800000 		jr	ra
 875              	.LVL87:
 876              	.L83:
 877              	.LBB104:
  79:src/mySem.cpp ****         }
 878              		.loc 1 79 13 is_stmt 1
 879              	.LBB105:
 880              	.LBB106:
  38:src/../h/list.hpp ****         pointer = pointer->next;
 881              		.loc 2 38 13 is_stmt 0
 882 0520 97070000 		lla	a5,.LANCHOR0
 882      93870700 
 883 0528 83B78702 		ld	a5,40(a5)
  38:src/../h/list.hpp ****         pointer = pointer->next;
 884              		.loc 2 38 9
 885 052c 638E0706 		beqz	a5,.L76
  39:src/../h/list.hpp ****         if(!pointer) return -1;
 886              		.loc 2 39 28
 887 0530 83B78700 		ld	a5,8(a5)
  39:src/../h/list.hpp ****         if(!pointer) return -1;
 888              		.loc 2 39 9
 889 0534 17070000 		sd	a5,.LANCHOR0+40,a4
 889      2330F700 
GAS LISTING /tmp/cci5x6w9.s 			page 24


  40:src/../h/list.hpp ****         return 0;
 890              		.loc 2 40 9
 891 053c 63840706 		beqz	a5,.L82
 892              	.LVL88:
 893              	.L77:
 894              	.LBE106:
 895              	.LBE105:
 896              	.LBE104:
  76:src/mySem.cpp ****             mySem* sem = allTimedSems.getData();
 897              		.loc 1 76 9 is_stmt 1
 898              	.LBB113:
  77:src/mySem.cpp ****             if(sem) sem->checkWaitingList();
 899              		.loc 1 77 13
 900              	.LBB108:
 901              	.LBB109:
  45:src/../h/list.hpp ****     }
 902              		.loc 2 45 16 is_stmt 0
 903 0540 97070000 		lla	a5,.LANCHOR0
 903      93870700 
 904 0548 83B78702 		ld	a5,40(a5)
  45:src/../h/list.hpp ****     }
 905              		.loc 2 45 25
 906 054c 03B50700 		ld	a0,0(a5)
 907              	.LVL89:
 908              	.LBE109:
 909              	.LBE108:
  78:src/mySem.cpp ****             if(allTimedSems.movePointer() == -1) break;
 910              		.loc 1 78 13 is_stmt 1
 911 0550 E30805FC 		beqz	a0,.L83
 912              	.LBE113:
  74:src/mySem.cpp ****     if(allTimedSems.setPointer() == 0) {
 913              		.loc 1 74 33 is_stmt 0
 914 0554 130101FF 		addi	sp,sp,-16
 915              		.cfi_def_cfa_offset 16
 916 0558 23341100 		sd	ra,8(sp)
 917 055c 23308100 		sd	s0,0(sp)
 918              		.cfi_offset 1, -8
 919              		.cfi_offset 8, -16
 920 0560 13040101 		addi	s0,sp,16
 921              		.cfi_def_cfa 8, 0
 922              	.L78:
 923              	.LBB114:
  78:src/mySem.cpp ****             if(allTimedSems.movePointer() == -1) break;
 924              		.loc 1 78 21 is_stmt 1 discriminator 1
  78:src/mySem.cpp ****             if(allTimedSems.movePointer() == -1) break;
 925              		.loc 1 78 42 is_stmt 0 discriminator 1
 926 0564 97000000 		call	_ZN5mySem16checkWaitingListEv
 926      E7800000 
 927              	.LVL90:
 928              	.L73:
  79:src/mySem.cpp ****         }
 929              		.loc 1 79 13 is_stmt 1
 930              	.LBB111:
 931              	.LBB107:
  38:src/../h/list.hpp ****         pointer = pointer->next;
 932              		.loc 2 38 13 is_stmt 0
 933 056c 97070000 		lla	a5,.LANCHOR0
GAS LISTING /tmp/cci5x6w9.s 			page 25


 933      93870700 
 934 0574 83B78702 		ld	a5,40(a5)
  38:src/../h/list.hpp ****         pointer = pointer->next;
 935              		.loc 2 38 9
 936 0578 E38C07F8 		beqz	a5,.L71
  39:src/../h/list.hpp ****         if(!pointer) return -1;
 937              		.loc 2 39 28
 938 057c 83B78700 		ld	a5,8(a5)
  39:src/../h/list.hpp ****         if(!pointer) return -1;
 939              		.loc 2 39 9
 940 0580 17070000 		sd	a5,.LANCHOR0+40,a4
 940      2330F700 
  40:src/../h/list.hpp ****         return 0;
 941              		.loc 2 40 9
 942 0588 E38407F8 		beqz	a5,.L71
 943              	.LBE107:
 944              	.LBE111:
 945              	.LBE114:
  76:src/mySem.cpp ****             mySem* sem = allTimedSems.getData();
 946              		.loc 1 76 9 is_stmt 1
 947              	.LBB115:
  77:src/mySem.cpp ****             if(sem) sem->checkWaitingList();
 948              		.loc 1 77 13
 949              	.LVL91:
 950              	.LBB112:
 951              	.LBB110:
  45:src/../h/list.hpp ****     }
 952              		.loc 2 45 16 is_stmt 0
 953 058c 97070000 		lla	a5,.LANCHOR0
 953      93870700 
 954 0594 83B78702 		ld	a5,40(a5)
  45:src/../h/list.hpp ****     }
 955              		.loc 2 45 25
 956 0598 03B50700 		ld	a0,0(a5)
 957              	.LVL92:
 958              	.LBE110:
 959              	.LBE112:
  78:src/mySem.cpp ****             if(allTimedSems.movePointer() == -1) break;
 960              		.loc 1 78 13 is_stmt 1
 961 059c E31405FC 		bnez	a0,.L78
 962 05a0 6FF0DFFC 		j	.L73
 963              	.L82:
 964              		.cfi_def_cfa_register 2
 965              		.cfi_restore 1
 966              		.cfi_restore 8
 967 05a4 67800000 		ret
 968              	.LVL93:
 969              	.L76:
 970 05a8 67800000 		ret
 971              	.LBE115:
 972              		.cfi_endproc
 973              	.LFE40:
 975              		.align	2
 977              	_GLOBAL__sub_I__ZN5mySem13sleepingOnSemE:
 978              	.LFB59:
 979              		.loc 1 82 1
 980              		.cfi_startproc
GAS LISTING /tmp/cci5x6w9.s 			page 26


 981 05ac 130101FF 		addi	sp,sp,-16
 982              		.cfi_def_cfa_offset 16
 983 05b0 23341100 		sd	ra,8(sp)
 984 05b4 23308100 		sd	s0,0(sp)
 985              		.cfi_offset 1, -8
 986              		.cfi_offset 8, -16
 987 05b8 13040101 		addi	s0,sp,16
 988              		.cfi_def_cfa 8, 0
 989              		.loc 1 82 1 is_stmt 0
 990 05bc B7050100 		li	a1,65536
 991 05c0 9385F5FF 		addi	a1,a1,-1
 992 05c4 13051000 		li	a0,1
 993 05c8 97000000 		call	_Z41__static_initialization_and_destruction_0ii
 993      E7800000 
 994              	.LVL94:
 995 05d0 83308100 		ld	ra,8(sp)
 996              		.cfi_restore 1
 997 05d4 03340100 		ld	s0,0(sp)
 998              		.cfi_restore 8
 999 05d8 13010101 		addi	sp,sp,16
 1000              		.cfi_def_cfa_register 2
 1001 05dc 67800000 		jr	ra
 1002              		.cfi_endproc
 1003              	.LFE59:
 1005              		.section	.init_array,"aw"
 1006              		.align	3
 1007 0000 00000000 		.dword	_GLOBAL__sub_I__ZN5mySem13sleepingOnSemE
 1007      00000000 
 1008              		.globl	_ZN5mySem12allTimedSemsE
 1009              		.globl	_ZN5mySem13sleepingOnSemE
 1010              		.bss
 1011              		.align	3
 1012              		.set	.LANCHOR0,. + 0
 1015              	_ZN5mySem13sleepingOnSemE:
 1016 0000 00000000 		.zero	24
 1016      00000000 
 1016      00000000 
 1016      00000000 
 1016      00000000 
 1019              	_ZN5mySem12allTimedSemsE:
 1020 0018 00000000 		.zero	24
 1020      00000000 
 1020      00000000 
 1020      00000000 
 1020      00000000 
 1021              		.text
 1022              	.Letext0:
 1023              		.file 3 "src/../h/../lib/hw.h"
 1024              		.file 4 "src/../h/../h/MemoryAllocator.hpp"
 1025              		.file 5 "src/../h/scheduler.hpp"
 1026              		.file 6 "src/../h/tcb.hpp"
 1027              		.file 7 "src/../h/mySem.hpp"
GAS LISTING /tmp/cci5x6w9.s 			page 27


DEFINED SYMBOLS
                            *ABS*:0000000000000000 mySem.cpp
     /tmp/cci5x6w9.s:8      .text:0000000000000000 _Z41__static_initialization_and_destruction_0ii
     /tmp/cci5x6w9.s:12     .text:0000000000000000 .L0 
     /tmp/cci5x6w9.s:14     .text:0000000000000000 .L0 
     /tmp/cci5x6w9.s:15     .text:0000000000000004 .L0 
     /tmp/cci5x6w9.s:17     .text:0000000000000008 .L0 
     /tmp/cci5x6w9.s:19     .text:000000000000000c .L0 
     /tmp/cci5x6w9.s:21     .text:000000000000000c .L0 
     /tmp/cci5x6w9.s:25     .text:0000000000000018 .L0 
     /tmp/cci5x6w9.s:26     .text:0000000000000018 .L0 
     /tmp/cci5x6w9.s:28     .text:000000000000001c .L0 
     /tmp/cci5x6w9.s:31     .text:0000000000000020 .L0 
     /tmp/cci5x6w9.s:33     .text:0000000000000020 .L0 
     /tmp/cci5x6w9.s:42     .text:000000000000002c .L0 
     /tmp/cci5x6w9.s:60     .text:000000000000004c .L0 
     /tmp/cci5x6w9.s:61     .text:0000000000000050 .L0 
     /tmp/cci5x6w9.s:67     .text:0000000000000050 _ZN5mySem5closeEv
     /tmp/cci5x6w9.s:70     .text:0000000000000050 .L0 
     /tmp/cci5x6w9.s:72     .text:0000000000000050 .L0 
     /tmp/cci5x6w9.s:73     .text:0000000000000054 .L0 
     /tmp/cci5x6w9.s:78     .text:0000000000000064 .L0 
     /tmp/cci5x6w9.s:79     .text:0000000000000064 .L0 
     /tmp/cci5x6w9.s:80     .text:0000000000000064 .L0 
     /tmp/cci5x6w9.s:81     .text:0000000000000064 .L0 
     /tmp/cci5x6w9.s:83     .text:0000000000000068 .L0 
     /tmp/cci5x6w9.s:91     .text:0000000000000070 .L0 
     /tmp/cci5x6w9.s:94     .text:0000000000000074 .L0 
     /tmp/cci5x6w9.s:97     .text:0000000000000078 .L0 
     /tmp/cci5x6w9.s:102    .text:0000000000000080 .L0 
     /tmp/cci5x6w9.s:104    .text:0000000000000084 .L0 
     /tmp/cci5x6w9.s:105    .text:0000000000000084 .L0 
     /tmp/cci5x6w9.s:110    .text:0000000000000090 .L0 
     /tmp/cci5x6w9.s:113    .text:0000000000000090 .L0 
     /tmp/cci5x6w9.s:114    .text:0000000000000090 .L0 
     /tmp/cci5x6w9.s:116    .text:0000000000000094 .L0 
     /tmp/cci5x6w9.s:119    .text:0000000000000098 .L0 
     /tmp/cci5x6w9.s:121    .text:000000000000009c .L0 
     /tmp/cci5x6w9.s:123    .text:00000000000000a0 .L0 
     /tmp/cci5x6w9.s:130    .text:00000000000000a8 .L0 
     /tmp/cci5x6w9.s:131    .text:00000000000000a8 .L0 
     /tmp/cci5x6w9.s:134    .text:00000000000000b0 .L0 
     /tmp/cci5x6w9.s:135    .text:00000000000000b4 .L0 
     /tmp/cci5x6w9.s:137    .text:00000000000000b8 .L0 
     /tmp/cci5x6w9.s:139    .text:00000000000000bc .L0 
     /tmp/cci5x6w9.s:141    .text:00000000000000c0 .L0 
     /tmp/cci5x6w9.s:144    .text:00000000000000c4 .L0 
     /tmp/cci5x6w9.s:146    .text:00000000000000c8 .L0 
     /tmp/cci5x6w9.s:152    .text:00000000000000c8 _ZN5mySem5blockEv
     /tmp/cci5x6w9.s:155    .text:00000000000000c8 .L0 
     /tmp/cci5x6w9.s:157    .text:00000000000000c8 .L0 
     /tmp/cci5x6w9.s:158    .text:00000000000000cc .L0 
     /tmp/cci5x6w9.s:163    .text:00000000000000dc .L0 
     /tmp/cci5x6w9.s:164    .text:00000000000000dc .L0 
     /tmp/cci5x6w9.s:165    .text:00000000000000dc .L0 
     /tmp/cci5x6w9.s:166    .text:00000000000000dc .L0 
     /tmp/cci5x6w9.s:168    .text:00000000000000e0 .L0 
GAS LISTING /tmp/cci5x6w9.s 			page 28


     /tmp/cci5x6w9.s:171    .text:00000000000000e4 .L0 
     /tmp/cci5x6w9.s:172    .text:00000000000000e4 .L0 
     /tmp/cci5x6w9.s:178    .text:00000000000000f0 .L0 
     /tmp/cci5x6w9.s:179    .text:00000000000000f0 .L0 
     /tmp/cci5x6w9.s:184    .text:00000000000000fc .L0 
     /tmp/cci5x6w9.s:186    .text:0000000000000100 .L0 
     /tmp/cci5x6w9.s:188    .text:0000000000000104 .L0 
     /tmp/cci5x6w9.s:190    .text:0000000000000108 .L0 
     /tmp/cci5x6w9.s:192    .text:000000000000010c .L0 
     /tmp/cci5x6w9.s:194    .text:0000000000000110 .L0 
     /tmp/cci5x6w9.s:200    .text:0000000000000114 .L0 
     /tmp/cci5x6w9.s:201    .text:0000000000000114 .L0 
     /tmp/cci5x6w9.s:204    .text:000000000000011c .L0 
     /tmp/cci5x6w9.s:206    .text:0000000000000124 .L0 
     /tmp/cci5x6w9.s:207    .text:0000000000000124 .L0 
     /tmp/cci5x6w9.s:212    .text:0000000000000134 .L0 
     /tmp/cci5x6w9.s:213    .text:0000000000000138 .L0 
     /tmp/cci5x6w9.s:214    .text:0000000000000138 .L0 
     /tmp/cci5x6w9.s:216    .text:000000000000013c .L0 
     /tmp/cci5x6w9.s:218    .text:0000000000000140 .L0 
     /tmp/cci5x6w9.s:221    .text:0000000000000144 .L0 
     /tmp/cci5x6w9.s:224    .text:0000000000000148 .L0 
     /tmp/cci5x6w9.s:228    .text:000000000000014c .L0 
     /tmp/cci5x6w9.s:232    .text:000000000000014c .L0 
     /tmp/cci5x6w9.s:237    .text:0000000000000158 .L0 
     /tmp/cci5x6w9.s:243    .text:0000000000000158 _ZN5mySem4waitEv
     /tmp/cci5x6w9.s:246    .text:0000000000000158 .L0 
     /tmp/cci5x6w9.s:248    .text:0000000000000158 .L0 
     /tmp/cci5x6w9.s:249    .text:0000000000000158 .L0 
     /tmp/cci5x6w9.s:250    .text:0000000000000158 .L0 
     /tmp/cci5x6w9.s:252    .text:000000000000015c .L0 
     /tmp/cci5x6w9.s:254    .text:0000000000000160 .L0 
     /tmp/cci5x6w9.s:256    .text:0000000000000164 .L0 
     /tmp/cci5x6w9.s:261    .text:0000000000000170 .L0 
     /tmp/cci5x6w9.s:262    .text:0000000000000174 .L0 
     /tmp/cci5x6w9.s:265    .text:000000000000017c .L0 
     /tmp/cci5x6w9.s:266    .text:000000000000017c .L0 
     /tmp/cci5x6w9.s:268    .text:0000000000000180 .L0 
     /tmp/cci5x6w9.s:270    .text:0000000000000180 .L0 
     /tmp/cci5x6w9.s:271    .text:0000000000000180 .L0 
     /tmp/cci5x6w9.s:274    .text:0000000000000188 .L0 
     /tmp/cci5x6w9.s:275    .text:000000000000018c .L0 
     /tmp/cci5x6w9.s:277    .text:0000000000000190 .L0 
     /tmp/cci5x6w9.s:279    .text:0000000000000194 .L0 
     /tmp/cci5x6w9.s:281    .text:0000000000000198 .L0 
     /tmp/cci5x6w9.s:287    .text:0000000000000198 _ZN5mySem7deblockEv
     /tmp/cci5x6w9.s:290    .text:0000000000000198 .L0 
     /tmp/cci5x6w9.s:292    .text:0000000000000198 .L0 
     /tmp/cci5x6w9.s:293    .text:000000000000019c .L0 
     /tmp/cci5x6w9.s:297    .text:00000000000001a8 .L0 
     /tmp/cci5x6w9.s:298    .text:00000000000001a8 .L0 
     /tmp/cci5x6w9.s:299    .text:00000000000001a8 .L0 
     /tmp/cci5x6w9.s:301    .text:00000000000001ac .L0 
     /tmp/cci5x6w9.s:306    .text:00000000000001ac .L0 
     /tmp/cci5x6w9.s:307    .text:00000000000001ac .L0 
     /tmp/cci5x6w9.s:309    .text:00000000000001b0 .L0 
     /tmp/cci5x6w9.s:312    .text:00000000000001b4 .L0 
GAS LISTING /tmp/cci5x6w9.s 			page 29


     /tmp/cci5x6w9.s:314    .text:00000000000001b8 .L0 
     /tmp/cci5x6w9.s:316    .text:00000000000001bc .L0 
     /tmp/cci5x6w9.s:319    .text:00000000000001c0 .L0 
     /tmp/cci5x6w9.s:322    .text:00000000000001c4 .L0 
     /tmp/cci5x6w9.s:330    .text:00000000000001d0 .L0 
     /tmp/cci5x6w9.s:331    .text:00000000000001d0 .L0 
     /tmp/cci5x6w9.s:335    .text:00000000000001dc .L0 
     /tmp/cci5x6w9.s:336    .text:00000000000001e0 .L0 
     /tmp/cci5x6w9.s:337    .text:00000000000001e0 .L0 
     /tmp/cci5x6w9.s:339    .text:00000000000001e4 .L0 
     /tmp/cci5x6w9.s:341    .text:00000000000001e8 .L0 
     /tmp/cci5x6w9.s:344    .text:00000000000001ec .L0 
     /tmp/cci5x6w9.s:348    .text:00000000000001f0 .L0 
     /tmp/cci5x6w9.s:352    .text:00000000000001f0 .L0 
     /tmp/cci5x6w9.s:357    .text:00000000000001f8 .L0 
     /tmp/cci5x6w9.s:361    .text:0000000000000200 .L0 
     /tmp/cci5x6w9.s:367    .text:0000000000000200 _ZN5mySem6signalEv
     /tmp/cci5x6w9.s:370    .text:0000000000000200 .L0 
     /tmp/cci5x6w9.s:372    .text:0000000000000200 .L0 
     /tmp/cci5x6w9.s:373    .text:0000000000000200 .L0 
     /tmp/cci5x6w9.s:374    .text:0000000000000200 .L0 
     /tmp/cci5x6w9.s:376    .text:0000000000000204 .L0 
     /tmp/cci5x6w9.s:379    .text:000000000000020c .L0 
     /tmp/cci5x6w9.s:383    .text:0000000000000214 .L0 
     /tmp/cci5x6w9.s:384    .text:0000000000000218 .L0 
     /tmp/cci5x6w9.s:387    .text:0000000000000220 .L0 
     /tmp/cci5x6w9.s:388    .text:0000000000000220 .L0 
     /tmp/cci5x6w9.s:390    .text:0000000000000224 .L0 
     /tmp/cci5x6w9.s:392    .text:0000000000000224 .L0 
     /tmp/cci5x6w9.s:393    .text:0000000000000224 .L0 
     /tmp/cci5x6w9.s:396    .text:000000000000022c .L0 
     /tmp/cci5x6w9.s:397    .text:0000000000000230 .L0 
     /tmp/cci5x6w9.s:399    .text:0000000000000234 .L0 
     /tmp/cci5x6w9.s:401    .text:0000000000000238 .L0 
     /tmp/cci5x6w9.s:403    .text:000000000000023c .L0 
     /tmp/cci5x6w9.s:409    .text:000000000000023c _ZN5mySem7trywaitEv
     /tmp/cci5x6w9.s:412    .text:000000000000023c .L0 
     /tmp/cci5x6w9.s:414    .text:000000000000023c .L0 
     /tmp/cci5x6w9.s:415    .text:0000000000000240 .L0 
     /tmp/cci5x6w9.s:417    .text:0000000000000244 .L0 
     /tmp/cci5x6w9.s:419    .text:0000000000000248 .L0 
     /tmp/cci5x6w9.s:421    .text:0000000000000248 .L0 
     /tmp/cci5x6w9.s:422    .text:0000000000000248 .L0 
     /tmp/cci5x6w9.s:424    .text:000000000000024c .L0 
     /tmp/cci5x6w9.s:426    .text:0000000000000250 .L0 
     /tmp/cci5x6w9.s:430    .text:0000000000000254 .L0 
     /tmp/cci5x6w9.s:431    .text:0000000000000258 .L0 
     /tmp/cci5x6w9.s:432    .text:0000000000000258 .L0 
     /tmp/cci5x6w9.s:434    .text:000000000000025c .L0 
     /tmp/cci5x6w9.s:438    .text:0000000000000260 .L0 
     /tmp/cci5x6w9.s:440    .text:0000000000000260 .L0 
     /tmp/cci5x6w9.s:441    .text:0000000000000260 .L0 
     /tmp/cci5x6w9.s:444    .text:0000000000000268 .L0 
     /tmp/cci5x6w9.s:445    .text:0000000000000268 .L0 
     /tmp/cci5x6w9.s:448    .text:0000000000000270 .L0 
     /tmp/cci5x6w9.s:454    .text:0000000000000270 _ZN5mySem16addToWaitingListEm
     /tmp/cci5x6w9.s:457    .text:0000000000000270 .L0 
GAS LISTING /tmp/cci5x6w9.s 			page 30


     /tmp/cci5x6w9.s:459    .text:0000000000000270 .L0 
     /tmp/cci5x6w9.s:460    .text:0000000000000274 .L0 
     /tmp/cci5x6w9.s:465    .text:0000000000000284 .L0 
     /tmp/cci5x6w9.s:466    .text:0000000000000284 .L0 
     /tmp/cci5x6w9.s:467    .text:0000000000000284 .L0 
     /tmp/cci5x6w9.s:468    .text:0000000000000284 .L0 
     /tmp/cci5x6w9.s:470    .text:0000000000000288 .L0 
     /tmp/cci5x6w9.s:473    .text:000000000000028c .L0 
     /tmp/cci5x6w9.s:474    .text:000000000000028c .L0 
     /tmp/cci5x6w9.s:476    .text:0000000000000290 .L0 
     /tmp/cci5x6w9.s:480    .text:0000000000000294 .L0 
     /tmp/cci5x6w9.s:481    .text:0000000000000294 .L0 
     /tmp/cci5x6w9.s:484    .text:00000000000002a0 .L0 
     /tmp/cci5x6w9.s:489    .text:00000000000002a4 .L0 
     /tmp/cci5x6w9.s:490    .text:00000000000002a4 .L0 
     /tmp/cci5x6w9.s:494    .text:00000000000002b0 .L0 
     /tmp/cci5x6w9.s:496    .text:00000000000002b4 .L0 
     /tmp/cci5x6w9.s:498    .text:00000000000002b8 .L0 
     /tmp/cci5x6w9.s:501    .text:00000000000002c4 .L0 
     /tmp/cci5x6w9.s:503    .text:00000000000002c8 .L0 
     /tmp/cci5x6w9.s:505    .text:00000000000002cc .L0 
     /tmp/cci5x6w9.s:511    .text:00000000000002d4 .L0 
     /tmp/cci5x6w9.s:512    .text:00000000000002d4 .L0 
     /tmp/cci5x6w9.s:516    .text:00000000000002e0 .L0 
     /tmp/cci5x6w9.s:517    .text:00000000000002e0 .L0 
     /tmp/cci5x6w9.s:520    .text:00000000000002e8 .L0 
     /tmp/cci5x6w9.s:522    .text:00000000000002ec .L0 
     /tmp/cci5x6w9.s:523    .text:00000000000002ec .L0 
     /tmp/cci5x6w9.s:528    .text:00000000000002fc .L0 
     /tmp/cci5x6w9.s:529    .text:0000000000000300 .L0 
     /tmp/cci5x6w9.s:530    .text:0000000000000300 .L0 
     /tmp/cci5x6w9.s:532    .text:0000000000000304 .L0 
     /tmp/cci5x6w9.s:534    .text:0000000000000308 .L0 
     /tmp/cci5x6w9.s:536    .text:000000000000030c .L0 
     /tmp/cci5x6w9.s:539    .text:0000000000000310 .L0 
     /tmp/cci5x6w9.s:543    .text:0000000000000314 .L0 
     /tmp/cci5x6w9.s:549    .text:0000000000000318 .L0 
     /tmp/cci5x6w9.s:550    .text:0000000000000318 .L0 
     /tmp/cci5x6w9.s:555    .text:0000000000000324 .L0 
     /tmp/cci5x6w9.s:557    .text:0000000000000328 .L0 
     /tmp/cci5x6w9.s:559    .text:000000000000032c .L0 
     /tmp/cci5x6w9.s:562    .text:0000000000000338 .L0 
     /tmp/cci5x6w9.s:564    .text:000000000000033c .L0 
     /tmp/cci5x6w9.s:566    .text:0000000000000340 .L0 
     /tmp/cci5x6w9.s:572    .text:0000000000000348 .L0 
     /tmp/cci5x6w9.s:573    .text:0000000000000348 .L0 
     /tmp/cci5x6w9.s:581    .text:0000000000000354 .L0 
     /tmp/cci5x6w9.s:597    .text:000000000000037c .L0 
     /tmp/cci5x6w9.s:603    .text:000000000000037c _ZN5mySem16checkWaitingListEv
     /tmp/cci5x6w9.s:606    .text:000000000000037c .L0 
     /tmp/cci5x6w9.s:608    .text:000000000000037c .L0 
     /tmp/cci5x6w9.s:611    .text:000000000000037c .L0 
     /tmp/cci5x6w9.s:612    .text:000000000000037c .L0 
     /tmp/cci5x6w9.s:615    .text:0000000000000388 .L0 
     /tmp/cci5x6w9.s:619    .text:000000000000038c .L0 
     /tmp/cci5x6w9.s:620    .text:0000000000000390 .L0 
     /tmp/cci5x6w9.s:624    .text:000000000000039c .L0 
GAS LISTING /tmp/cci5x6w9.s 			page 31


     /tmp/cci5x6w9.s:625    .text:000000000000039c .L0 
     /tmp/cci5x6w9.s:626    .text:000000000000039c .L0 
     /tmp/cci5x6w9.s:628    .text:00000000000003a0 .L0 
     /tmp/cci5x6w9.s:632    .text:00000000000003a0 .L0 
     /tmp/cci5x6w9.s:645    .text:00000000000003ac .L0 
     /tmp/cci5x6w9.s:648    .text:00000000000003b8 .L0 
     /tmp/cci5x6w9.s:651    .text:00000000000003bc .L0 
     /tmp/cci5x6w9.s:653    .text:00000000000003c0 .L0 
     /tmp/cci5x6w9.s:655    .text:00000000000003c8 .L0 
     /tmp/cci5x6w9.s:659    .text:00000000000003cc .L0 
     /tmp/cci5x6w9.s:665    .text:00000000000003d8 .L0 
     /tmp/cci5x6w9.s:675    .text:00000000000003e4 .L0 
     /tmp/cci5x6w9.s:678    .text:00000000000003f0 .L0 
     /tmp/cci5x6w9.s:680    .text:00000000000003f4 .L0 
     /tmp/cci5x6w9.s:685    .text:00000000000003f8 .L0 
     /tmp/cci5x6w9.s:687    .text:00000000000003fc .L0 
     /tmp/cci5x6w9.s:690    .text:0000000000000408 .L0 
     /tmp/cci5x6w9.s:693    .text:000000000000040c .L0 
     /tmp/cci5x6w9.s:695    .text:0000000000000410 .L0 
     /tmp/cci5x6w9.s:701    .text:0000000000000418 .L0 
     /tmp/cci5x6w9.s:706    .text:0000000000000424 .L0 
     /tmp/cci5x6w9.s:708    .text:0000000000000428 .L0 
     /tmp/cci5x6w9.s:711    .text:000000000000042c .L0 
     /tmp/cci5x6w9.s:714    .text:0000000000000434 .L0 
     /tmp/cci5x6w9.s:720    .text:0000000000000440 .L0 
     /tmp/cci5x6w9.s:728    .text:000000000000044c .L0 
     /tmp/cci5x6w9.s:731    .text:0000000000000450 .L0 
     /tmp/cci5x6w9.s:739    .text:0000000000000454 .L0 
     /tmp/cci5x6w9.s:740    .text:0000000000000454 .L0 
     /tmp/cci5x6w9.s:747    .text:0000000000000460 .L0 
     /tmp/cci5x6w9.s:748    .text:0000000000000460 .L0 
     /tmp/cci5x6w9.s:751    .text:000000000000046c .L0 
     /tmp/cci5x6w9.s:753    .text:0000000000000470 .L0 
     /tmp/cci5x6w9.s:755    .text:0000000000000474 .L0 
     /tmp/cci5x6w9.s:757    .text:000000000000047c .L0 
     /tmp/cci5x6w9.s:765    .text:0000000000000480 .L0 
     /tmp/cci5x6w9.s:768    .text:0000000000000480 .L0 
     /tmp/cci5x6w9.s:769    .text:0000000000000480 .L0 
     /tmp/cci5x6w9.s:772    .text:000000000000048c .L0 
     /tmp/cci5x6w9.s:777    .text:0000000000000490 .L0 
     /tmp/cci5x6w9.s:778    .text:0000000000000490 .L0 
     /tmp/cci5x6w9.s:780    .text:0000000000000494 .L0 
     /tmp/cci5x6w9.s:784    .text:00000000000004a0 .L0 
     /tmp/cci5x6w9.s:789    .text:00000000000004a4 .L0 
     /tmp/cci5x6w9.s:790    .text:00000000000004a4 .L0 
     /tmp/cci5x6w9.s:793    .text:00000000000004b0 .L0 
     /tmp/cci5x6w9.s:795    .text:00000000000004b4 .L0 
     /tmp/cci5x6w9.s:798    .text:00000000000004b8 .L0 
     /tmp/cci5x6w9.s:801    .text:00000000000004c4 .L0 
     /tmp/cci5x6w9.s:804    .text:00000000000004c8 .L0 
     /tmp/cci5x6w9.s:808    .text:00000000000004cc .L0 
     /tmp/cci5x6w9.s:811    .text:00000000000004d0 .L0 
     /tmp/cci5x6w9.s:813    .text:00000000000004d4 .L0 
     /tmp/cci5x6w9.s:824    .text:00000000000004dc .L0 
     /tmp/cci5x6w9.s:825    .text:00000000000004e0 .L0 
     /tmp/cci5x6w9.s:827    .text:00000000000004e4 .L0 
     /tmp/cci5x6w9.s:829    .text:00000000000004e8 .L0 
GAS LISTING /tmp/cci5x6w9.s 			page 32


     /tmp/cci5x6w9.s:832    .text:00000000000004ec .L0 
     /tmp/cci5x6w9.s:837    .text:00000000000004f4 .L0 
     /tmp/cci5x6w9.s:843    .text:00000000000004f4 _ZN5mySem17checkAllTimedSemsEv
     /tmp/cci5x6w9.s:846    .text:00000000000004f4 .L0 
     /tmp/cci5x6w9.s:847    .text:00000000000004f4 .L0 
     /tmp/cci5x6w9.s:851    .text:00000000000004f4 .L0 
     /tmp/cci5x6w9.s:852    .text:00000000000004f4 .L0 
     /tmp/cci5x6w9.s:855    .text:0000000000000500 .L0 
     /tmp/cci5x6w9.s:857    .text:0000000000000504 .L0 
     /tmp/cci5x6w9.s:862    .text:0000000000000510 .L0 
     /tmp/cci5x6w9.s:863    .text:0000000000000510 .L0 
     /tmp/cci5x6w9.s:864    .text:0000000000000510 .L0 
     /tmp/cci5x6w9.s:868    .text:0000000000000510 .L0 
     /tmp/cci5x6w9.s:869    .text:0000000000000514 .L0 
     /tmp/cci5x6w9.s:871    .text:0000000000000518 .L0 
     /tmp/cci5x6w9.s:873    .text:000000000000051c .L0 
     /tmp/cci5x6w9.s:881    .text:0000000000000520 .L0 
     /tmp/cci5x6w9.s:882    .text:0000000000000520 .L0 
     /tmp/cci5x6w9.s:885    .text:000000000000052c .L0 
     /tmp/cci5x6w9.s:887    .text:0000000000000530 .L0 
     /tmp/cci5x6w9.s:889    .text:0000000000000534 .L0 
     /tmp/cci5x6w9.s:891    .text:000000000000053c .L0 
     /tmp/cci5x6w9.s:899    .text:0000000000000540 .L0 
     /tmp/cci5x6w9.s:902    .text:0000000000000540 .L0 
     /tmp/cci5x6w9.s:903    .text:0000000000000540 .L0 
     /tmp/cci5x6w9.s:906    .text:000000000000054c .L0 
     /tmp/cci5x6w9.s:911    .text:0000000000000550 .L0 
     /tmp/cci5x6w9.s:914    .text:0000000000000554 .L0 
     /tmp/cci5x6w9.s:915    .text:0000000000000558 .L0 
     /tmp/cci5x6w9.s:918    .text:0000000000000560 .L0 
     /tmp/cci5x6w9.s:919    .text:0000000000000560 .L0 
     /tmp/cci5x6w9.s:921    .text:0000000000000564 .L0 
     /tmp/cci5x6w9.s:925    .text:0000000000000564 .L0 
     /tmp/cci5x6w9.s:926    .text:0000000000000564 .L0 
     /tmp/cci5x6w9.s:932    .text:000000000000056c .L0 
     /tmp/cci5x6w9.s:933    .text:000000000000056c .L0 
     /tmp/cci5x6w9.s:936    .text:0000000000000578 .L0 
     /tmp/cci5x6w9.s:938    .text:000000000000057c .L0 
     /tmp/cci5x6w9.s:940    .text:0000000000000580 .L0 
     /tmp/cci5x6w9.s:942    .text:0000000000000588 .L0 
     /tmp/cci5x6w9.s:948    .text:000000000000058c .L0 
     /tmp/cci5x6w9.s:952    .text:000000000000058c .L0 
     /tmp/cci5x6w9.s:953    .text:000000000000058c .L0 
     /tmp/cci5x6w9.s:956    .text:0000000000000598 .L0 
     /tmp/cci5x6w9.s:961    .text:000000000000059c .L0 
     /tmp/cci5x6w9.s:964    .text:00000000000005a4 .L0 
     /tmp/cci5x6w9.s:965    .text:00000000000005a4 .L0 
     /tmp/cci5x6w9.s:966    .text:00000000000005a4 .L0 
     /tmp/cci5x6w9.s:972    .text:00000000000005ac .L0 
     /tmp/cci5x6w9.s:977    .text:00000000000005ac _GLOBAL__sub_I__ZN5mySem13sleepingOnSemE
     /tmp/cci5x6w9.s:980    .text:00000000000005ac .L0 
     /tmp/cci5x6w9.s:981    .text:00000000000005ac .L0 
     /tmp/cci5x6w9.s:982    .text:00000000000005b0 .L0 
     /tmp/cci5x6w9.s:985    .text:00000000000005b8 .L0 
     /tmp/cci5x6w9.s:986    .text:00000000000005b8 .L0 
     /tmp/cci5x6w9.s:988    .text:00000000000005bc .L0 
     /tmp/cci5x6w9.s:990    .text:00000000000005bc .L0 
GAS LISTING /tmp/cci5x6w9.s 			page 33


     /tmp/cci5x6w9.s:996    .text:00000000000005d4 .L0 
     /tmp/cci5x6w9.s:998    .text:00000000000005d8 .L0 
     /tmp/cci5x6w9.s:1000   .text:00000000000005dc .L0 
     /tmp/cci5x6w9.s:1002   .text:00000000000005e0 .L0 
     /tmp/cci5x6w9.s:1019   .bss:0000000000000018 _ZN5mySem12allTimedSemsE
     /tmp/cci5x6w9.s:1015   .bss:0000000000000000 _ZN5mySem13sleepingOnSemE
     /tmp/cci5x6w9.s:1012   .bss:0000000000000000 .LANCHOR0
     /tmp/cci5x6w9.s:1028   .text:00000000000005e0 .L0 
     /tmp/cci5x6w9.s:42     .text:000000000000002c .L0 
     /tmp/cci5x6w9.s:172    .text:00000000000000e4 .L0 
     /tmp/cci5x6w9.s:204    .text:000000000000011c .L0 
     /tmp/cci5x6w9.s:481    .text:0000000000000294 .L0 
     /tmp/cci5x6w9.s:498    .text:00000000000002b8 .L0 
     /tmp/cci5x6w9.s:505    .text:00000000000002cc .L0 
     /tmp/cci5x6w9.s:512    .text:00000000000002d4 .L0 
     /tmp/cci5x6w9.s:559    .text:000000000000032c .L0 
     /tmp/cci5x6w9.s:566    .text:0000000000000340 .L0 
     /tmp/cci5x6w9.s:581    .text:0000000000000354 .L0 
     /tmp/cci5x6w9.s:591    .text:0000000000000368 .L0 
     /tmp/cci5x6w9.s:612    .text:000000000000037c .L0 
     /tmp/cci5x6w9.s:632    .text:00000000000003a0 .L0 
     /tmp/cci5x6w9.s:645    .text:00000000000003ac .L0 
     /tmp/cci5x6w9.s:653    .text:00000000000003c0 .L0 
     /tmp/cci5x6w9.s:665    .text:00000000000003d8 .L0 
     /tmp/cci5x6w9.s:675    .text:00000000000003e4 .L0 
     /tmp/cci5x6w9.s:687    .text:00000000000003fc .L0 
     /tmp/cci5x6w9.s:701    .text:0000000000000418 .L0 
     /tmp/cci5x6w9.s:711    .text:000000000000042c .L0 
     /tmp/cci5x6w9.s:720    .text:0000000000000440 .L0 
     /tmp/cci5x6w9.s:748    .text:0000000000000460 .L0 
     /tmp/cci5x6w9.s:755    .text:0000000000000474 .L0 
     /tmp/cci5x6w9.s:769    .text:0000000000000480 .L0 
     /tmp/cci5x6w9.s:790    .text:00000000000004a4 .L0 
     /tmp/cci5x6w9.s:798    .text:00000000000004b8 .L0 
     /tmp/cci5x6w9.s:852    .text:00000000000004f4 .L0 
     /tmp/cci5x6w9.s:857    .text:0000000000000504 .L0 
     /tmp/cci5x6w9.s:882    .text:0000000000000520 .L0 
     /tmp/cci5x6w9.s:889    .text:0000000000000534 .L0 
     /tmp/cci5x6w9.s:903    .text:0000000000000540 .L0 
     /tmp/cci5x6w9.s:933    .text:000000000000056c .L0 
     /tmp/cci5x6w9.s:940    .text:0000000000000580 .L0 
     /tmp/cci5x6w9.s:953    .text:000000000000058c .L0 
     /tmp/cci5x6w9.s:30     .text:0000000000000020 .L4
     /tmp/cci5x6w9.s:23     .text:0000000000000014 .L1
     /tmp/cci5x6w9.s:108    .text:0000000000000090 .L8
     /tmp/cci5x6w9.s:126    .text:00000000000000a8 .L6
     /tmp/cci5x6w9.s:92     .text:0000000000000074 .L7
     /tmp/cci5x6w9.s:87     .text:0000000000000070 .L10
     /tmp/cci5x6w9.s:227    .text:000000000000014c .L12
     /tmp/cci5x6w9.s:195    .text:0000000000000114 .L13
     /tmp/cci5x6w9.s:259    .text:0000000000000170 .L21
     /tmp/cci5x6w9.s:355    .text:00000000000001f8 .L25
     /tmp/cci5x6w9.s:347    .text:00000000000001f0 .L27
     /tmp/cci5x6w9.s:317    .text:00000000000001c0 .L24
     /tmp/cci5x6w9.s:326    .text:00000000000001d0 .L23
     /tmp/cci5x6w9.s:381    .text:0000000000000214 .L34
     /tmp/cci5x6w9.s:437    .text:0000000000000260 .L39
GAS LISTING /tmp/cci5x6w9.s 			page 34


     /tmp/cci5x6w9.s:428    .text:0000000000000254 .L36
     /tmp/cci5x6w9.s:542    .text:0000000000000314 .L47
     /tmp/cci5x6w9.s:586    .text:0000000000000368 .L44
     /tmp/cci5x6w9.s:577    .text:0000000000000354 .L42
     /tmp/cci5x6w9.s:478    .text:0000000000000294 .L41
     /tmp/cci5x6w9.s:567    .text:0000000000000348 .L43
     /tmp/cci5x6w9.s:506    .text:00000000000002d4 .L45
     /tmp/cci5x6w9.s:835    .text:00000000000004f0 .L65
     /tmp/cci5x6w9.s:759    .text:0000000000000480 .L62
     /tmp/cci5x6w9.s:733    .text:0000000000000454 .L54
     /tmp/cci5x6w9.s:663    .text:00000000000003d8 .L68
     /tmp/cci5x6w9.s:656    .text:00000000000003cc .L53
     /tmp/cci5x6w9.s:698    .text:0000000000000418 .L57
     /tmp/cci5x6w9.s:681    .text:00000000000003f8 .L58
     /tmp/cci5x6w9.s:718    .text:0000000000000440 .L59
     /tmp/cci5x6w9.s:709    .text:000000000000042c .L60
     /tmp/cci5x6w9.s:817    .text:00000000000004dc .L48
     /tmp/cci5x6w9.s:743    .text:0000000000000460 .L50
     /tmp/cci5x6w9.s:636    .text:00000000000003ac .L69
     /tmp/cci5x6w9.s:668    .text:00000000000003e4 .L70
     /tmp/cci5x6w9.s:723    .text:000000000000044c .L61
     /tmp/cci5x6w9.s:805    .text:00000000000004cc .L55
     /tmp/cci5x6w9.s:969    .text:00000000000005a8 .L76
     /tmp/cci5x6w9.s:893    .text:0000000000000540 .L77
     /tmp/cci5x6w9.s:963    .text:00000000000005a4 .L82
     /tmp/cci5x6w9.s:876    .text:0000000000000520 .L83
     /tmp/cci5x6w9.s:861    .text:0000000000000510 .L71
     /tmp/cci5x6w9.s:922    .text:0000000000000564 .L78
     /tmp/cci5x6w9.s:928    .text:000000000000056c .L73
     /tmp/cci5x6w9.s:3260   .debug_abbrev:0000000000000000 .Ldebug_abbrev0
     /tmp/cci5x6w9.s:5360   .debug_str:000000000000040c .LASF170
     /tmp/cci5x6w9.s:5520   .debug_str:00000000000009ff .LASF171
     /tmp/cci5x6w9.s:5488   .debug_str:00000000000008f2 .LASF172
     /tmp/cci5x6w9.s:5      .text:0000000000000000 .Ltext0
     /tmp/cci5x6w9.s:1022   .text:00000000000005e0 .Letext0
     /tmp/cci5x6w9.s:5236   .debug_line:0000000000000000 .Ldebug_line0
     /tmp/cci5x6w9.s:5346   .debug_str:000000000000038d .LASF0
     /tmp/cci5x6w9.s:5370   .debug_str:000000000000050a .LASF1
     /tmp/cci5x6w9.s:5456   .debug_str:00000000000007f4 .LASF2
     /tmp/cci5x6w9.s:5468   .debug_str:000000000000085e .LASF4
     /tmp/cci5x6w9.s:5356   .debug_str:00000000000003d1 .LASF3
     /tmp/cci5x6w9.s:5248   .debug_str:0000000000000070 .LASF5
     /tmp/cci5x6w9.s:5428   .debug_str:00000000000006e5 .LASF6
     /tmp/cci5x6w9.s:5424   .debug_str:00000000000006c0 .LASF7
     /tmp/cci5x6w9.s:5364   .debug_str:00000000000004ed .LASF8
     /tmp/cci5x6w9.s:5330   .debug_str:0000000000000307 .LASF9
     /tmp/cci5x6w9.s:5334   .debug_str:0000000000000323 .LASF10
     /tmp/cci5x6w9.s:5280   .debug_str:0000000000000173 .LASF11
     /tmp/cci5x6w9.s:5322   .debug_str:00000000000002c0 .LASF12
     /tmp/cci5x6w9.s:5294   .debug_str:00000000000001c8 .LASF13
     /tmp/cci5x6w9.s:5278   .debug_str:0000000000000163 .LASF14
     /tmp/cci5x6w9.s:5508   .debug_str:00000000000009b0 .LASF15
     /tmp/cci5x6w9.s:5310   .debug_str:0000000000000245 .LASF16
     /tmp/cci5x6w9.s:5494   .debug_str:0000000000000926 .LASF17
     /tmp/cci5x6w9.s:5522   .debug_str:0000000000000a0d .LASF32
     /tmp/cci5x6w9.s:5282   .debug_str:0000000000000182 .LASF18
     /tmp/cci5x6w9.s:5256   .debug_str:00000000000000b7 .LASF19
GAS LISTING /tmp/cci5x6w9.s 			page 35


     /tmp/cci5x6w9.s:5368   .debug_str:0000000000000505 .LASF20
     /tmp/cci5x6w9.s:5418   .debug_str:000000000000069c .LASF27
     /tmp/cci5x6w9.s:5400   .debug_str:0000000000000621 .LASF21
     /tmp/cci5x6w9.s:5250   .debug_str:0000000000000077 .LASF23
     /tmp/cci5x6w9.s:5516   .debug_str:00000000000009eb .LASF22
     /tmp/cci5x6w9.s:5402   .debug_str:000000000000062b .LASF24
     /tmp/cci5x6w9.s:5352   .debug_str:00000000000003ae .LASF25
     /tmp/cci5x6w9.s:5358   .debug_str:00000000000003e3 .LASF26
     /tmp/cci5x6w9.s:5486   .debug_str:00000000000008e7 .LASF81
     /tmp/cci5x6w9.s:5500   .debug_str:000000000000096d .LASF83
     /tmp/cci5x6w9.s:5254   .debug_str:000000000000009e .LASF67
     /tmp/cci5x6w9.s:5490   .debug_str:0000000000000909 .LASF29
     /tmp/cci5x6w9.s:5328   .debug_str:00000000000002fd .LASF28
     /tmp/cci5x6w9.s:5484   .debug_str:00000000000008d6 .LASF30
     /tmp/cci5x6w9.s:5572   .debug_str:0000000000000b79 .LASF173
     /tmp/cci5x6w9.s:5342   .debug_str:000000000000036f .LASF174
     /tmp/cci5x6w9.s:5550   .debug_str:0000000000000abc .LASF31
     /tmp/cci5x6w9.s:5544   .debug_str:0000000000000a96 .LASF33
     /tmp/cci5x6w9.s:5366   .debug_str:0000000000000500 .LASF34
     /tmp/cci5x6w9.s:5578   .debug_str:0000000000000bb0 .LASF97
     /tmp/cci5x6w9.s:5502   .debug_str:0000000000000990 .LASF35
     /tmp/cci5x6w9.s:5410   .debug_str:0000000000000673 .LASF36
     /tmp/cci5x6w9.s:5422   .debug_str:00000000000006b8 .LASF37
     /tmp/cci5x6w9.s:5406   .debug_str:0000000000000657 .LASF38
     /tmp/cci5x6w9.s:5496   .debug_str:000000000000093c .LASF39
     /tmp/cci5x6w9.s:5318   .debug_str:000000000000029d .LASF41
     /tmp/cci5x6w9.s:5460   .debug_str:000000000000080f .LASF142
     /tmp/cci5x6w9.s:5446   .debug_str:000000000000078b .LASF143
     /tmp/cci5x6w9.s:5404   .debug_str:000000000000064c .LASF40
     /tmp/cci5x6w9.s:5540   .debug_str:0000000000000a6f .LASF42
     /tmp/cci5x6w9.s:5320   .debug_str:00000000000002b4 .LASF43
     /tmp/cci5x6w9.s:5558   .debug_str:0000000000000af8 .LASF44
     /tmp/cci5x6w9.s:5582   .debug_str:0000000000000be6 .LASF45
     /tmp/cci5x6w9.s:5440   .debug_str:0000000000000759 .LASF46
     /tmp/cci5x6w9.s:5438   .debug_str:000000000000074e .LASF47
     /tmp/cci5x6w9.s:5450   .debug_str:00000000000007be .LASF48
     /tmp/cci5x6w9.s:5452   .debug_str:00000000000007db .LASF49
     /tmp/cci5x6w9.s:5274   .debug_str:000000000000013d .LASF50
     /tmp/cci5x6w9.s:5388   .debug_str:00000000000005c8 .LASF51
     /tmp/cci5x6w9.s:5312   .debug_str:000000000000025b .LASF52
     /tmp/cci5x6w9.s:5420   .debug_str:00000000000006ac .LASF53
     /tmp/cci5x6w9.s:5552   .debug_str:0000000000000ac6 .LASF54
     /tmp/cci5x6w9.s:5592   .debug_str:0000000000000c5b .LASF55
     /tmp/cci5x6w9.s:5576   .debug_str:0000000000000b95 .LASF56
     /tmp/cci5x6w9.s:5478   .debug_str:00000000000008b1 .LASF57
     /tmp/cci5x6w9.s:5362   .debug_str:00000000000004d0 .LASF58
     /tmp/cci5x6w9.s:5436   .debug_str:0000000000000745 .LASF59
     /tmp/cci5x6w9.s:5242   .debug_str:0000000000000022 .LASF60
     /tmp/cci5x6w9.s:5284   .debug_str:0000000000000187 .LASF61
     /tmp/cci5x6w9.s:5584   .debug_str:0000000000000bee .LASF62
     /tmp/cci5x6w9.s:5332   .debug_str:0000000000000317 .LASF63
     /tmp/cci5x6w9.s:5396   .debug_str:0000000000000600 .LASF64
     /tmp/cci5x6w9.s:5326   .debug_str:00000000000002f1 .LASF65
     /tmp/cci5x6w9.s:5240   .debug_str:0000000000000012 .LASF66
     /tmp/cci5x6w9.s:5392   .debug_str:00000000000005ed .LASF68
     /tmp/cci5x6w9.s:5492   .debug_str:0000000000000913 .LASF69
     /tmp/cci5x6w9.s:5458   .debug_str:0000000000000802 .LASF70
GAS LISTING /tmp/cci5x6w9.s 			page 36


     /tmp/cci5x6w9.s:5470   .debug_str:0000000000000865 .LASF71
     /tmp/cci5x6w9.s:5246   .debug_str:0000000000000064 .LASF72
     /tmp/cci5x6w9.s:5518   .debug_str:00000000000009f4 .LASF73
     /tmp/cci5x6w9.s:5408   .debug_str:000000000000065c .LASF74
     /tmp/cci5x6w9.s:5266   .debug_str:0000000000000113 .LASF75
     /tmp/cci5x6w9.s:5414   .debug_str:0000000000000680 .LASF76
     /tmp/cci5x6w9.s:5380   .debug_str:000000000000057e .LASF77
     /tmp/cci5x6w9.s:5546   .debug_str:0000000000000a9b .LASF78
     /tmp/cci5x6w9.s:5506   .debug_str:00000000000009a3 .LASF79
     /tmp/cci5x6w9.s:5324   .debug_str:00000000000002cf .LASF80
     /tmp/cci5x6w9.s:5416   .debug_str:0000000000000697 .LASF175
     /tmp/cci5x6w9.s:5374   .debug_str:000000000000053c .LASF82
     /tmp/cci5x6w9.s:5526   .debug_str:0000000000000a1d .LASF84
     /tmp/cci5x6w9.s:5524   .debug_str:0000000000000a15 .LASF176
     /tmp/cci5x6w9.s:5238   .debug_str:0000000000000000 .LASF85
     /tmp/cci5x6w9.s:5590   .debug_str:0000000000000c3b .LASF86
     /tmp/cci5x6w9.s:5292   .debug_str:00000000000001b6 .LASF87
     /tmp/cci5x6w9.s:5476   .debug_str:0000000000000894 .LASF88
     /tmp/cci5x6w9.s:5580   .debug_str:0000000000000bcf .LASF177
     /tmp/cci5x6w9.s:5304   .debug_str:0000000000000232 .LASF89
     /tmp/cci5x6w9.s:5394   .debug_str:00000000000005fa .LASF90
     /tmp/cci5x6w9.s:5538   .debug_str:0000000000000a67 .LASF91
     /tmp/cci5x6w9.s:5532   .debug_str:0000000000000a42 .LASF92
     /tmp/cci5x6w9.s:5514   .debug_str:00000000000009e2 .LASF93
     /tmp/cci5x6w9.s:5536   .debug_str:0000000000000a5d .LASF94
     /tmp/cci5x6w9.s:5528   .debug_str:0000000000000a2d .LASF95
     /tmp/cci5x6w9.s:5272   .debug_str:000000000000012f .LASF99
     /tmp/cci5x6w9.s:5382   .debug_str:000000000000058b .LASF101
     /tmp/cci5x6w9.s:5298   .debug_str:00000000000001f7 .LASF96
     /tmp/cci5x6w9.s:5244   .debug_str:000000000000003c .LASF98
     /tmp/cci5x6w9.s:5306   .debug_str:0000000000000237 .LASF100
     /tmp/cci5x6w9.s:5286   .debug_str:000000000000018f .LASF102
     /tmp/cci5x6w9.s:5474   .debug_str:0000000000000883 .LASF103
     /tmp/cci5x6w9.s:5464   .debug_str:0000000000000838 .LASF104
     /tmp/cci5x6w9.s:5566   .debug_str:0000000000000b49 .LASF105
     /tmp/cci5x6w9.s:5444   .debug_str:0000000000000786 .LASF106
     /tmp/cci5x6w9.s:5290   .debug_str:00000000000001b0 .LASF107
     /tmp/cci5x6w9.s:5340   .debug_str:0000000000000361 .LASF108
     /tmp/cci5x6w9.s:5348   .debug_str:000000000000039a .LASF109
     /tmp/cci5x6w9.s:5288   .debug_str:00000000000001a2 .LASF110
     /tmp/cci5x6w9.s:5252   .debug_str:0000000000000098 .LASF111
     /tmp/cci5x6w9.s:5386   .debug_str:00000000000005b6 .LASF112
     /tmp/cci5x6w9.s:5308   .debug_str:0000000000000240 .LASF113
     /tmp/cci5x6w9.s:5260   .debug_str:00000000000000e6 .LASF114
     /tmp/cci5x6w9.s:5344   .debug_str:0000000000000387 .LASF115
     /tmp/cci5x6w9.s:5426   .debug_str:00000000000006d3 .LASF116
     /tmp/cci5x6w9.s:5512   .debug_str:00000000000009db .LASF117
     /tmp/cci5x6w9.s:5302   .debug_str:000000000000021f .LASF118
     /tmp/cci5x6w9.s:5574   .debug_str:0000000000000b8d .LASF119
     /tmp/cci5x6w9.s:5564   .debug_str:0000000000000b35 .LASF120
     /tmp/cci5x6w9.s:5548   .debug_str:0000000000000ab4 .LASF121
     /tmp/cci5x6w9.s:5442   .debug_str:0000000000000772 .LASF122
     /tmp/cci5x6w9.s:5534   .debug_str:0000000000000a4c .LASF123
     /tmp/cci5x6w9.s:5498   .debug_str:000000000000094f .LASF124
     /tmp/cci5x6w9.s:5398   .debug_str:0000000000000610 .LASF125
     /tmp/cci5x6w9.s:5434   .debug_str:0000000000000727 .LASF126
     /tmp/cci5x6w9.s:5276   .debug_str:000000000000015a .LASF127
GAS LISTING /tmp/cci5x6w9.s 			page 37


     /tmp/cci5x6w9.s:5482   .debug_str:00000000000008c1 .LASF128
     /tmp/cci5x6w9.s:5454   .debug_str:00000000000007e4 .LASF129
     /tmp/cci5x6w9.s:5430   .debug_str:00000000000006ec .LASF130
     /tmp/cci5x6w9.s:5384   .debug_str:00000000000005a4 .LASF131
     /tmp/cci5x6w9.s:5462   .debug_str:0000000000000819 .LASF132
     /tmp/cci5x6w9.s:5554   .debug_str:0000000000000ae4 .LASF133
     /tmp/cci5x6w9.s:5412   .debug_str:0000000000000678 .LASF134
     /tmp/cci5x6w9.s:5504   .debug_str:0000000000000995 .LASF135
     /tmp/cci5x6w9.s:5556   .debug_str:0000000000000aeb .LASF136
     /tmp/cci5x6w9.s:5560   .debug_str:0000000000000b16 .LASF137
     /tmp/cci5x6w9.s:5568   .debug_str:0000000000000b54 .LASF138
     /tmp/cci5x6w9.s:5338   .debug_str:0000000000000340 .LASF139
     /tmp/cci5x6w9.s:5262   .debug_str:00000000000000f7 .LASF140
     /tmp/cci5x6w9.s:5570   .debug_str:0000000000000b60 .LASF141
     /tmp/cci5x6w9.s:5472   .debug_str:000000000000086a .LASF144
     /tmp/cci5x6w9.s:5372   .debug_str:000000000000051d .LASF145
     /tmp/cci5x6w9.s:5588   .debug_str:0000000000000c1b .LASF146
     /tmp/cci5x6w9.s:5466   .debug_str:0000000000000843 .LASF147
     /tmp/cci5x6w9.s:5316   .debug_str:000000000000027e .LASF148
     /tmp/cci5x6w9.s:5296   .debug_str:00000000000001d8 .LASF149
     /tmp/cci5x6w9.s:5432   .debug_str:0000000000000709 .LASF150
     /tmp/cci5x6w9.s:5586   .debug_str:0000000000000bfb .LASF151
     /tmp/cci5x6w9.s:5390   .debug_str:00000000000005d0 .LASF152
     /tmp/cci5x6w9.s:5510   .debug_str:00000000000009bc .LASF153
     /tmp/cci5x6w9.s:5448   .debug_str:00000000000007a2 .LASF154
     /tmp/cci5x6w9.s:5300   .debug_str:0000000000000205 .LASF155
     /tmp/cci5x6w9.s:5354   .debug_str:00000000000003b8 .LASF156
     /tmp/cci5x6w9.s:5378   .debug_str:0000000000000555 .LASF157
     /tmp/cci5x6w9.s:978    .text:00000000000005ac .LFB59
     /tmp/cci5x6w9.s:1003   .text:00000000000005e0 .LFE59
     /tmp/cci5x6w9.s:994    .text:00000000000005d0 .LVL94
     /tmp/cci5x6w9.s:5258   .debug_str:00000000000000bc .LASF158
     /tmp/cci5x6w9.s:9      .text:0000000000000000 .LFB58
     /tmp/cci5x6w9.s:62     .text:0000000000000050 .LFE58
     /tmp/cci5x6w9.s:5336   .debug_str:0000000000000331 .LASF159
     /tmp/cci5x6w9.s:5270   .debug_str:0000000000000124 .LASF160
     /tmp/cci5x6w9.s:37     .text:000000000000002c .LBB36
     /tmp/cci5x6w9.s:49     .text:0000000000000040 .LBE36
     /tmp/cci5x6w9.s:4441   .debug_loc:0000000000000000 .LLST0
     /tmp/cci5x6w9.s:50     .text:0000000000000040 .LBB39
     /tmp/cci5x6w9.s:58     .text:000000000000004c .LBE39
     /tmp/cci5x6w9.s:5268   .debug_str:000000000000011f .LASF163
     /tmp/cci5x6w9.s:5350   .debug_str:00000000000003a9 .LASF161
     /tmp/cci5x6w9.s:5480   .debug_str:00000000000008bc .LASF162
     /tmp/cci5x6w9.s:5530   .debug_str:0000000000000a3d .LASF164
     /tmp/cci5x6w9.s:5542   .debug_str:0000000000000a8c .LASF165
     /tmp/cci5x6w9.s:5562   .debug_str:0000000000000b20 .LASF166
     /tmp/cci5x6w9.s:5376   .debug_str:0000000000000542 .LASF167
     /tmp/cci5x6w9.s:844    .text:00000000000004f4 .LFB40
     /tmp/cci5x6w9.s:973    .text:00000000000005ac .LFE40
     /tmp/cci5x6w9.s:5158   .debug_ranges:0000000000000000 .Ldebug_ranges0
     /tmp/cci5x6w9.s:4450   .debug_loc:000000000000002c .LLST49
     /tmp/cci5x6w9.s:879    .text:0000000000000520 .LBB105
     /tmp/cci5x6w9.s:4465   .debug_loc:0000000000000075 .LLST50
     /tmp/cci5x6w9.s:900    .text:0000000000000540 .LBB108
     /tmp/cci5x6w9.s:4480   .debug_loc:00000000000000bd .LLST51
     /tmp/cci5x6w9.s:927    .text:000000000000056c .LVL90
GAS LISTING /tmp/cci5x6w9.s 			page 38


     /tmp/cci5x6w9.s:849    .text:00000000000004f4 .LBB102
     /tmp/cci5x6w9.s:866    .text:0000000000000510 .LBE102
     /tmp/cci5x6w9.s:4495   .debug_loc:0000000000000105 .LLST48
     /tmp/cci5x6w9.s:604    .text:000000000000037c .LFB39
     /tmp/cci5x6w9.s:838    .text:00000000000004f4 .LFE39
     /tmp/cci5x6w9.s:4504   .debug_loc:0000000000000131 .LLST32
     /tmp/cci5x6w9.s:5314   .debug_str:0000000000000277 .LASF168
     /tmp/cci5x6w9.s:4522   .debug_loc:000000000000017d .LLST34
     /tmp/cci5x6w9.s:640    .text:00000000000003ac .LBB84
     /tmp/cci5x6w9.s:4533   .debug_loc:00000000000001b3 .LLST35
     /tmp/cci5x6w9.s:642    .text:00000000000003ac .LBB86
     /tmp/cci5x6w9.s:670    .text:00000000000003e4 .LBE86
     /tmp/cci5x6w9.s:4548   .debug_loc:00000000000001fb .LLST36
     /tmp/cci5x6w9.s:643    .text:00000000000003ac .LBB87
     /tmp/cci5x6w9.s:669    .text:00000000000003e4 .LBE87
     /tmp/cci5x6w9.s:4557   .debug_loc:0000000000000227 .LLST37
     /tmp/cci5x6w9.s:4568   .debug_loc:000000000000025d .LLST38
     /tmp/cci5x6w9.s:660    .text:00000000000003d4 .LVL60
     /tmp/cci5x6w9.s:672    .text:00000000000003e4 .LBB89
     /tmp/cci5x6w9.s:725    .text:000000000000044c .LBE89
     /tmp/cci5x6w9.s:4576   .debug_loc:0000000000000281 .LLST39
     /tmp/cci5x6w9.s:673    .text:00000000000003e4 .LBB90
     /tmp/cci5x6w9.s:724    .text:000000000000044c .LBE90
     /tmp/cci5x6w9.s:4585   .debug_loc:00000000000002ad .LLST40
     /tmp/cci5x6w9.s:4604   .debug_loc:0000000000000309 .LLST41
     /tmp/cci5x6w9.s:4615   .debug_loc:000000000000033f .LLST42
     /tmp/cci5x6w9.s:683    .text:00000000000003f8 .LBB91
     /tmp/cci5x6w9.s:699    .text:0000000000000418 .LBE91
     /tmp/cci5x6w9.s:4623   .debug_loc:0000000000000363 .LLST43
     /tmp/cci5x6w9.s:715    .text:000000000000043c .LVL69
     /tmp/cci5x6w9.s:4639   .debug_loc:00000000000003ad .LLST44
     /tmp/cci5x6w9.s:4658   .debug_loc:0000000000000409 .LLST45
     /tmp/cci5x6w9.s:745    .text:0000000000000460 .LBB96
     /tmp/cci5x6w9.s:761    .text:0000000000000480 .LBE96
     /tmp/cci5x6w9.s:4678   .debug_loc:0000000000000466 .LLST46
     /tmp/cci5x6w9.s:766    .text:0000000000000480 .LBB98
     /tmp/cci5x6w9.s:775    .text:0000000000000490 .LBE98
     /tmp/cci5x6w9.s:4693   .debug_loc:00000000000004ae .LLST47
     /tmp/cci5x6w9.s:742    .text:0000000000000460 .LVL74
     /tmp/cci5x6w9.s:609    .text:000000000000037c .LBB79
     /tmp/cci5x6w9.s:4702   .debug_loc:00000000000004da .LLST33
     /tmp/cci5x6w9.s:455    .text:0000000000000270 .LFB38
     /tmp/cci5x6w9.s:598    .text:000000000000037c .LFE38
     /tmp/cci5x6w9.s:4717   .debug_loc:0000000000000522 .LLST19
     /tmp/cci5x6w9.s:5264   .debug_str:000000000000010c .LASF169
     /tmp/cci5x6w9.s:4746   .debug_loc:0000000000000597 .LLST20
     /tmp/cci5x6w9.s:4772   .debug_loc:0000000000000609 .LLST21
     /tmp/cci5x6w9.s:487    .text:00000000000002a4 .LBB54
     /tmp/cci5x6w9.s:4779   .debug_loc:000000000000062c .LLST22
     /tmp/cci5x6w9.s:4790   .debug_loc:0000000000000662 .LLST23
     /tmp/cci5x6w9.s:4805   .debug_loc:00000000000006aa .LLST24
     /tmp/cci5x6w9.s:4818   .debug_loc:00000000000006e2 .LLST25
     /tmp/cci5x6w9.s:4831   .debug_loc:000000000000071a .LLST26
     /tmp/cci5x6w9.s:492    .text:00000000000002b0 .LVL42
     /tmp/cci5x6w9.s:547    .text:0000000000000318 .LBB57
     /tmp/cci5x6w9.s:4842   .debug_loc:0000000000000750 .LLST27
     /tmp/cci5x6w9.s:4853   .debug_loc:0000000000000786 .LLST28
GAS LISTING /tmp/cci5x6w9.s 			page 39


     /tmp/cci5x6w9.s:4868   .debug_loc:00000000000007ce .LLST29
     /tmp/cci5x6w9.s:4876   .debug_loc:00000000000007f2 .LLST30
     /tmp/cci5x6w9.s:4884   .debug_loc:0000000000000816 .LLST31
     /tmp/cci5x6w9.s:553    .text:0000000000000324 .LVL51
     /tmp/cci5x6w9.s:518    .text:00000000000002e8 .LVL45
     /tmp/cci5x6w9.s:526    .text:00000000000002fc .LVL46
     /tmp/cci5x6w9.s:410    .text:000000000000023c .LFB37
     /tmp/cci5x6w9.s:449    .text:0000000000000270 .LFE37
     /tmp/cci5x6w9.s:4891   .debug_loc:0000000000000839 .LLST18
     /tmp/cci5x6w9.s:368    .text:0000000000000200 .LFB36
     /tmp/cci5x6w9.s:404    .text:000000000000023c .LFE36
     /tmp/cci5x6w9.s:4916   .debug_loc:000000000000089b .LLST17
     /tmp/cci5x6w9.s:394    .text:000000000000022c .LVL34
     /tmp/cci5x6w9.s:288    .text:0000000000000198 .LFB35
     /tmp/cci5x6w9.s:362    .text:0000000000000200 .LFE35
     /tmp/cci5x6w9.s:4930   .debug_loc:00000000000008d4 .LLST12
     /tmp/cci5x6w9.s:4948   .debug_loc:0000000000000920 .LLST13
     /tmp/cci5x6w9.s:304    .text:00000000000001ac .LBB50
     /tmp/cci5x6w9.s:4955   .debug_loc:0000000000000943 .LLST14
     /tmp/cci5x6w9.s:4979   .debug_loc:0000000000000995 .LLST15
     /tmp/cci5x6w9.s:4990   .debug_loc:00000000000009cb .LLST16
     /tmp/cci5x6w9.s:325    .text:00000000000001d0 .LVL28
     /tmp/cci5x6w9.s:333    .text:00000000000001dc .LVL29
     /tmp/cci5x6w9.s:244    .text:0000000000000158 .LFB34
     /tmp/cci5x6w9.s:282    .text:0000000000000198 .LFE34
     /tmp/cci5x6w9.s:4997   .debug_loc:00000000000009ee .LLST11
     /tmp/cci5x6w9.s:272    .text:0000000000000188 .LVL22
     /tmp/cci5x6w9.s:153    .text:00000000000000c8 .LFB33
     /tmp/cci5x6w9.s:238    .text:0000000000000158 .LFE33
     /tmp/cci5x6w9.s:5011   .debug_loc:0000000000000a27 .LLST6
     /tmp/cci5x6w9.s:5033   .debug_loc:0000000000000a86 .LLST7
     /tmp/cci5x6w9.s:176    .text:00000000000000f0 .LBB46
     /tmp/cci5x6w9.s:5044   .debug_loc:0000000000000abc .LLST8
     /tmp/cci5x6w9.s:5055   .debug_loc:0000000000000af2 .LLST9
     /tmp/cci5x6w9.s:5076   .debug_loc:0000000000000b41 .LLST10
     /tmp/cci5x6w9.s:182    .text:00000000000000fc .LVL14
     /tmp/cci5x6w9.s:202    .text:000000000000011c .LVL16
     /tmp/cci5x6w9.s:210    .text:0000000000000134 .LVL17
     /tmp/cci5x6w9.s:68     .text:0000000000000050 .LFB32
     /tmp/cci5x6w9.s:147    .text:00000000000000c8 .LFE32
     /tmp/cci5x6w9.s:5087   .debug_loc:0000000000000b77 .LLST1
     /tmp/cci5x6w9.s:5105   .debug_loc:0000000000000bc3 .LLST2
     /tmp/cci5x6w9.s:88     .text:0000000000000070 .LBB42
     /tmp/cci5x6w9.s:5112   .debug_loc:0000000000000be6 .LLST3
     /tmp/cci5x6w9.s:5127   .debug_loc:0000000000000c20 .LLST4
     /tmp/cci5x6w9.s:5138   .debug_loc:0000000000000c56 .LLST5
     /tmp/cci5x6w9.s:98     .text:0000000000000080 .LVL6
     /tmp/cci5x6w9.s:107    .text:0000000000000090 .LVL7
     /tmp/cci5x6w9.s:36     .text:000000000000002c .LVL1
     /tmp/cci5x6w9.s:46     .text:0000000000000040 .LVL2
     /tmp/cci5x6w9.s:875    .text:0000000000000520 .LVL87
     /tmp/cci5x6w9.s:892    .text:0000000000000540 .LVL88
     /tmp/cci5x6w9.s:907    .text:0000000000000550 .LVL89
     /tmp/cci5x6w9.s:957    .text:000000000000059c .LVL92
     /tmp/cci5x6w9.s:968    .text:00000000000005a8 .LVL93
     /tmp/cci5x6w9.s:860    .text:0000000000000510 .LVL86
     /tmp/cci5x6w9.s:949    .text:000000000000058c .LVL91
GAS LISTING /tmp/cci5x6w9.s 			page 40


     /tmp/cci5x6w9.s:848    .text:00000000000004f4 .LVL84
     /tmp/cci5x6w9.s:858    .text:000000000000050c .LVL85
     /tmp/cci5x6w9.s:607    .text:000000000000037c .LVL55
     /tmp/cci5x6w9.s:635    .text:00000000000003ac .LVL57
     /tmp/cci5x6w9.s:834    .text:00000000000004f0 .LVL83
     /tmp/cci5x6w9.s:758    .text:0000000000000480 .LVL75
     /tmp/cci5x6w9.s:773    .text:0000000000000490 .LVL76
     /tmp/cci5x6w9.s:830    .text:00000000000004e8 .LVL82
     /tmp/cci5x6w9.s:732    .text:0000000000000454 .LVL73
     /tmp/cci5x6w9.s:786    .text:00000000000004a4 .LVL77
     /tmp/cci5x6w9.s:816    .text:00000000000004dc .LVL81
     /tmp/cci5x6w9.s:667    .text:00000000000003e4 .LVL62
     /tmp/cci5x6w9.s:649    .text:00000000000003bc .LVL58
     /tmp/cci5x6w9.s:662    .text:00000000000003d8 .LVL61
     /tmp/cci5x6w9.s:657    .text:00000000000003cc .LVL59
     /tmp/cci5x6w9.s:722    .text:000000000000044c .LVL71
     /tmp/cci5x6w9.s:682    .text:00000000000003f8 .LVL63
     /tmp/cci5x6w9.s:691    .text:000000000000040c .LVL64
     /tmp/cci5x6w9.s:696    .text:0000000000000414 .LVL65
     /tmp/cci5x6w9.s:717    .text:0000000000000440 .LVL70
     /tmp/cci5x6w9.s:704    .text:0000000000000424 .LVL67
     /tmp/cci5x6w9.s:712    .text:0000000000000434 .LVL68
     /tmp/cci5x6w9.s:702    .text:0000000000000420 .LVL66
     /tmp/cci5x6w9.s:806    .text:00000000000004cc .LVL78
     /tmp/cci5x6w9.s:809    .text:00000000000004d0 .LVL79
     /tmp/cci5x6w9.s:814    .text:00000000000004d8 .LVL80
     /tmp/cci5x6w9.s:729    .text:0000000000000450 .LVL72
     /tmp/cci5x6w9.s:633    .text:00000000000003a8 .LVL56
     /tmp/cci5x6w9.s:458    .text:0000000000000270 .LVL39
     /tmp/cci5x6w9.s:477    .text:0000000000000294 .LVL40
     /tmp/cci5x6w9.s:541    .text:0000000000000314 .LVL48
     /tmp/cci5x6w9.s:551    .text:000000000000031c .LVL50
     /tmp/cci5x6w9.s:585    .text:0000000000000368 .LVL54
     /tmp/cci5x6w9.s:514    .text:00000000000002e0 .LVL44
     /tmp/cci5x6w9.s:537    .text:000000000000030c .LVL47
     /tmp/cci5x6w9.s:486    .text:00000000000002a4 .LVL41
     /tmp/cci5x6w9.s:507    .text:00000000000002d4 .LVL43
     /tmp/cci5x6w9.s:546    .text:0000000000000318 .LVL49
     /tmp/cci5x6w9.s:568    .text:0000000000000348 .LVL52
     /tmp/cci5x6w9.s:576    .text:0000000000000354 .LVL53
     /tmp/cci5x6w9.s:413    .text:000000000000023c .LVL35
     /tmp/cci5x6w9.s:427    .text:0000000000000254 .LVL36
     /tmp/cci5x6w9.s:436    .text:0000000000000260 .LVL37
     /tmp/cci5x6w9.s:446    .text:000000000000026c .LVL38
     /tmp/cci5x6w9.s:371    .text:0000000000000200 .LVL33
     /tmp/cci5x6w9.s:291    .text:0000000000000198 .LVL23
     /tmp/cci5x6w9.s:323    .text:00000000000001c8 .LVL27
     /tmp/cci5x6w9.s:346    .text:00000000000001f0 .LVL31
     /tmp/cci5x6w9.s:342    .text:00000000000001e8 .LVL30
     /tmp/cci5x6w9.s:303    .text:00000000000001ac .LVL24
     /tmp/cci5x6w9.s:310    .text:00000000000001b4 .LVL25
     /tmp/cci5x6w9.s:354    .text:00000000000001f8 .LVL32
     /tmp/cci5x6w9.s:320    .text:00000000000001c4 .LVL26
     /tmp/cci5x6w9.s:247    .text:0000000000000158 .LVL21
     /tmp/cci5x6w9.s:156    .text:00000000000000c8 .LVL11
     /tmp/cci5x6w9.s:180    .text:00000000000000f4 .LVL13
     /tmp/cci5x6w9.s:219    .text:0000000000000140 .LVL18
GAS LISTING /tmp/cci5x6w9.s 			page 41


     /tmp/cci5x6w9.s:226    .text:000000000000014c .LVL20
     /tmp/cci5x6w9.s:174    .text:00000000000000f0 .LVL12
     /tmp/cci5x6w9.s:222    .text:0000000000000144 .LVL19
     /tmp/cci5x6w9.s:196    .text:0000000000000114 .LVL15
     /tmp/cci5x6w9.s:71     .text:0000000000000050 .LVL3
     /tmp/cci5x6w9.s:86     .text:0000000000000070 .LVL4
     /tmp/cci5x6w9.s:142    .text:00000000000000c0 .LVL10
     /tmp/cci5x6w9.s:125    .text:00000000000000a8 .LVL9
     /tmp/cci5x6w9.s:117    .text:0000000000000098 .LVL8
     /tmp/cci5x6w9.s:95     .text:0000000000000078 .LVL5
     /tmp/cci5x6w9.s:1029   .debug_info:0000000000000000 .Ldebug_info0
     /tmp/cci5x6w9.s:100    .text:0000000000000080 .LBE42
     /tmp/cci5x6w9.s:111    .text:0000000000000090 .LBB45
     /tmp/cci5x6w9.s:128    .text:00000000000000a8 .LBE45
     /tmp/cci5x6w9.s:198    .text:0000000000000114 .LBE46
     /tmp/cci5x6w9.s:229    .text:000000000000014c .LBB49
     /tmp/cci5x6w9.s:236    .text:0000000000000158 .LBE49
     /tmp/cci5x6w9.s:328    .text:00000000000001d0 .LBE50
     /tmp/cci5x6w9.s:349    .text:00000000000001f0 .LBB53
     /tmp/cci5x6w9.s:360    .text:0000000000000200 .LBE53
     /tmp/cci5x6w9.s:509    .text:00000000000002d4 .LBE54
     /tmp/cci5x6w9.s:589    .text:0000000000000368 .LBB61
     /tmp/cci5x6w9.s:596    .text:000000000000037c .LBE61
     /tmp/cci5x6w9.s:570    .text:0000000000000348 .LBE57
     /tmp/cci5x6w9.s:578    .text:0000000000000354 .LBB60
     /tmp/cci5x6w9.s:588    .text:0000000000000368 .LBE60
     /tmp/cci5x6w9.s:617    .text:000000000000038c .LBE79
     /tmp/cci5x6w9.s:629    .text:00000000000003a0 .LBB82
     /tmp/cci5x6w9.s:638    .text:00000000000003ac .LBE82
     /tmp/cci5x6w9.s:639    .text:00000000000003ac .LBB83
     /tmp/cci5x6w9.s:762    .text:0000000000000480 .LBE83
     /tmp/cci5x6w9.s:764    .text:0000000000000480 .LBB101
     /tmp/cci5x6w9.s:822    .text:00000000000004dc .LBE101
     /tmp/cci5x6w9.s:737    .text:0000000000000454 .LBE84
     /tmp/cci5x6w9.s:787    .text:00000000000004a4 .LBB100
     /tmp/cci5x6w9.s:821    .text:00000000000004dc .LBE100
     /tmp/cci5x6w9.s:726    .text:000000000000044c .LBB92
     /tmp/cci5x6w9.s:734    .text:0000000000000454 .LBE92
     /tmp/cci5x6w9.s:802    .text:00000000000004c8 .LBB93
     /tmp/cci5x6w9.s:818    .text:00000000000004dc .LBE93
     /tmp/cci5x6w9.s:877    .text:0000000000000520 .LBB104
     /tmp/cci5x6w9.s:896    .text:0000000000000540 .LBE104
     /tmp/cci5x6w9.s:898    .text:0000000000000540 .LBB113
     /tmp/cci5x6w9.s:912    .text:0000000000000554 .LBE113
     /tmp/cci5x6w9.s:923    .text:0000000000000564 .LBB114
     /tmp/cci5x6w9.s:945    .text:000000000000058c .LBE114
     /tmp/cci5x6w9.s:947    .text:000000000000058c .LBB115
     /tmp/cci5x6w9.s:971    .text:00000000000005ac .LBE115
     /tmp/cci5x6w9.s:895    .text:0000000000000540 .LBE105
     /tmp/cci5x6w9.s:930    .text:000000000000056c .LBB111
     /tmp/cci5x6w9.s:944    .text:000000000000058c .LBE111
     /tmp/cci5x6w9.s:909    .text:0000000000000550 .LBE108
     /tmp/cci5x6w9.s:950    .text:000000000000058c .LBB112
     /tmp/cci5x6w9.s:959    .text:000000000000059c .LBE112

UNDEFINED SYMBOLS
_ZN15MemoryAllocator8mem_freeEPv
GAS LISTING /tmp/cci5x6w9.s 			page 42


_ZN9Scheduler3putEP3TCB
_ZN3TCB7runningE
_ZN15MemoryAllocator9mem_allocEm
_ZN9Scheduler3getEv
_ZN3TCB13contextSwitchEPNS_7ContextES1_
