GAS LISTING /tmp/cci5x6w9.s 			page 1


   1              		.file	"mySem.cpp"
   2              		.option nopic
   3              		.option norelax
   4              		.text
   5              	.Ltext0:
   6              		.align	2
   8              	_Z41__static_initialization_and_destruction_0ii:
   9              	.LFB58:
  10              		.file 1 "src/mySem.cpp"
   1:src/mySem.cpp **** #include "../h/mySem.hpp"
   2:src/mySem.cpp **** 
   3:src/mySem.cpp **** List<TCB> mySem::sleepingOnSem;
   4:src/mySem.cpp **** 
   5:src/mySem.cpp **** List<mySem> mySem::allTimedSems;
   6:src/mySem.cpp **** 
   7:src/mySem.cpp **** void mySem::close() {
   8:src/mySem.cpp ****     TCB* thread;
   9:src/mySem.cpp ****     while((thread = blocked.removeFirst()) != nullptr){
  10:src/mySem.cpp ****         Scheduler::put(thread);
  11:src/mySem.cpp ****     }
  12:src/mySem.cpp ****     closed = true;
  13:src/mySem.cpp **** }
  14:src/mySem.cpp **** 
  15:src/mySem.cpp **** void mySem::block() {
  16:src/mySem.cpp ****     TCB* old = TCB::running;
  17:src/mySem.cpp ****     blocked.addLast(old);
  18:src/mySem.cpp ****     TCB::running = Scheduler::get();
  19:src/mySem.cpp ****     TCB::contextSwitch(&old->context, &TCB::running->context);
  20:src/mySem.cpp **** }
  21:src/mySem.cpp **** 
  22:src/mySem.cpp **** void mySem::wait() {
  23:src/mySem.cpp ****     if(--val < 0){
  24:src/mySem.cpp ****         block();
  25:src/mySem.cpp ****     }
  26:src/mySem.cpp **** }
  27:src/mySem.cpp **** 
  28:src/mySem.cpp **** void mySem::deblock() {
  29:src/mySem.cpp ****     TCB* thread = blocked.removeFirst();
  30:src/mySem.cpp ****     Scheduler::put(thread);
  31:src/mySem.cpp **** }
  32:src/mySem.cpp **** 
  33:src/mySem.cpp **** void mySem::signal() {
  34:src/mySem.cpp ****     if (val++<0)
  35:src/mySem.cpp ****         deblock();
  36:src/mySem.cpp **** }
  37:src/mySem.cpp **** 
  38:src/mySem.cpp **** int mySem::trywait() {
  39:src/mySem.cpp ****     if (val > 0){
  40:src/mySem.cpp ****         val--;
  41:src/mySem.cpp ****         return 1;
  42:src/mySem.cpp ****     }
  43:src/mySem.cpp ****     return 0;
  44:src/mySem.cpp **** }
  45:src/mySem.cpp **** 
  46:src/mySem.cpp **** void mySem::addToWaitingList(time_t period) {
  47:src/mySem.cpp ****     if(!flagAdded) {
  48:src/mySem.cpp ****         allTimedSems.addLast(this);
GAS LISTING /tmp/cci5x6w9.s 			page 2


  49:src/mySem.cpp ****         flagAdded = true;
  50:src/mySem.cpp ****     }
  51:src/mySem.cpp ****     TCB::running->sleepTime = period;
  52:src/mySem.cpp ****     sleepingOnSem.addLast(TCB::running);
  53:src/mySem.cpp **** 
  54:src/mySem.cpp ****     //context switch
  55:src/mySem.cpp ****     TCB* old = TCB::running;
  56:src/mySem.cpp ****     TCB::running = Scheduler::get();
  57:src/mySem.cpp ****     TCB::contextSwitch(&old->context, &TCB::running->context);
  58:src/mySem.cpp **** }
  59:src/mySem.cpp **** 
  60:src/mySem.cpp **** void mySem::checkWaitingList() {
  61:src/mySem.cpp ****     if(sleepingOnSem.setPointer() == 0) {
  62:src/mySem.cpp ****         while(1){
  63:src/mySem.cpp ****             TCB* thread = sleepingOnSem.getData();
  64:src/mySem.cpp ****             thread->sleepTime--;
  65:src/mySem.cpp ****             if(thread->sleepTime == 0){
  66:src/mySem.cpp ****                 sleepingOnSem.removeElem();
  67:src/mySem.cpp ****                 Scheduler::put(thread);
  68:src/mySem.cpp ****             }
  69:src/mySem.cpp ****             if(sleepingOnSem.movePointer() == -1) break;
  70:src/mySem.cpp ****         }
  71:src/mySem.cpp ****     }
  72:src/mySem.cpp **** }
  73:src/mySem.cpp **** 
  74:src/mySem.cpp **** void mySem::checkAllTimedSems() {
  75:src/mySem.cpp ****     if(allTimedSems.setPointer() == 0) {
  76:src/mySem.cpp ****         while(1){
  77:src/mySem.cpp ****             mySem* sem = allTimedSems.getData();
  78:src/mySem.cpp ****             if(sem) sem->checkWaitingList();
  79:src/mySem.cpp ****             if(allTimedSems.movePointer() == -1) break;
  80:src/mySem.cpp ****         }
  81:src/mySem.cpp ****     }
  82:src/mySem.cpp **** }
  11              		.loc 1 82 1
  12              		.cfi_startproc
  13              	.LVL0:
  14 0000 130101FF 		addi	sp,sp,-16
  15              		.cfi_def_cfa_offset 16
  16 0004 23348100 		sd	s0,8(sp)
  17              		.cfi_offset 8, -8
  18 0008 13040101 		addi	s0,sp,16
  19              		.cfi_def_cfa 8, 0
  20              		.loc 1 82 1 is_stmt 0
  21 000c 93071000 		li	a5,1
  22 0010 6308F500 		beq	a0,a5,.L4
  23              	.L1:
  24 0014 03348100 		ld	s0,8(sp)
  25              		.cfi_remember_state
  26              		.cfi_restore 8
  27 0018 13010101 		addi	sp,sp,16
  28              		.cfi_def_cfa_register 2
  29 001c 67800000 		jr	ra
  30              	.L4:
  31              		.cfi_restore_state
  32              		.loc 1 82 1 discriminator 1
  33 0020 B7070100 		li	a5,65536
GAS LISTING /tmp/cci5x6w9.s 			page 3


  34 0024 9387F7FF 		addi	a5,a5,-1
  35 0028 E396F5FE 		bne	a1,a5,.L1
  36              	.LVL1:
  37              	.LBB36:
  38              	.LBB37:
  39              	.LBB38:
  40              		.file 2 "src/../h/list.hpp"
   1:src/../h/list.hpp **** #ifndef OS1_VEZBE07_RISCV_CONTEXT_SWITCH_2_INTERRUPT_LIST_HPP
   2:src/../h/list.hpp **** #define OS1_VEZBE07_RISCV_CONTEXT_SWITCH_2_INTERRUPT_LIST_HPP
   3:src/../h/list.hpp **** 
   4:src/../h/list.hpp **** #include "../h/MemoryAllocator.hpp"
   5:src/../h/list.hpp **** 
   6:src/../h/list.hpp **** 
   7:src/../h/list.hpp **** template <typename T>
   8:src/../h/list.hpp **** class List
   9:src/../h/list.hpp **** {
  10:src/../h/list.hpp **** private:
  11:src/../h/list.hpp ****     struct Elem
  12:src/../h/list.hpp ****     {
  13:src/../h/list.hpp ****         T *data;
  14:src/../h/list.hpp ****         Elem *next;
  15:src/../h/list.hpp **** 
  16:src/../h/list.hpp ****         Elem(T *data, Elem *next) : data(data), next(next) {}
  17:src/../h/list.hpp ****     };
  18:src/../h/list.hpp **** 
  19:src/../h/list.hpp ****     Elem *head, *tail;
  20:src/../h/list.hpp ****     
  21:src/../h/list.hpp ****     Elem* pointer;
  22:src/../h/list.hpp ****     
  23:src/../h/list.hpp **** public:
  24:src/../h/list.hpp ****     List() : head(0), tail(0), pointer(0) {}
  41              		.loc 2 24 41
  42 002c 97070000 		lla	a5,.LANCHOR0
  42      93870700 
  43 0034 23B00700 		sd	zero,0(a5)
  44 0038 23B40700 		sd	zero,8(a5)
  45 003c 23B80700 		sd	zero,16(a5)
  46              	.LVL2:
  47              	.LBE38:
  48              	.LBE37:
  49              	.LBE36:
  50              	.LBB39:
  51              	.LBB40:
  52              	.LBB41:
  53 0040 23BC0700 		sd	zero,24(a5)
  54 0044 23B00702 		sd	zero,32(a5)
  55 0048 23B40702 		sd	zero,40(a5)
  56              	.LBE41:
  57              	.LBE40:
  58              	.LBE39:
  59              		.loc 1 82 1
  60 004c 6FF09FFC 		j	.L1
  61              		.cfi_endproc
  62              	.LFE58:
  64              		.align	2
  65              		.globl	_ZN5mySem5closeEv
  67              	_ZN5mySem5closeEv:
GAS LISTING /tmp/cci5x6w9.s 			page 4


  68              	.LFB32:
   7:src/mySem.cpp ****     TCB* thread;
  69              		.loc 1 7 21 is_stmt 1
  70              		.cfi_startproc
  71              	.LVL3:
  72 0050 130101FE 		addi	sp,sp,-32
  73              		.cfi_def_cfa_offset 32
  74 0054 233C1100 		sd	ra,24(sp)
  75 0058 23388100 		sd	s0,16(sp)
  76 005c 23349100 		sd	s1,8(sp)
  77 0060 23302101 		sd	s2,0(sp)
  78              		.cfi_offset 1, -8
  79              		.cfi_offset 8, -16
  80              		.cfi_offset 9, -24
  81              		.cfi_offset 18, -32
  82 0064 13040102 		addi	s0,sp,32
  83              		.cfi_def_cfa 8, 0
  84 0068 13090500 		mv	s2,a0
  85 006c 6F004002 		j	.L8
  86              	.LVL4:
  87              	.L10:
  88              	.LBB42:
  89              	.LBB43:
  25:src/../h/list.hpp **** 
  26:src/../h/list.hpp ****     List(const List<T> &) = delete;
  27:src/../h/list.hpp **** 
  28:src/../h/list.hpp ****     List<T> &operator=(const List<T> &) = delete;
  29:src/../h/list.hpp **** 
  30:src/../h/list.hpp ****  
  31:src/../h/list.hpp ****     int setPointer(){
  32:src/../h/list.hpp ****         if(!head) return -1;
  33:src/../h/list.hpp ****         pointer = head;
  34:src/../h/list.hpp ****         return 0;
  35:src/../h/list.hpp ****     } 
  36:src/../h/list.hpp **** 
  37:src/../h/list.hpp ****     int movePointer(){
  38:src/../h/list.hpp ****         if(!pointer) return -1;
  39:src/../h/list.hpp ****         pointer = pointer->next;
  40:src/../h/list.hpp ****         if(!pointer) return -1;
  41:src/../h/list.hpp ****         return 0;
  42:src/../h/list.hpp ****     }
  43:src/../h/list.hpp **** 
  44:src/../h/list.hpp ****     T* getData(){
  45:src/../h/list.hpp ****         return pointer->data;
  46:src/../h/list.hpp ****     }
  47:src/../h/list.hpp **** 
  48:src/../h/list.hpp ****     T* removeElem(){
  49:src/../h/list.hpp ****         if(pointer == head) removeFirst();
  50:src/../h/list.hpp ****         else if(pointer == tail) removeLast();
  51:src/../h/list.hpp ****         else{
  52:src/../h/list.hpp ****             Elem* last = nullptr;
  53:src/../h/list.hpp ****             Elem* curr = head;
  54:src/../h/list.hpp ****             while(curr != pointer){ last = curr; curr = curr->next; }
  55:src/../h/list.hpp ****             last->next = pointer->next;
  56:src/../h/list.hpp ****         }
  57:src/../h/list.hpp **** 
  58:src/../h/list.hpp ****         return pointer->data;
GAS LISTING /tmp/cci5x6w9.s 			page 5


  59:src/../h/list.hpp ****     }
  60:src/../h/list.hpp ****     void addFirst(T *data)
  61:src/../h/list.hpp ****     {
  62:src/../h/list.hpp ****         // Elem *elem = new Elem(data, head);
  63:src/../h/list.hpp ****         size_t size = sizeof(Elem);
  64:src/../h/list.hpp ****         size_t numBlocks = (size % MEM_BLOCK_SIZE == 0) ? size / MEM_BLOCK_SIZE : size / MEM_BLOCK_
  65:src/../h/list.hpp ****         Elem *elem = (Elem *)MemoryAllocator::mem_alloc(numBlocks);
  66:src/../h/list.hpp ****         elem->data = data;
  67:src/../h/list.hpp ****         elem->next = head;
  68:src/../h/list.hpp ****         head = elem;
  69:src/../h/list.hpp ****         if (!tail)
  70:src/../h/list.hpp ****         {
  71:src/../h/list.hpp ****             tail = head;
  72:src/../h/list.hpp ****         }
  73:src/../h/list.hpp ****     }
  74:src/../h/list.hpp **** 
  75:src/../h/list.hpp ****     void addLast(T *data)
  76:src/../h/list.hpp ****     {
  77:src/../h/list.hpp ****         // Elem *elem = new Elem(data, 0);
  78:src/../h/list.hpp ****         size_t size = sizeof(Elem);
  79:src/../h/list.hpp ****         size_t numBlocks = (size % MEM_BLOCK_SIZE == 0) ? size / MEM_BLOCK_SIZE : size / MEM_BLOCK_
  80:src/../h/list.hpp ****         Elem *elem = (Elem *)MemoryAllocator::mem_alloc(numBlocks);
  81:src/../h/list.hpp ****         elem->data = data;
  82:src/../h/list.hpp ****         elem->next = 0;
  83:src/../h/list.hpp ****         if (tail)
  84:src/../h/list.hpp ****         {
  85:src/../h/list.hpp ****             tail->next = elem;
  86:src/../h/list.hpp ****             tail = elem;
  87:src/../h/list.hpp ****         }
  88:src/../h/list.hpp ****         else
  89:src/../h/list.hpp ****         {
  90:src/../h/list.hpp ****             head = tail = elem;
  91:src/../h/list.hpp ****         }
  92:src/../h/list.hpp ****         
  93:src/../h/list.hpp ****     }
  94:src/../h/list.hpp **** 
  95:src/../h/list.hpp ****     T *removeFirst()
  96:src/../h/list.hpp ****     {
  97:src/../h/list.hpp ****         if (!head)
  98:src/../h/list.hpp ****         {
  99:src/../h/list.hpp ****             return 0;
 100:src/../h/list.hpp ****         }
 101:src/../h/list.hpp **** 
 102:src/../h/list.hpp ****         Elem *elem = head;
 103:src/../h/list.hpp ****         head = head->next;
 104:src/../h/list.hpp ****         if (!head)
 105:src/../h/list.hpp ****         {
 106:src/../h/list.hpp ****             tail = 0;
  90              		.loc 2 106 13 is_stmt 0
  91 0070 23380900 		sd	zero,16(s2)
  92              	.L7:
 107:src/../h/list.hpp ****         }
 108:src/../h/list.hpp **** 
 109:src/../h/list.hpp **** 
 110:src/../h/list.hpp ****         T *ret = elem->data;
  93              		.loc 2 110 12
  94 0074 83340500 		ld	s1,0(a0)
GAS LISTING /tmp/cci5x6w9.s 			page 6


  95              	.LVL5:
 111:src/../h/list.hpp ****         // delete elem;
 112:src/../h/list.hpp ****         MemoryAllocator::mem_free(elem);
  96              		.loc 2 112 34
  97 0078 97000000 		call	_ZN15MemoryAllocator8mem_freeEPv
  97      E7800000 
  98              	.LVL6:
  99              	.LBE43:
 100              	.LBE42:
   9:src/mySem.cpp ****         Scheduler::put(thread);
 101              		.loc 1 9 44
 102 0080 63840402 		beqz	s1,.L6
  10:src/mySem.cpp ****     }
 103              		.loc 1 10 9 is_stmt 1
  10:src/mySem.cpp ****     }
 104              		.loc 1 10 23 is_stmt 0
 105 0084 13850400 		mv	a0,s1
 106 0088 97000000 		call	_ZN9Scheduler3putEP3TCB
 106      E7800000 
 107              	.LVL7:
 108              	.L8:
   8:src/mySem.cpp ****     while((thread = blocked.removeFirst()) != nullptr){
 109              		.loc 1 8 5 is_stmt 1
   9:src/mySem.cpp ****         Scheduler::put(thread);
 110              		.loc 1 9 5
 111              	.LBB45:
 112              	.LBB44:
  97:src/../h/list.hpp ****         {
 113              		.loc 2 97 14 is_stmt 0
 114 0090 03358900 		ld	a0,8(s2)
  97:src/../h/list.hpp ****         {
 115              		.loc 2 97 9
 116 0094 630A0500 		beqz	a0,.L6
 117              	.LVL8:
 103:src/../h/list.hpp ****         if (!head)
 118              		.loc 2 103 22
 119 0098 83378500 		ld	a5,8(a0)
 103:src/../h/list.hpp ****         if (!head)
 120              		.loc 2 103 9
 121 009c 2334F900 		sd	a5,8(s2)
 104:src/../h/list.hpp ****         {
 122              		.loc 2 104 9
 123 00a0 E39A07FC 		bnez	a5,.L7
 124 00a4 6FF0DFFC 		j	.L10
 125              	.LVL9:
 126              	.L6:
 127              	.LBE44:
 128              	.LBE45:
  12:src/mySem.cpp **** }
 129              		.loc 1 12 5 is_stmt 1
  12:src/mySem.cpp **** }
 130              		.loc 1 12 12 is_stmt 0
 131 00a8 93071000 		li	a5,1
 132 00ac 2302F900 		sb	a5,4(s2)
  13:src/mySem.cpp **** 
 133              		.loc 1 13 1
 134 00b0 83308101 		ld	ra,24(sp)
GAS LISTING /tmp/cci5x6w9.s 			page 7


 135              		.cfi_restore 1
 136 00b4 03340101 		ld	s0,16(sp)
 137              		.cfi_restore 8
 138 00b8 83348100 		ld	s1,8(sp)
 139              		.cfi_restore 9
 140 00bc 03390100 		ld	s2,0(sp)
 141              		.cfi_restore 18
 142              	.LVL10:
 143 00c0 13010102 		addi	sp,sp,32
 144              		.cfi_def_cfa_register 2
 145 00c4 67800000 		jr	ra
 146              		.cfi_endproc
 147              	.LFE32:
 149              		.align	2
 150              		.globl	_ZN5mySem5blockEv
 152              	_ZN5mySem5blockEv:
 153              	.LFB33:
  15:src/mySem.cpp ****     TCB* old = TCB::running;
 154              		.loc 1 15 21 is_stmt 1
 155              		.cfi_startproc
 156              	.LVL11:
 157 00c8 130101FE 		addi	sp,sp,-32
 158              		.cfi_def_cfa_offset 32
 159 00cc 233C1100 		sd	ra,24(sp)
 160 00d0 23388100 		sd	s0,16(sp)
 161 00d4 23349100 		sd	s1,8(sp)
 162 00d8 23302101 		sd	s2,0(sp)
 163              		.cfi_offset 1, -8
 164              		.cfi_offset 8, -16
 165              		.cfi_offset 9, -24
 166              		.cfi_offset 18, -32
 167 00dc 13040102 		addi	s0,sp,32
 168              		.cfi_def_cfa 8, 0
 169 00e0 93040500 		mv	s1,a0
  16:src/mySem.cpp ****     blocked.addLast(old);
 170              		.loc 1 16 5
  16:src/mySem.cpp ****     blocked.addLast(old);
 171              		.loc 1 16 10 is_stmt 0
 172 00e4 97070000 		lla	a5,_ZN3TCB7runningE
 172      93870700 
 173 00ec 03B90700 		ld	s2,0(a5)
 174              	.LVL12:
  17:src/mySem.cpp ****     TCB::running = Scheduler::get();
 175              		.loc 1 17 5 is_stmt 1
 176              	.LBB46:
 177              	.LBB47:
  80:src/../h/list.hpp ****         elem->data = data;
 178              		.loc 2 80 56 is_stmt 0
 179 00f0 13051000 		li	a0,1
 180              	.LVL13:
 181 00f4 97000000 		call	_ZN15MemoryAllocator9mem_allocEm
 181      E7800000 
 182              	.LVL14:
  81:src/../h/list.hpp ****         elem->next = 0;
 183              		.loc 2 81 9
 184 00fc 23302501 		sd	s2,0(a0)
  82:src/../h/list.hpp ****         if (tail)
GAS LISTING /tmp/cci5x6w9.s 			page 8


 185              		.loc 2 82 9
 186 0100 23340500 		sd	zero,8(a0)
  83:src/../h/list.hpp ****         {
 187              		.loc 2 83 13
 188 0104 83B70401 		ld	a5,16(s1)
  83:src/../h/list.hpp ****         {
 189              		.loc 2 83 9
 190 0108 63820704 		beqz	a5,.L12
  85:src/../h/list.hpp ****             tail = elem;
 191              		.loc 2 85 13
 192 010c 23B4A700 		sd	a0,8(a5)
  86:src/../h/list.hpp ****         }
 193              		.loc 2 86 13
 194 0110 23B8A400 		sd	a0,16(s1)
 195              	.L13:
 196              	.LVL15:
 197              	.LBE47:
 198              	.LBE46:
  18:src/mySem.cpp ****     TCB::contextSwitch(&old->context, &TCB::running->context);
 199              		.loc 1 18 5 is_stmt 1
  18:src/mySem.cpp ****     TCB::contextSwitch(&old->context, &TCB::running->context);
 200              		.loc 1 18 34 is_stmt 0
 201 0114 97000000 		call	_ZN9Scheduler3getEv
 201      E7800000 
 202              	.LVL16:
  18:src/mySem.cpp ****     TCB::contextSwitch(&old->context, &TCB::running->context);
 203              		.loc 1 18 18
 204 011c 97070000 		sd	a0,_ZN3TCB7runningE,a5
 204      23B0A700 
  19:src/mySem.cpp **** }
 205              		.loc 1 19 5 is_stmt 1
  19:src/mySem.cpp **** }
 206              		.loc 1 19 23 is_stmt 0
 207 0124 93058501 		addi	a1,a0,24
 208 0128 13058901 		addi	a0,s2,24
 209 012c 97000000 		call	_ZN3TCB13contextSwitchEPNS_7ContextES1_
 209      E7800000 
 210              	.LVL17:
  20:src/mySem.cpp **** 
 211              		.loc 1 20 1
 212 0134 83308101 		ld	ra,24(sp)
 213              		.cfi_remember_state
 214              		.cfi_restore 1
 215 0138 03340101 		ld	s0,16(sp)
 216              		.cfi_restore 8
 217 013c 83348100 		ld	s1,8(sp)
 218              		.cfi_restore 9
 219              	.LVL18:
 220 0140 03390100 		ld	s2,0(sp)
 221              		.cfi_restore 18
 222              	.LVL19:
 223 0144 13010102 		addi	sp,sp,32
 224              		.cfi_def_cfa_register 2
 225 0148 67800000 		jr	ra
 226              	.LVL20:
 227              	.L12:
 228              		.cfi_restore_state
GAS LISTING /tmp/cci5x6w9.s 			page 9


 229              	.LBB49:
 230              	.LBB48:
  90:src/../h/list.hpp ****         }
 231              		.loc 2 90 13
 232 014c 23B8A400 		sd	a0,16(s1)
 233 0150 23B4A400 		sd	a0,8(s1)
 234 0154 6FF01FFC 		j	.L13
 235              	.LBE48:
 236              	.LBE49:
 237              		.cfi_endproc
 238              	.LFE33:
 240              		.align	2
 241              		.globl	_ZN5mySem4waitEv
 243              	_ZN5mySem4waitEv:
 244              	.LFB34:
  22:src/mySem.cpp ****     if(--val < 0){
 245              		.loc 1 22 20 is_stmt 1
 246              		.cfi_startproc
 247              	.LVL21:
  23:src/mySem.cpp ****         block();
 248              		.loc 1 23 5
  23:src/mySem.cpp ****         block();
 249              		.loc 1 23 10 is_stmt 0
 250 0158 83270500 		lw	a5,0(a0)
  23:src/mySem.cpp ****         block();
 251              		.loc 1 23 8
 252 015c 9B87F7FF 		addiw	a5,a5,-1
  23:src/mySem.cpp ****         block();
 253              		.loc 1 23 14
 254 0160 2320F500 		sw	a5,0(a0)
  23:src/mySem.cpp ****         block();
 255              		.loc 1 23 5
 256 0164 13970702 		slli	a4,a5,32
 257 0168 63440700 		bltz	a4,.L21
 258 016c 67800000 		ret
 259              	.L21:
  22:src/mySem.cpp ****     if(--val < 0){
 260              		.loc 1 22 20
 261 0170 130101FF 		addi	sp,sp,-16
 262              		.cfi_def_cfa_offset 16
 263 0174 23341100 		sd	ra,8(sp)
 264 0178 23308100 		sd	s0,0(sp)
 265              		.cfi_offset 1, -8
 266              		.cfi_offset 8, -16
 267 017c 13040101 		addi	s0,sp,16
 268              		.cfi_def_cfa 8, 0
  24:src/mySem.cpp ****     }
 269              		.loc 1 24 9 is_stmt 1
  24:src/mySem.cpp ****     }
 270              		.loc 1 24 14 is_stmt 0
 271 0180 97000000 		call	_ZN5mySem5blockEv
 271      E7800000 
 272              	.LVL22:
  26:src/mySem.cpp **** 
 273              		.loc 1 26 1
 274 0188 83308100 		ld	ra,8(sp)
 275              		.cfi_restore 1
GAS LISTING /tmp/cci5x6w9.s 			page 10


 276 018c 03340100 		ld	s0,0(sp)
 277              		.cfi_restore 8
 278 0190 13010101 		addi	sp,sp,16
 279              		.cfi_def_cfa_register 2
 280 0194 67800000 		jr	ra
 281              		.cfi_endproc
 282              	.LFE34:
 284              		.align	2
 285              		.globl	_ZN5mySem7deblockEv
 287              	_ZN5mySem7deblockEv:
 288              	.LFB35:
  28:src/mySem.cpp ****     TCB* thread = blocked.removeFirst();
 289              		.loc 1 28 23 is_stmt 1
 290              		.cfi_startproc
 291              	.LVL23:
 292 0198 130101FE 		addi	sp,sp,-32
 293              		.cfi_def_cfa_offset 32
 294 019c 233C1100 		sd	ra,24(sp)
 295 01a0 23388100 		sd	s0,16(sp)
 296 01a4 23349100 		sd	s1,8(sp)
 297              		.cfi_offset 1, -8
 298              		.cfi_offset 8, -16
 299              		.cfi_offset 9, -24
 300 01a8 13040102 		addi	s0,sp,32
 301              		.cfi_def_cfa 8, 0
  29:src/mySem.cpp ****     Scheduler::put(thread);
 302              		.loc 1 29 5
 303              	.LVL24:
 304              	.LBB50:
 305              	.LBB51:
  97:src/../h/list.hpp ****         {
 306              		.loc 2 97 14 is_stmt 0
 307 01ac 83378500 		ld	a5,8(a0)
  97:src/../h/list.hpp ****         {
 308              		.loc 2 97 9
 309 01b0 63840704 		beqz	a5,.L25
 310              	.LVL25:
 103:src/../h/list.hpp ****         if (!head)
 311              		.loc 2 103 22
 312 01b4 03B78700 		ld	a4,8(a5)
 103:src/../h/list.hpp ****         if (!head)
 313              		.loc 2 103 9
 314 01b8 2334E500 		sd	a4,8(a0)
 104:src/../h/list.hpp ****         {
 315              		.loc 2 104 9
 316 01bc 630A0702 		beqz	a4,.L27
 317              	.L24:
 110:src/../h/list.hpp ****         // delete elem;
 318              		.loc 2 110 12
 319 01c0 83B40700 		ld	s1,0(a5)
 320              	.LVL26:
 321              		.loc 2 112 34
 322 01c4 13850700 		mv	a0,a5
 323              	.LVL27:
 324 01c8 97000000 		call	_ZN15MemoryAllocator8mem_freeEPv
 324      E7800000 
 325              	.LVL28:
GAS LISTING /tmp/cci5x6w9.s 			page 11


 326              	.L23:
 327              	.LBE51:
 328              	.LBE50:
  30:src/mySem.cpp **** }
 329              		.loc 1 30 5 is_stmt 1
  30:src/mySem.cpp **** }
 330              		.loc 1 30 19 is_stmt 0
 331 01d0 13850400 		mv	a0,s1
 332 01d4 97000000 		call	_ZN9Scheduler3putEP3TCB
 332      E7800000 
 333              	.LVL29:
  31:src/mySem.cpp **** 
 334              		.loc 1 31 1
 335 01dc 83308101 		ld	ra,24(sp)
 336              		.cfi_remember_state
 337              		.cfi_restore 1
 338 01e0 03340101 		ld	s0,16(sp)
 339              		.cfi_restore 8
 340 01e4 83348100 		ld	s1,8(sp)
 341              		.cfi_restore 9
 342              	.LVL30:
 343 01e8 13010102 		addi	sp,sp,32
 344              		.cfi_def_cfa_register 2
 345 01ec 67800000 		jr	ra
 346              	.LVL31:
 347              	.L27:
 348              		.cfi_restore_state
 349              	.LBB53:
 350              	.LBB52:
 106:src/../h/list.hpp ****         }
 351              		.loc 2 106 13
 352 01f0 23380500 		sd	zero,16(a0)
 353 01f4 6FF0DFFC 		j	.L24
 354              	.LVL32:
 355              	.L25:
  99:src/../h/list.hpp ****         }
 356              		.loc 2 99 20
 357 01f8 93840700 		mv	s1,a5
 358 01fc 6FF05FFD 		j	.L23
 359              	.LBE52:
 360              	.LBE53:
 361              		.cfi_endproc
 362              	.LFE35:
 364              		.align	2
 365              		.globl	_ZN5mySem6signalEv
 367              	_ZN5mySem6signalEv:
 368              	.LFB36:
  33:src/mySem.cpp ****     if (val++<0)
 369              		.loc 1 33 22 is_stmt 1
 370              		.cfi_startproc
 371              	.LVL33:
  34:src/mySem.cpp ****         deblock();
 372              		.loc 1 34 5
  34:src/mySem.cpp ****         deblock();
 373              		.loc 1 34 9 is_stmt 0
 374 0200 83270500 		lw	a5,0(a0)
  34:src/mySem.cpp ****         deblock();
GAS LISTING /tmp/cci5x6w9.s 			page 12


 375              		.loc 1 34 12
 376 0204 1B871700 		addiw	a4,a5,1
 377 0208 2320E500 		sw	a4,0(a0)
  34:src/mySem.cpp ****         deblock();
 378              		.loc 1 34 5
 379 020c 63C40700 		bltz	a5,.L34
 380 0210 67800000 		ret
 381              	.L34:
  33:src/mySem.cpp ****     if (val++<0)
 382              		.loc 1 33 22
 383 0214 130101FF 		addi	sp,sp,-16
 384              		.cfi_def_cfa_offset 16
 385 0218 23341100 		sd	ra,8(sp)
 386 021c 23308100 		sd	s0,0(sp)
 387              		.cfi_offset 1, -8
 388              		.cfi_offset 8, -16
 389 0220 13040101 		addi	s0,sp,16
 390              		.cfi_def_cfa 8, 0
  35:src/mySem.cpp **** }
 391              		.loc 1 35 9 is_stmt 1
  35:src/mySem.cpp **** }
 392              		.loc 1 35 16 is_stmt 0
 393 0224 97000000 		call	_ZN5mySem7deblockEv
 393      E7800000 
 394              	.LVL34:
  36:src/mySem.cpp **** 
 395              		.loc 1 36 1
 396 022c 83308100 		ld	ra,8(sp)
 397              		.cfi_restore 1
 398 0230 03340100 		ld	s0,0(sp)
 399              		.cfi_restore 8
 400 0234 13010101 		addi	sp,sp,16
 401              		.cfi_def_cfa_register 2
 402 0238 67800000 		jr	ra
 403              		.cfi_endproc
 404              	.LFE36:
 406              		.align	2
 407              		.globl	_ZN5mySem7trywaitEv
 409              	_ZN5mySem7trywaitEv:
 410              	.LFB37:
  38:src/mySem.cpp ****     if (val > 0){
 411              		.loc 1 38 22 is_stmt 1
 412              		.cfi_startproc
 413              	.LVL35:
 414 023c 130101FF 		addi	sp,sp,-16
 415              		.cfi_def_cfa_offset 16
 416 0240 23348100 		sd	s0,8(sp)
 417              		.cfi_offset 8, -8
 418 0244 13040101 		addi	s0,sp,16
 419              		.cfi_def_cfa 8, 0
  39:src/mySem.cpp ****         val--;
 420              		.loc 1 39 5
  39:src/mySem.cpp ****         val--;
 421              		.loc 1 39 9 is_stmt 0
 422 0248 83270500 		lw	a5,0(a0)
  39:src/mySem.cpp ****         val--;
 423              		.loc 1 39 5
GAS LISTING /tmp/cci5x6w9.s 			page 13


 424 024c 634AF000 		bgtz	a5,.L39
  43:src/mySem.cpp **** }
 425              		.loc 1 43 12
 426 0250 13050000 		li	a0,0
 427              	.LVL36:
 428              	.L36:
  44:src/mySem.cpp **** 
 429              		.loc 1 44 1
 430 0254 03348100 		ld	s0,8(sp)
 431              		.cfi_remember_state
 432              		.cfi_restore 8
 433 0258 13010101 		addi	sp,sp,16
 434              		.cfi_def_cfa_register 2
 435 025c 67800000 		jr	ra
 436              	.LVL37:
 437              	.L39:
 438              		.cfi_restore_state
  40:src/mySem.cpp ****         return 1;
 439              		.loc 1 40 9 is_stmt 1
  40:src/mySem.cpp ****         return 1;
 440              		.loc 1 40 12 is_stmt 0
 441 0260 9B87F7FF 		addiw	a5,a5,-1
 442 0264 2320F500 		sw	a5,0(a0)
  41:src/mySem.cpp ****     }
 443              		.loc 1 41 9 is_stmt 1
  41:src/mySem.cpp ****     }
 444              		.loc 1 41 16 is_stmt 0
 445 0268 13051000 		li	a0,1
 446              	.LVL38:
 447 026c 6FF09FFE 		j	.L36
 448              		.cfi_endproc
 449              	.LFE37:
 451              		.align	2
 452              		.globl	_ZN5mySem16addToWaitingListEm
 454              	_ZN5mySem16addToWaitingListEm:
 455              	.LFB38:
  46:src/mySem.cpp ****     if(!flagAdded) {
 456              		.loc 1 46 45 is_stmt 1
 457              		.cfi_startproc
 458              	.LVL39:
 459 0270 130101FE 		addi	sp,sp,-32
 460              		.cfi_def_cfa_offset 32
 461 0274 233C1100 		sd	ra,24(sp)
 462 0278 23388100 		sd	s0,16(sp)
 463 027c 23349100 		sd	s1,8(sp)
 464 0280 23302101 		sd	s2,0(sp)
 465              		.cfi_offset 1, -8
 466              		.cfi_offset 8, -16
 467              		.cfi_offset 9, -24
 468              		.cfi_offset 18, -32
 469 0284 13040102 		addi	s0,sp,32
 470              		.cfi_def_cfa 8, 0
 471 0288 13890500 		mv	s2,a1
  47:src/mySem.cpp ****         allTimedSems.addLast(this);
 472              		.loc 1 47 5
  47:src/mySem.cpp ****         allTimedSems.addLast(this);
 473              		.loc 1 47 9 is_stmt 0
GAS LISTING /tmp/cci5x6w9.s 			page 14


 474 028c 83470502 		lbu	a5,32(a0)
  47:src/mySem.cpp ****         allTimedSems.addLast(this);
 475              		.loc 1 47 5
 476 0290 63820708 		beqz	a5,.L47
 477              	.LVL40:
 478              	.L41:
  51:src/mySem.cpp ****     sleepingOnSem.addLast(TCB::running);
 479              		.loc 1 51 5 is_stmt 1
  51:src/mySem.cpp ****     sleepingOnSem.addLast(TCB::running);
 480              		.loc 1 51 19 is_stmt 0
 481 0294 97070000 		lla	a5,_ZN3TCB7runningE
 481      93870700 
 482 029c 83B40700 		ld	s1,0(a5)
  51:src/mySem.cpp ****     sleepingOnSem.addLast(TCB::running);
 483              		.loc 1 51 29
 484 02a0 23AA2403 		sw	s2,52(s1)
  52:src/mySem.cpp **** 
 485              		.loc 1 52 5 is_stmt 1
 486              	.LVL41:
 487              	.LBB54:
 488              	.LBB55:
  80:src/../h/list.hpp ****         elem->data = data;
 489              		.loc 2 80 56 is_stmt 0
 490 02a4 13051000 		li	a0,1
 491 02a8 97000000 		call	_ZN15MemoryAllocator9mem_allocEm
 491      E7800000 
 492              	.LVL42:
  81:src/../h/list.hpp ****         elem->next = 0;
 493              		.loc 2 81 9
 494 02b0 23309500 		sd	s1,0(a0)
  82:src/../h/list.hpp ****         if (tail)
 495              		.loc 2 82 9
 496 02b4 23340500 		sd	zero,8(a0)
  83:src/../h/list.hpp ****         {
 497              		.loc 2 83 13
 498 02b8 97070000 		lla	a5,.LANCHOR0
 498      93870700 
 499 02c0 83B78700 		ld	a5,8(a5)
  83:src/../h/list.hpp ****         {
 500              		.loc 2 83 9
 501 02c4 6382070A 		beqz	a5,.L44
  85:src/../h/list.hpp ****             tail = elem;
 502              		.loc 2 85 13
 503 02c8 23B4A700 		sd	a0,8(a5)
  86:src/../h/list.hpp ****         }
 504              		.loc 2 86 13
 505 02cc 97070000 		sd	a0,.LANCHOR0+8,a5
 505      23B0A700 
 506              	.L45:
 507              	.LVL43:
 508              	.LBE55:
 509              	.LBE54:
  55:src/mySem.cpp ****     TCB::running = Scheduler::get();
 510              		.loc 1 55 5 is_stmt 1
  55:src/mySem.cpp ****     TCB::running = Scheduler::get();
 511              		.loc 1 55 10 is_stmt 0
 512 02d4 97040000 		lla	s1,_ZN3TCB7runningE
GAS LISTING /tmp/cci5x6w9.s 			page 15


 512      93840400 
 513 02dc 03B90400 		ld	s2,0(s1)
 514              	.LVL44:
  56:src/mySem.cpp ****     TCB::contextSwitch(&old->context, &TCB::running->context);
 515              		.loc 1 56 5 is_stmt 1
  56:src/mySem.cpp ****     TCB::contextSwitch(&old->context, &TCB::running->context);
 516              		.loc 1 56 34 is_stmt 0
 517 02e0 97000000 		call	_ZN9Scheduler3getEv
 517      E7800000 
 518              	.LVL45:
  56:src/mySem.cpp ****     TCB::contextSwitch(&old->context, &TCB::running->context);
 519              		.loc 1 56 18
 520 02e8 23B0A400 		sd	a0,0(s1)
  57:src/mySem.cpp **** }
 521              		.loc 1 57 5 is_stmt 1
  57:src/mySem.cpp **** }
 522              		.loc 1 57 23 is_stmt 0
 523 02ec 93058501 		addi	a1,a0,24
 524 02f0 13058901 		addi	a0,s2,24
 525 02f4 97000000 		call	_ZN3TCB13contextSwitchEPNS_7ContextES1_
 525      E7800000 
 526              	.LVL46:
  58:src/mySem.cpp **** 
 527              		.loc 1 58 1
 528 02fc 83308101 		ld	ra,24(sp)
 529              		.cfi_remember_state
 530              		.cfi_restore 1
 531 0300 03340101 		ld	s0,16(sp)
 532              		.cfi_restore 8
 533 0304 83348100 		ld	s1,8(sp)
 534              		.cfi_restore 9
 535 0308 03390100 		ld	s2,0(sp)
 536              		.cfi_restore 18
 537              	.LVL47:
 538 030c 13010102 		addi	sp,sp,32
 539              		.cfi_def_cfa_register 2
 540 0310 67800000 		jr	ra
 541              	.LVL48:
 542              	.L47:
 543              		.cfi_restore_state
 544 0314 93040500 		mv	s1,a0
  48:src/mySem.cpp ****         flagAdded = true;
 545              		.loc 1 48 9 is_stmt 1
 546              	.LVL49:
 547              	.LBB57:
 548              	.LBB58:
  80:src/../h/list.hpp ****         elem->data = data;
 549              		.loc 2 80 56 is_stmt 0
 550 0318 13051000 		li	a0,1
 551              	.LVL50:
 552 031c 97000000 		call	_ZN15MemoryAllocator9mem_allocEm
 552      E7800000 
 553              	.LVL51:
  81:src/../h/list.hpp ****         elem->next = 0;
 554              		.loc 2 81 9
 555 0324 23309500 		sd	s1,0(a0)
  82:src/../h/list.hpp ****         if (tail)
GAS LISTING /tmp/cci5x6w9.s 			page 16


 556              		.loc 2 82 9
 557 0328 23340500 		sd	zero,8(a0)
  83:src/../h/list.hpp ****         {
 558              		.loc 2 83 13
 559 032c 97070000 		lla	a5,.LANCHOR0
 559      93870700 
 560 0334 83B70702 		ld	a5,32(a5)
  83:src/../h/list.hpp ****         {
 561              		.loc 2 83 9
 562 0338 638E0700 		beqz	a5,.L42
  85:src/../h/list.hpp ****             tail = elem;
 563              		.loc 2 85 13
 564 033c 23B4A700 		sd	a0,8(a5)
  86:src/../h/list.hpp ****         }
 565              		.loc 2 86 13
 566 0340 97070000 		sd	a0,.LANCHOR0+32,a5
 566      23B0A700 
 567              	.L43:
 568              	.LVL52:
 569              	.LBE58:
 570              	.LBE57:
  49:src/mySem.cpp ****     }
 571              		.loc 1 49 9 is_stmt 1
  49:src/mySem.cpp ****     }
 572              		.loc 1 49 19 is_stmt 0
 573 0348 93071000 		li	a5,1
 574 034c 2380F402 		sb	a5,32(s1)
 575 0350 6FF05FF4 		j	.L41
 576              	.LVL53:
 577              	.L42:
 578              	.LBB60:
 579              	.LBB59:
  90:src/../h/list.hpp ****         }
 580              		.loc 2 90 13
 581 0354 97070000 		lla	a5,.LANCHOR0
 581      93870700 
 582 035c 23B0A702 		sd	a0,32(a5)
 583 0360 23BCA700 		sd	a0,24(a5)
 584 0364 6FF05FFE 		j	.L43
 585              	.LVL54:
 586              	.L44:
 587              	.LBE59:
 588              	.LBE60:
 589              	.LBB61:
 590              	.LBB56:
 591 0368 97070000 		lla	a5,.LANCHOR0
 591      93870700 
 592 0370 23B4A700 		sd	a0,8(a5)
 593 0374 23B0A700 		sd	a0,0(a5)
 594 0378 6FF0DFF5 		j	.L45
 595              	.LBE56:
 596              	.LBE61:
 597              		.cfi_endproc
 598              	.LFE38:
 600              		.align	2
 601              		.globl	_ZN5mySem16checkWaitingListEv
 603              	_ZN5mySem16checkWaitingListEv:
GAS LISTING /tmp/cci5x6w9.s 			page 17


 604              	.LFB39:
  60:src/mySem.cpp ****     if(sleepingOnSem.setPointer() == 0) {
 605              		.loc 1 60 32 is_stmt 1
 606              		.cfi_startproc
 607              	.LVL55:
  61:src/mySem.cpp ****         while(1){
 608              		.loc 1 61 5
 609              	.LBB79:
 610              	.LBB80:
  32:src/../h/list.hpp ****         pointer = head;
 611              		.loc 2 32 13 is_stmt 0
 612 037c 97070000 		lla	a5,.LANCHOR0
 612      93870700 
 613 0384 83B70700 		ld	a5,0(a5)
  32:src/../h/list.hpp ****         pointer = head;
 614              		.loc 2 32 9
 615 0388 63840716 		beqz	a5,.L65
 616              	.LBE80:
 617              	.LBE79:
  60:src/mySem.cpp ****     if(sleepingOnSem.setPointer() == 0) {
 618              		.loc 1 60 32
 619 038c 130101FE 		addi	sp,sp,-32
 620              		.cfi_def_cfa_offset 32
 621 0390 233C1100 		sd	ra,24(sp)
 622 0394 23388100 		sd	s0,16(sp)
 623 0398 23349100 		sd	s1,8(sp)
 624              		.cfi_offset 1, -8
 625              		.cfi_offset 8, -16
 626              		.cfi_offset 9, -24
 627 039c 13040102 		addi	s0,sp,32
 628              		.cfi_def_cfa 8, 0
 629              	.LBB82:
 630              	.LBB81:
  33:src/../h/list.hpp ****         return 0;
 631              		.loc 2 33 9
 632 03a0 17070000 		sd	a5,.LANCHOR0+16,a4
 632      2330F700 
 633              	.LVL56:
 634 03a8 6F00800D 		j	.L62
 635              	.LVL57:
 636              	.L69:
 637              	.LBE81:
 638              	.LBE82:
 639              	.LBB83:
 640              	.LBB84:
 641              	.LBB85:
 642              	.LBB86:
 643              	.LBB87:
  97:src/../h/list.hpp ****         {
 644              		.loc 2 97 14
 645 03ac 97070000 		lla	a5,.LANCHOR0
 645      93870700 
 646 03b4 03B50700 		ld	a0,0(a5)
  97:src/../h/list.hpp ****         {
 647              		.loc 2 97 9
 648 03b8 630E0508 		beqz	a0,.L54
 649              	.LVL58:
GAS LISTING /tmp/cci5x6w9.s 			page 18


 103:src/../h/list.hpp ****         if (!head)
 650              		.loc 2 103 22
 651 03bc 83378500 		ld	a5,8(a0)
 103:src/../h/list.hpp ****         if (!head)
 652              		.loc 2 103 9
 653 03c0 17070000 		sd	a5,.LANCHOR0,a4
 653      2330F700 
 104:src/../h/list.hpp ****         {
 654              		.loc 2 104 9
 655 03c8 63880700 		beqz	a5,.L68
 656              	.L53:
 657              	.LVL59:
 658              		.loc 2 112 34
 659 03cc 97000000 		call	_ZN15MemoryAllocator8mem_freeEPv
 659      E7800000 
 660              	.LVL60:
 661 03d4 6F000008 		j	.L54
 662              	.LVL61:
 663              	.L68:
 106:src/../h/list.hpp ****         }
 664              		.loc 2 106 13
 665 03d8 97070000 		sd	zero,.LANCHOR0+8,a5
 665      23B00700 
 666 03e0 6FF0DFFE 		j	.L53
 667              	.LVL62:
 668              	.L70:
 669              	.LBE87:
 670              	.LBE86:
 671              	.LBB88:
 672              	.LBB89:
 673              	.LBB90:
 113:src/../h/list.hpp ****         return ret;
 114:src/../h/list.hpp ****     }
 115:src/../h/list.hpp **** 
 116:src/../h/list.hpp ****     T *peekFirst()
 117:src/../h/list.hpp ****     {
 118:src/../h/list.hpp ****         if (!head)
 119:src/../h/list.hpp ****         {
 120:src/../h/list.hpp ****             return 0;
 121:src/../h/list.hpp ****         }
 122:src/../h/list.hpp ****         return head->data;
 123:src/../h/list.hpp ****     }
 124:src/../h/list.hpp **** 
 125:src/../h/list.hpp ****     T *removeLast()
 126:src/../h/list.hpp ****     {
 127:src/../h/list.hpp ****         if (!head)
 674              		.loc 2 127 14
 675 03e4 97070000 		lla	a5,.LANCHOR0
 675      93870700 
 676 03ec 83B70700 		ld	a5,0(a5)
 677              		.loc 2 127 9
 678 03f0 63820706 		beqz	a5,.L54
 128:src/../h/list.hpp ****         {
 129:src/../h/list.hpp ****             return 0;
 130:src/../h/list.hpp ****         }
 131:src/../h/list.hpp **** 
 132:src/../h/list.hpp ****         Elem *prev = 0;
GAS LISTING /tmp/cci5x6w9.s 			page 19


 679              		.loc 2 132 15
 680 03f4 93060000 		li	a3,0
 681              	.L58:
 682              	.LVL63:
 683              	.LBB91:
 133:src/../h/list.hpp ****         for (Elem *curr = head; curr && curr != tail; curr = curr->next)
 684              		.loc 2 133 38
 685 03f8 63800702 		beqz	a5,.L57
 686              		.loc 2 133 49
 687 03fc 17070000 		lla	a4,.LANCHOR0
 687      13070700 
 688 0404 03378700 		ld	a4,8(a4)
 689              		.loc 2 133 38
 690 0408 6388E700 		beq	a5,a4,.L57
 691              	.LVL64:
 134:src/../h/list.hpp ****         {
 135:src/../h/list.hpp ****             prev = curr;
 692              		.loc 2 135 13
 693 040c 93860700 		mv	a3,a5
 133:src/../h/list.hpp ****         for (Elem *curr = head; curr && curr != tail; curr = curr->next)
 694              		.loc 2 133 9
 695 0410 83B78700 		ld	a5,8(a5)
 696              	.LVL65:
 697 0414 6FF05FFE 		j	.L58
 698              	.L57:
 699              	.LBE91:
 136:src/../h/list.hpp ****         }
 137:src/../h/list.hpp **** 
 138:src/../h/list.hpp ****         Elem *elem = tail;
 700              		.loc 2 138 15
 701 0418 97070000 		lla	a5,.LANCHOR0
 701      93870700 
 702              	.LVL66:
 703 0420 03B58700 		ld	a0,8(a5)
 704              	.LVL67:
 139:src/../h/list.hpp ****         if (prev)
 705              		.loc 2 139 9
 706 0424 638E0600 		beqz	a3,.L59
 140:src/../h/list.hpp ****         {
 141:src/../h/list.hpp ****             prev->next = 0;
 707              		.loc 2 141 13
 708 0428 23B40600 		sd	zero,8(a3)
 709              	.L60:
 142:src/../h/list.hpp ****         }
 143:src/../h/list.hpp ****         else
 144:src/../h/list.hpp ****         {
 145:src/../h/list.hpp ****             head = 0;
 146:src/../h/list.hpp ****         }
 147:src/../h/list.hpp ****         tail = prev;
 710              		.loc 2 147 9
 711 042c 97070000 		sd	a3,.LANCHOR0+8,a5
 711      23B0D700 
 712              	.LVL68:
 148:src/../h/list.hpp ****         
 149:src/../h/list.hpp ****       
 150:src/../h/list.hpp ****         T *ret = elem->data;
 151:src/../h/list.hpp ****         // delete elem;
GAS LISTING /tmp/cci5x6w9.s 			page 20


 152:src/../h/list.hpp ****         MemoryAllocator::mem_free(elem);
 713              		.loc 2 152 34
 714 0434 97000000 		call	_ZN15MemoryAllocator8mem_freeEPv
 714      E7800000 
 715              	.LVL69:
 716 043c 6F008001 		j	.L54
 717              	.LVL70:
 718              	.L59:
 145:src/../h/list.hpp ****         }
 719              		.loc 2 145 13
 720 0440 97070000 		sd	zero,.LANCHOR0,a5
 720      23B00700 
 721 0448 6FF05FFE 		j	.L60
 722              	.LVL71:
 723              	.L61:
 724              	.LBE90:
 725              	.LBE89:
 726              	.LBB92:
  55:src/../h/list.hpp ****         }
 727              		.loc 2 55 35
 728 044c 83378700 		ld	a5,8(a4)
 729              	.LVL72:
  55:src/../h/list.hpp ****         }
 730              		.loc 2 55 13
 731 0450 23B4F600 		sd	a5,8(a3)
 732              	.LVL73:
 733              	.L54:
 734              	.LBE92:
 735              	.LBE88:
 736              	.LBE85:
 737              	.LBE84:
  67:src/mySem.cpp ****             }
 738              		.loc 1 67 17 is_stmt 1
  67:src/mySem.cpp ****             }
 739              		.loc 1 67 31 is_stmt 0
 740 0454 13850400 		mv	a0,s1
 741 0458 97000000 		call	_ZN9Scheduler3putEP3TCB
 741      E7800000 
 742              	.LVL74:
 743              	.L50:
  69:src/mySem.cpp ****         }
 744              		.loc 1 69 13 is_stmt 1
 745              	.LBB96:
 746              	.LBB97:
  38:src/../h/list.hpp ****         pointer = pointer->next;
 747              		.loc 2 38 13 is_stmt 0
 748 0460 97070000 		lla	a5,.LANCHOR0
 748      93870700 
 749 0468 83B70701 		ld	a5,16(a5)
  38:src/../h/list.hpp ****         pointer = pointer->next;
 750              		.loc 2 38 9
 751 046c 63880706 		beqz	a5,.L48
  39:src/../h/list.hpp ****         if(!pointer) return -1;
 752              		.loc 2 39 28
 753 0470 83B78700 		ld	a5,8(a5)
  39:src/../h/list.hpp ****         if(!pointer) return -1;
 754              		.loc 2 39 9
GAS LISTING /tmp/cci5x6w9.s 			page 21


 755 0474 17070000 		sd	a5,.LANCHOR0+16,a4
 755      2330F700 
  40:src/../h/list.hpp ****         return 0;
 756              		.loc 2 40 9
 757 047c 63800706 		beqz	a5,.L48
 758              	.LVL75:
 759              	.L62:
 760              	.LBE97:
 761              	.LBE96:
 762              	.LBE83:
  62:src/mySem.cpp ****             TCB* thread = sleepingOnSem.getData();
 763              		.loc 1 62 9 is_stmt 1
 764              	.LBB101:
  63:src/mySem.cpp ****             thread->sleepTime--;
 765              		.loc 1 63 13
 766              	.LBB98:
 767              	.LBB99:
  45:src/../h/list.hpp ****     }
 768              		.loc 2 45 16 is_stmt 0
 769 0480 97070000 		lla	a5,.LANCHOR0
 769      93870700 
 770 0488 83B70701 		ld	a5,16(a5)
  45:src/../h/list.hpp ****     }
 771              		.loc 2 45 25
 772 048c 83B40700 		ld	s1,0(a5)
 773              	.LVL76:
 774              	.LBE99:
 775              	.LBE98:
  64:src/mySem.cpp ****             if(thread->sleepTime == 0){
 776              		.loc 1 64 13 is_stmt 1
  64:src/mySem.cpp ****             if(thread->sleepTime == 0){
 777              		.loc 1 64 21 is_stmt 0
 778 0490 83A74403 		lw	a5,52(s1)
  64:src/mySem.cpp ****             if(thread->sleepTime == 0){
 779              		.loc 1 64 30
 780 0494 9B87F7FF 		addiw	a5,a5,-1
 781 0498 1B870700 		sext.w	a4,a5
 782 049c 23AAF402 		sw	a5,52(s1)
  65:src/mySem.cpp ****                 sleepingOnSem.removeElem();
 783              		.loc 1 65 13 is_stmt 1
 784 04a0 E31007FC 		bnez	a4,.L50
  66:src/mySem.cpp ****                 Scheduler::put(thread);
 785              		.loc 1 66 17
 786              	.LVL77:
 787              	.LBB100:
 788              	.LBB95:
  49:src/../h/list.hpp ****         else if(pointer == tail) removeLast();
 789              		.loc 2 49 12 is_stmt 0
 790 04a4 97070000 		lla	a5,.LANCHOR0
 790      93870700 
 791 04ac 03B70701 		ld	a4,16(a5)
  49:src/../h/list.hpp ****         else if(pointer == tail) removeLast();
 792              		.loc 2 49 23
 793 04b0 83B70700 		ld	a5,0(a5)
  49:src/../h/list.hpp ****         else if(pointer == tail) removeLast();
 794              		.loc 2 49 9
 795 04b4 E30CF7EE 		beq	a4,a5,.L69
GAS LISTING /tmp/cci5x6w9.s 			page 22


 796              	.LBB94:
  50:src/../h/list.hpp ****         else{
 797              		.loc 2 50 28
 798 04b8 97060000 		lla	a3,.LANCHOR0
 798      93860600 
 799 04c0 83B68600 		ld	a3,8(a3)
  50:src/../h/list.hpp ****         else{
 800              		.loc 2 50 14
 801 04c4 E300D7F2 		beq	a4,a3,.L70
 802              	.LBB93:
  52:src/../h/list.hpp ****             Elem* curr = head;
 803              		.loc 2 52 19
 804 04c8 93060000 		li	a3,0
 805              	.L55:
 806              	.LVL78:
  54:src/../h/list.hpp ****             last->next = pointer->next;
 807              		.loc 2 54 24
 808 04cc E300F7F8 		beq	a4,a5,.L61
 809              	.LVL79:
  54:src/../h/list.hpp ****             last->next = pointer->next;
 810              		.loc 2 54 37
 811 04d0 93860700 		mv	a3,a5
  54:src/../h/list.hpp ****             last->next = pointer->next;
 812              		.loc 2 54 50
 813 04d4 83B78700 		ld	a5,8(a5)
 814              	.LVL80:
 815 04d8 6FF05FFF 		j	.L55
 816              	.LVL81:
 817              	.L48:
 818              	.LBE93:
 819              	.LBE94:
 820              	.LBE95:
 821              	.LBE100:
 822              	.LBE101:
  72:src/mySem.cpp **** 
 823              		.loc 1 72 1
 824 04dc 83308101 		ld	ra,24(sp)
 825              		.cfi_restore 1
 826 04e0 03340101 		ld	s0,16(sp)
 827              		.cfi_restore 8
 828 04e4 83348100 		ld	s1,8(sp)
 829              		.cfi_restore 9
 830              	.LVL82:
 831 04e8 13010102 		addi	sp,sp,32
 832              		.cfi_def_cfa_register 2
 833 04ec 67800000 		jr	ra
 834              	.LVL83:
 835              	.L65:
 836 04f0 67800000 		ret
 837              		.cfi_endproc
 838              	.LFE39:
 840              		.align	2
 841              		.globl	_ZN5mySem17checkAllTimedSemsEv
 843              	_ZN5mySem17checkAllTimedSemsEv:
 844              	.LFB40:
  74:src/mySem.cpp ****     if(allTimedSems.setPointer() == 0) {
 845              		.loc 1 74 33 is_stmt 1
GAS LISTING /tmp/cci5x6w9.s 			page 23


 846              		.cfi_startproc
  75:src/mySem.cpp ****         while(1){
 847              		.loc 1 75 5
 848              	.LVL84:
 849              	.LBB102:
 850              	.LBB103:
  32:src/../h/list.hpp ****         pointer = head;
 851              		.loc 2 32 13 is_stmt 0
 852 04f4 97070000 		lla	a5,.LANCHOR0
 852      93870700 
 853 04fc 83B78701 		ld	a5,24(a5)
  32:src/../h/list.hpp ****         pointer = head;
 854              		.loc 2 32 9
 855 0500 6384070A 		beqz	a5,.L76
  33:src/../h/list.hpp ****         return 0;
 856              		.loc 2 33 9
 857 0504 17070000 		sd	a5,.LANCHOR0+40,a4
 857      2330F700 
 858              	.LVL85:
 859 050c 6F004003 		j	.L77
 860              	.LVL86:
 861              	.L71:
 862              		.cfi_def_cfa_register 8
 863              		.cfi_offset 1, -8
 864              		.cfi_offset 8, -16
 865              	.LBE103:
 866              	.LBE102:
 867              		.loc 1 82 1
 868 0510 83308100 		ld	ra,8(sp)
 869              		.cfi_restore 1
 870 0514 03340100 		ld	s0,0(sp)
 871              		.cfi_restore 8
 872 0518 13010101 		addi	sp,sp,16
 873              		.cfi_def_cfa_register 2
 874 051c 67800000 		jr	ra
 875              	.LVL87:
 876              	.L83:
 877              	.LBB104:
  79:src/mySem.cpp ****         }
 878              		.loc 1 79 13 is_stmt 1
 879              	.LBB105:
 880              	.LBB106:
  38:src/../h/list.hpp ****         pointer = pointer->next;
 881              		.loc 2 38 13 is_stmt 0
 882 0520 97070000 		lla	a5,.LANCHOR0
 882      93870700 
 883 0528 83B78702 		ld	a5,40(a5)
  38:src/../h/list.hpp ****         pointer = pointer->next;
 884              		.loc 2 38 9
 885 052c 638E0706 		beqz	a5,.L76
  39:src/../h/list.hpp ****         if(!pointer) return -1;
 886              		.loc 2 39 28
 887 0530 83B78700 		ld	a5,8(a5)
  39:src/../h/list.hpp ****         if(!pointer) return -1;
 888              		.loc 2 39 9
 889 0534 17070000 		sd	a5,.LANCHOR0+40,a4
 889      2330F700 
GAS LISTING /tmp/cci5x6w9.s 			page 24


  40:src/../h/list.hpp ****         return 0;
 890              		.loc 2 40 9
 891 053c 63840706 		beqz	a5,.L82
 892              	.LVL88:
 893              	.L77:
 894              	.LBE106:
 895              	.LBE105:
 896              	.LBE104:
  76:src/mySem.cpp ****             mySem* sem = allTimedSems.getData();
 897              		.loc 1 76 9 is_stmt 1
 898              	.LBB113:
  77:src/mySem.cpp ****             if(sem) sem->checkWaitingList();
 899              		.loc 1 77 13
 900              	.LBB108:
 901              	.LBB109:
  45:src/../h/list.hpp ****     }
 902              		.loc 2 45 16 is_stmt 0
 903 0540 97070000 		lla	a5,.LANCHOR0
 903      93870700 
 904 0548 83B78702 		ld	a5,40(a5)
  45:src/../h/list.hpp ****     }
 905              		.loc 2 45 25
 906 054c 03B50700 		ld	a0,0(a5)
 907              	.LVL89:
 908              	.LBE109:
 909              	.LBE108:
  78:src/mySem.cpp ****             if(allTimedSems.movePointer() == -1) break;
 910              		.loc 1 78 13 is_stmt 1
 911 0550 E30805FC 		beqz	a0,.L83
 912              	.LBE113:
  74:src/mySem.cpp ****     if(allTimedSems.setPointer() == 0) {
 913              		.loc 1 74 33 is_stmt 0
 914 0554 130101FF 		addi	sp,sp,-16
 915              		.cfi_def_cfa_offset 16
 916 0558 23341100 		sd	ra,8(sp)
 917 055c 23308100 		sd	s0,0(sp)
 918              		.cfi_offset 1, -8
 919              		.cfi_offset 8, -16
 920 0560 13040101 		addi	s0,sp,16
 921              		.cfi_def_cfa 8, 0
 922              	.L78:
 923              	.LBB114:
  78:src/mySem.cpp ****             if(allTimedSems.movePointer() == -1) break;
 924              		.loc 1 78 21 is_stmt 1 discriminator 1
  78:src/mySem.cpp ****             if(allTimedSems.movePointer() == -1) break;
 925              		.loc 1 78 42 is_stmt 0 discriminator 1
 926 0564 97000000 		call	_ZN5mySem16checkWaitingListEv
 926      E7800000 
 927              	.LVL90:
 928              	.L73:
  79:src/mySem.cpp ****         }
 929              		.loc 1 79 13 is_stmt 1
 930              	.LBB111:
 931              	.LBB107:
  38:src/../h/list.hpp ****         pointer = pointer->next;
 932              		.loc 2 38 13 is_stmt 0
 933 056c 97070000 		lla	a5,.LANCHOR0
GAS LISTING /tmp/cci5x6w9.s 			page 25


 933      93870700 
 934 0574 83B78702 		ld	a5,40(a5)
  38:src/../h/list.hpp ****         pointer = pointer->next;
 935              		.loc 2 38 9
 936 0578 E38C07F8 		beqz	a5,.L71
  39:src/../h/list.hpp ****         if(!pointer) return -1;
 937              		.loc 2 39 28
 938 057c 83B78700 		ld	a5,8(a5)
  39:src/../h/list.hpp ****         if(!pointer) return -1;
 939              		.loc 2 39 9
 940 0580 17070000 		sd	a5,.LANCHOR0+40,a4
 940      2330F700 
  40:src/../h/list.hpp ****         return 0;
 941              		.loc 2 40 9
 942 0588 E38407F8 		beqz	a5,.L71
 943              	.LBE107:
 944              	.LBE111:
 945              	.LBE114:
  76:src/mySem.cpp ****             mySem* sem = allTimedSems.getData();
 946              		.loc 1 76 9 is_stmt 1
 947              	.LBB115:
  77:src/mySem.cpp ****             if(sem) sem->checkWaitingList();
 948              		.loc 1 77 13
 949              	.LVL91:
 950              	.LBB112:
 951              	.LBB110:
  45:src/../h/list.hpp ****     }
 952              		.loc 2 45 16 is_stmt 0
 953 058c 97070000 		lla	a5,.LANCHOR0
 953      93870700 
 954 0594 83B78702 		ld	a5,40(a5)
  45:src/../h/list.hpp ****     }
 955              		.loc 2 45 25
 956 0598 03B50700 		ld	a0,0(a5)
 957              	.LVL92:
 958              	.LBE110:
 959              	.LBE112:
  78:src/mySem.cpp ****             if(allTimedSems.movePointer() == -1) break;
 960              		.loc 1 78 13 is_stmt 1
 961 059c E31405FC 		bnez	a0,.L78
 962 05a0 6FF0DFFC 		j	.L73
 963              	.L82:
 964              		.cfi_def_cfa_register 2
 965              		.cfi_restore 1
 966              		.cfi_restore 8
 967 05a4 67800000 		ret
 968              	.LVL93:
 969              	.L76:
 970 05a8 67800000 		ret
 971              	.LBE115:
 972              		.cfi_endproc
 973              	.LFE40:
 975              		.align	2
 977              	_GLOBAL__sub_I__ZN5mySem13sleepingOnSemE:
 978              	.LFB59:
 979              		.loc 1 82 1
 980              		.cfi_startproc
GAS LISTING /tmp/cci5x6w9.s 			page 26


 981 05ac 130101FF 		addi	sp,sp,-16
 982              		.cfi_def_cfa_offset 16
 983 05b0 23341100 		sd	ra,8(sp)
 984 05b4 23308100 		sd	s0,0(sp)
 985              		.cfi_offset 1, -8
 986              		.cfi_offset 8, -16
 987 05b8 13040101 		addi	s0,sp,16
 988              		.cfi_def_cfa 8, 0
 989              		.loc 1 82 1 is_stmt 0
 990 05bc B7050100 		li	a1,65536
 991 05c0 9385F5FF 		addi	a1,a1,-1
 992 05c4 13051000 		li	a0,1
 993 05c8 97000000 		call	_Z41__static_initialization_and_destruction_0ii
 993      E7800000 
 994              	.LVL94:
 995 05d0 83308100 		ld	ra,8(sp)
 996              		.cfi_restore 1
 997 05d4 03340100 		ld	s0,0(sp)
 998              		.cfi_restore 8
 999 05d8 13010101 		addi	sp,sp,16
 1000              		.cfi_def_cfa_register 2
 1001 05dc 67800000 		jr	ra
 1002              		.cfi_endproc
 1003              	.LFE59:
 1005              		.section	.init_array,"aw"
 1006              		.align	3
 1007 0000 00000000 		.dword	_GLOBAL__sub_I__ZN5mySem13sleepingOnSemE
 1007      00000000 
 1008              		.globl	_ZN5mySem12allTimedSemsE
 1009              		.globl	_ZN5mySem13sleepingOnSemE
 1010              		.bss
 1011              		.align	3
 1012              		.set	.LANCHOR0,. + 0
 1015              	_ZN5mySem13sleepingOnSemE:
 1016 0000 00000000 		.zero	24
 1016      00000000 
 1016      00000000 
 1016      00000000 
 1016      00000000 
 1019              	_ZN5mySem12allTimedSemsE:
 1020 0018 00000000 		.zero	24
 1020      00000000 
 1020      00000000 
 1020      00000000 
 1020      00000000 
 1021              		.text
 1022              	.Letext0:
 1023              		.file 3 "src/../h/../lib/hw.h"
 1024              		.file 4 "src/../h/../h/MemoryAllocator.hpp"
 1025              		.file 5 "src/../h/scheduler.hpp"
 1026              		.file 6 "src/../h/tcb.hpp"
 1027              		.file 7 "src/../h/mySem.hpp"
GAS LISTING /tmp/cci5x6w9.s 			page 27

