GAS LISTING /tmp/cc03iNHQ.s 			page 1


   1              		.file	"scheduler.cpp"
   2              		.option nopic
   3              		.option norelax
   4              		.text
   5              	.Ltext0:
   6              		.align	2
   8              	_Z41__static_initialization_and_destruction_0ii:
   9              	.LFB19:
  10              		.file 1 "src/scheduler.cpp"
   1:src/scheduler.cpp **** #include "../h/scheduler.hpp"
   2:src/scheduler.cpp **** 
   3:src/scheduler.cpp **** List<TCB> Scheduler::readyThreadQueue;
   4:src/scheduler.cpp **** 
   5:src/scheduler.cpp **** TCB *Scheduler::get()
   6:src/scheduler.cpp **** {
   7:src/scheduler.cpp ****     return readyThreadQueue.removeFirst();
   8:src/scheduler.cpp **** }
   9:src/scheduler.cpp **** 
  10:src/scheduler.cpp **** void Scheduler::put(TCB *ccb)
  11:src/scheduler.cpp **** {
  12:src/scheduler.cpp ****     readyThreadQueue.addLast(ccb);
  13:src/scheduler.cpp **** }
  11              		.loc 1 13 1
  12              		.cfi_startproc
  13              	.LVL0:
  14 0000 130101FF 		addi	sp,sp,-16
  15              		.cfi_def_cfa_offset 16
  16 0004 23348100 		sd	s0,8(sp)
  17              		.cfi_offset 8, -8
  18 0008 13040101 		addi	s0,sp,16
  19              		.cfi_def_cfa 8, 0
  20              		.loc 1 13 1 is_stmt 0
  21 000c 93071000 		li	a5,1
  22 0010 6308F500 		beq	a0,a5,.L4
  23              	.L1:
  24 0014 03348100 		ld	s0,8(sp)
  25              		.cfi_remember_state
  26              		.cfi_restore 8
  27 0018 13010101 		addi	sp,sp,16
  28              		.cfi_def_cfa_register 2
  29 001c 67800000 		jr	ra
  30              	.L4:
  31              		.cfi_restore_state
  32              		.loc 1 13 1 discriminator 1
  33 0020 B7070100 		li	a5,65536
  34 0024 9387F7FF 		addi	a5,a5,-1
  35 0028 E396F5FE 		bne	a1,a5,.L1
  36              	.LVL1:
  37              	.LBB9:
  38              	.LBB10:
  39              	.LBB11:
  40              		.file 2 "src/../h/list.hpp"
   1:src/../h/list.hpp **** #ifndef OS1_VEZBE07_RISCV_CONTEXT_SWITCH_2_INTERRUPT_LIST_HPP
   2:src/../h/list.hpp **** #define OS1_VEZBE07_RISCV_CONTEXT_SWITCH_2_INTERRUPT_LIST_HPP
   3:src/../h/list.hpp **** 
   4:src/../h/list.hpp **** #include "../h/MemoryAllocator.hpp"
   5:src/../h/list.hpp **** 
GAS LISTING /tmp/cc03iNHQ.s 			page 2


   6:src/../h/list.hpp **** 
   7:src/../h/list.hpp **** template <typename T>
   8:src/../h/list.hpp **** class List
   9:src/../h/list.hpp **** {
  10:src/../h/list.hpp **** private:
  11:src/../h/list.hpp ****     struct Elem
  12:src/../h/list.hpp ****     {
  13:src/../h/list.hpp ****         T *data;
  14:src/../h/list.hpp ****         Elem *next;
  15:src/../h/list.hpp **** 
  16:src/../h/list.hpp ****         Elem(T *data, Elem *next) : data(data), next(next) {}
  17:src/../h/list.hpp ****     };
  18:src/../h/list.hpp **** 
  19:src/../h/list.hpp ****     Elem *head, *tail;
  20:src/../h/list.hpp ****     
  21:src/../h/list.hpp ****     Elem* pointer;
  22:src/../h/list.hpp ****     
  23:src/../h/list.hpp **** public:
  24:src/../h/list.hpp ****     List() : head(0), tail(0), pointer(0) {}
  41              		.loc 2 24 41
  42 002c 97070000 		lla	a5,.LANCHOR0
  42      93870700 
  43 0034 23B00700 		sd	zero,0(a5)
  44 0038 23B40700 		sd	zero,8(a5)
  45 003c 23B80700 		sd	zero,16(a5)
  46              	.LBE11:
  47              	.LBE10:
  48              	.LBE9:
  49              		.loc 1 13 1
  50 0040 6FF05FFD 		j	.L1
  51              		.cfi_endproc
  52              	.LFE19:
  54              		.align	2
  55              		.globl	_ZN9Scheduler3getEv
  57              	_ZN9Scheduler3getEv:
  58              	.LFB12:
   6:src/scheduler.cpp ****     return readyThreadQueue.removeFirst();
  59              		.loc 1 6 1 is_stmt 1
  60              		.cfi_startproc
  61 0044 130101FE 		addi	sp,sp,-32
  62              		.cfi_def_cfa_offset 32
  63 0048 233C1100 		sd	ra,24(sp)
  64 004c 23388100 		sd	s0,16(sp)
  65 0050 23349100 		sd	s1,8(sp)
  66              		.cfi_offset 1, -8
  67              		.cfi_offset 8, -16
  68              		.cfi_offset 9, -24
  69 0054 13040102 		addi	s0,sp,32
  70              		.cfi_def_cfa 8, 0
   7:src/scheduler.cpp **** }
  71              		.loc 1 7 5
  72              	.LVL2:
  73              	.LBB12:
  74              	.LBB13:
  25:src/../h/list.hpp **** 
  26:src/../h/list.hpp ****     List(const List<T> &) = delete;
  27:src/../h/list.hpp **** 
GAS LISTING /tmp/cc03iNHQ.s 			page 3


  28:src/../h/list.hpp ****     List<T> &operator=(const List<T> &) = delete;
  29:src/../h/list.hpp **** 
  30:src/../h/list.hpp ****  
  31:src/../h/list.hpp ****     int setPointer(){
  32:src/../h/list.hpp ****         if(!head) return -1;
  33:src/../h/list.hpp ****         pointer = head;
  34:src/../h/list.hpp ****         return 0;
  35:src/../h/list.hpp ****     } 
  36:src/../h/list.hpp **** 
  37:src/../h/list.hpp ****     int movePointer(){
  38:src/../h/list.hpp ****         if(!pointer) return -1;
  39:src/../h/list.hpp ****         pointer = pointer->next;
  40:src/../h/list.hpp ****         if(!pointer) return -1;
  41:src/../h/list.hpp ****         return 0;
  42:src/../h/list.hpp ****     }
  43:src/../h/list.hpp **** 
  44:src/../h/list.hpp ****     T* getData(){
  45:src/../h/list.hpp ****         return pointer->data;
  46:src/../h/list.hpp ****     }
  47:src/../h/list.hpp **** 
  48:src/../h/list.hpp ****     T* removeElem(){
  49:src/../h/list.hpp ****         if(pointer == head) removeFirst();
  50:src/../h/list.hpp ****         else if(pointer == tail) removeLast();
  51:src/../h/list.hpp ****         else{
  52:src/../h/list.hpp ****             Elem* last = nullptr;
  53:src/../h/list.hpp ****             Elem* curr = head;
  54:src/../h/list.hpp ****             while(curr != pointer){ last = curr; curr = curr->next; }
  55:src/../h/list.hpp ****             last->next = pointer->next;
  56:src/../h/list.hpp ****         }
  57:src/../h/list.hpp **** 
  58:src/../h/list.hpp ****         return pointer->data;
  59:src/../h/list.hpp ****     }
  60:src/../h/list.hpp ****     void addFirst(T *data)
  61:src/../h/list.hpp ****     {
  62:src/../h/list.hpp ****         // Elem *elem = new Elem(data, head);
  63:src/../h/list.hpp ****         size_t size = sizeof(Elem);
  64:src/../h/list.hpp ****         size_t numBlocks = (size % MEM_BLOCK_SIZE == 0) ? size / MEM_BLOCK_SIZE : size / MEM_BLOCK_
  65:src/../h/list.hpp ****         Elem *elem = (Elem *)MemoryAllocator::mem_alloc(numBlocks);
  66:src/../h/list.hpp ****         elem->data = data;
  67:src/../h/list.hpp ****         elem->next = head;
  68:src/../h/list.hpp ****         head = elem;
  69:src/../h/list.hpp ****         if (!tail)
  70:src/../h/list.hpp ****         {
  71:src/../h/list.hpp ****             tail = head;
  72:src/../h/list.hpp ****         }
  73:src/../h/list.hpp ****     }
  74:src/../h/list.hpp **** 
  75:src/../h/list.hpp ****     void addLast(T *data)
  76:src/../h/list.hpp ****     {
  77:src/../h/list.hpp ****         // Elem *elem = new Elem(data, 0);
  78:src/../h/list.hpp ****         size_t size = sizeof(Elem);
  79:src/../h/list.hpp ****         size_t numBlocks = (size % MEM_BLOCK_SIZE == 0) ? size / MEM_BLOCK_SIZE : size / MEM_BLOCK_
  80:src/../h/list.hpp ****         Elem *elem = (Elem *)MemoryAllocator::mem_alloc(numBlocks);
  81:src/../h/list.hpp ****         elem->data = data;
  82:src/../h/list.hpp ****         elem->next = 0;
  83:src/../h/list.hpp ****         if (tail)
  84:src/../h/list.hpp ****         {
GAS LISTING /tmp/cc03iNHQ.s 			page 4


  85:src/../h/list.hpp ****             tail->next = elem;
  86:src/../h/list.hpp ****             tail = elem;
  87:src/../h/list.hpp ****         }
  88:src/../h/list.hpp ****         else
  89:src/../h/list.hpp ****         {
  90:src/../h/list.hpp ****             head = tail = elem;
  91:src/../h/list.hpp ****         }
  92:src/../h/list.hpp ****         
  93:src/../h/list.hpp ****     }
  94:src/../h/list.hpp **** 
  95:src/../h/list.hpp ****     T *removeFirst()
  96:src/../h/list.hpp ****     {
  97:src/../h/list.hpp ****         if (!head)
  75              		.loc 2 97 14 is_stmt 0
  76 0058 97070000 		lla	a5,.LANCHOR0
  76      93870700 
  77 0060 03B50700 		ld	a0,0(a5)
  78              		.loc 2 97 9
  79 0064 63020504 		beqz	a0,.L8
  80              	.LVL3:
  98:src/../h/list.hpp ****         {
  99:src/../h/list.hpp ****             return 0;
 100:src/../h/list.hpp ****         }
 101:src/../h/list.hpp **** 
 102:src/../h/list.hpp ****         Elem *elem = head;
 103:src/../h/list.hpp ****         head = head->next;
  81              		.loc 2 103 22
  82 0068 83378500 		ld	a5,8(a0)
  83              		.loc 2 103 9
  84 006c 17070000 		sd	a5,.LANCHOR0,a4
  84      2330F700 
 104:src/../h/list.hpp ****         if (!head)
  85              		.loc 2 104 9
  86 0074 63840702 		beqz	a5,.L10
  87              	.L7:
 105:src/../h/list.hpp ****         {
 106:src/../h/list.hpp ****             tail = 0;
 107:src/../h/list.hpp ****         }
 108:src/../h/list.hpp **** 
 109:src/../h/list.hpp **** 
 110:src/../h/list.hpp ****         T *ret = elem->data;
  88              		.loc 2 110 12
  89 0078 83340500 		ld	s1,0(a0)
  90              	.LVL4:
 111:src/../h/list.hpp ****         // delete elem;
 112:src/../h/list.hpp ****         MemoryAllocator::mem_free(elem);
  91              		.loc 2 112 34
  92 007c 97000000 		call	_ZN15MemoryAllocator8mem_freeEPv
  92      E7800000 
  93              	.LVL5:
  94              	.L5:
  95              	.LBE13:
  96              	.LBE12:
   8:src/scheduler.cpp **** 
  97              		.loc 1 8 1
  98 0084 13850400 		mv	a0,s1
  99 0088 83308101 		ld	ra,24(sp)
GAS LISTING /tmp/cc03iNHQ.s 			page 5


 100              		.cfi_remember_state
 101              		.cfi_restore 1
 102 008c 03340101 		ld	s0,16(sp)
 103              		.cfi_restore 8
 104 0090 83348100 		ld	s1,8(sp)
 105              		.cfi_restore 9
 106 0094 13010102 		addi	sp,sp,32
 107              		.cfi_def_cfa_register 2
 108 0098 67800000 		jr	ra
 109              	.LVL6:
 110              	.L10:
 111              		.cfi_restore_state
 112              	.LBB15:
 113              	.LBB14:
 106:src/../h/list.hpp ****         }
 114              		.loc 2 106 13
 115 009c 97070000 		sd	zero,.LANCHOR0+8,a5
 115      23B00700 
 116 00a4 6FF05FFD 		j	.L7
 117              	.LVL7:
 118              	.L8:
  99:src/../h/list.hpp ****         }
 119              		.loc 2 99 20
 120 00a8 93040500 		mv	s1,a0
 121              	.LVL8:
 122              	.LBE14:
 123              	.LBE15:
   7:src/scheduler.cpp **** }
 124              		.loc 1 7 41
 125 00ac 6FF09FFD 		j	.L5
 126              		.cfi_endproc
 127              	.LFE12:
 129              		.align	2
 130              		.globl	_ZN9Scheduler3putEP3TCB
 132              	_ZN9Scheduler3putEP3TCB:
 133              	.LFB13:
  11:src/scheduler.cpp ****     readyThreadQueue.addLast(ccb);
 134              		.loc 1 11 1 is_stmt 1
 135              		.cfi_startproc
 136              	.LVL9:
 137 00b0 130101FE 		addi	sp,sp,-32
 138              		.cfi_def_cfa_offset 32
 139 00b4 233C1100 		sd	ra,24(sp)
 140 00b8 23388100 		sd	s0,16(sp)
 141 00bc 23349100 		sd	s1,8(sp)
 142              		.cfi_offset 1, -8
 143              		.cfi_offset 8, -16
 144              		.cfi_offset 9, -24
 145 00c0 13040102 		addi	s0,sp,32
 146              		.cfi_def_cfa 8, 0
 147 00c4 93040500 		mv	s1,a0
  12:src/scheduler.cpp **** }
 148              		.loc 1 12 5
 149              	.LVL10:
 150              	.LBB16:
 151              	.LBB17:
  80:src/../h/list.hpp ****         elem->data = data;
GAS LISTING /tmp/cc03iNHQ.s 			page 6


 152              		.loc 2 80 56 is_stmt 0
 153 00c8 13051000 		li	a0,1
 154              	.LVL11:
 155 00cc 97000000 		call	_ZN15MemoryAllocator9mem_allocEm
 155      E7800000 
 156              	.LVL12:
  81:src/../h/list.hpp ****         elem->next = 0;
 157              		.loc 2 81 9
 158 00d4 23309500 		sd	s1,0(a0)
  82:src/../h/list.hpp ****         if (tail)
 159              		.loc 2 82 9
 160 00d8 23340500 		sd	zero,8(a0)
  83:src/../h/list.hpp ****         {
 161              		.loc 2 83 13
 162 00dc 97070000 		lla	a5,.LANCHOR0
 162      93870700 
 163 00e4 83B78700 		ld	a5,8(a5)
  83:src/../h/list.hpp ****         {
 164              		.loc 2 83 9
 165 00e8 63820702 		beqz	a5,.L12
  85:src/../h/list.hpp ****             tail = elem;
 166              		.loc 2 85 13
 167 00ec 23B4A700 		sd	a0,8(a5)
  86:src/../h/list.hpp ****         }
 168              		.loc 2 86 13
 169 00f0 97070000 		sd	a0,.LANCHOR0+8,a5
 169      23B0A700 
 170              	.LVL13:
 171              	.L11:
 172              	.LBE17:
 173              	.LBE16:
 174              		.loc 1 13 1
 175 00f8 83308101 		ld	ra,24(sp)
 176              		.cfi_remember_state
 177              		.cfi_restore 1
 178 00fc 03340101 		ld	s0,16(sp)
 179              		.cfi_restore 8
 180 0100 83348100 		ld	s1,8(sp)
 181              		.cfi_restore 9
 182              	.LVL14:
 183 0104 13010102 		addi	sp,sp,32
 184              		.cfi_def_cfa_register 2
 185 0108 67800000 		jr	ra
 186              	.LVL15:
 187              	.L12:
 188              		.cfi_restore_state
 189              	.LBB19:
 190              	.LBB18:
  90:src/../h/list.hpp ****         }
 191              		.loc 2 90 13
 192 010c 97070000 		lla	a5,.LANCHOR0
 192      93870700 
 193 0114 23B4A700 		sd	a0,8(a5)
 194 0118 23B0A700 		sd	a0,0(a5)
 195              	.LVL16:
 196              	.LBE18:
 197              	.LBE19:
GAS LISTING /tmp/cc03iNHQ.s 			page 7


 198              		.loc 1 13 1
 199 011c 6FF0DFFD 		j	.L11
 200              		.cfi_endproc
 201              	.LFE13:
 203              		.align	2
 205              	_GLOBAL__sub_I__ZN9Scheduler16readyThreadQueueE:
 206              	.LFB20:
 207              		.loc 1 13 1 is_stmt 1
 208              		.cfi_startproc
 209 0120 130101FF 		addi	sp,sp,-16
 210              		.cfi_def_cfa_offset 16
 211 0124 23341100 		sd	ra,8(sp)
 212 0128 23308100 		sd	s0,0(sp)
 213              		.cfi_offset 1, -8
 214              		.cfi_offset 8, -16
 215 012c 13040101 		addi	s0,sp,16
 216              		.cfi_def_cfa 8, 0
 217              		.loc 1 13 1 is_stmt 0
 218 0130 B7050100 		li	a1,65536
 219 0134 9385F5FF 		addi	a1,a1,-1
 220 0138 13051000 		li	a0,1
 221 013c 97000000 		call	_Z41__static_initialization_and_destruction_0ii
 221      E7800000 
 222              	.LVL17:
 223 0144 83308100 		ld	ra,8(sp)
 224              		.cfi_restore 1
 225 0148 03340100 		ld	s0,0(sp)
 226              		.cfi_restore 8
 227 014c 13010101 		addi	sp,sp,16
 228              		.cfi_def_cfa_register 2
 229 0150 67800000 		jr	ra
 230              		.cfi_endproc
 231              	.LFE20:
 233              		.section	.init_array,"aw"
 234              		.align	3
 235 0000 00000000 		.dword	_GLOBAL__sub_I__ZN9Scheduler16readyThreadQueueE
 235      00000000 
 236              		.globl	_ZN9Scheduler16readyThreadQueueE
 237              		.bss
 238              		.align	3
 239              		.set	.LANCHOR0,. + 0
 242              	_ZN9Scheduler16readyThreadQueueE:
 243 0000 00000000 		.zero	24
 243      00000000 
 243      00000000 
 243      00000000 
 243      00000000 
 244              		.text
 245              	.Letext0:
 246              		.file 3 "src/../h/../h/../lib/hw.h"
 247              		.file 4 "src/../h/../h/MemoryAllocator.hpp"
 248              		.file 5 "src/../h/scheduler.hpp"
GAS LISTING /tmp/cc03iNHQ.s 			page 8

