GAS LISTING /tmp/cchq5Upx.s 			page 1


   1              		.file	"syscall_c.cpp"
   2              		.option nopic
   3              		.option norelax
   4              		.text
   5              	.Ltext0:
   6              		.align	2
   7              		.globl	_Z9mem_allocm
   9              	_Z9mem_allocm:
  10              	.LFB32:
  11              		.file 1 "src/syscall_c.cpp"
   1:src/syscall_c.cpp **** #include "../lib/hw.h"
   2:src/syscall_c.cpp **** #include "../h/syscall_c.hpp"
   3:src/syscall_c.cpp **** #include "../h/operation_codes.hpp"
   4:src/syscall_c.cpp **** 
   5:src/syscall_c.cpp **** void *mem_alloc(size_t size)
   6:src/syscall_c.cpp **** {
  12              		.loc 1 6 1
  13              		.cfi_startproc
  14              	.LVL0:
   7:src/syscall_c.cpp ****     if (!size)
  15              		.loc 1 7 5
  16 0000 63080504 		beqz	a0,.L5
   6:src/syscall_c.cpp ****     if (!size)
  17              		.loc 1 6 1 is_stmt 0
  18 0004 130101FE 		addi	sp,sp,-32
  19              		.cfi_def_cfa_offset 32
  20 0008 233C8100 		sd	s0,24(sp)
  21              		.cfi_offset 8, -8
  22 000c 13040102 		addi	s0,sp,32
  23              		.cfi_def_cfa 8, 0
   8:src/syscall_c.cpp ****         return nullptr;
   9:src/syscall_c.cpp ****     size_t numBlocks = (size % MEM_BLOCK_SIZE == 0) ? size / MEM_BLOCK_SIZE : size / MEM_BLOCK_SIZE
  24              		.loc 1 9 5 is_stmt 1
  25              		.loc 1 9 30 is_stmt 0
  26 0010 9377F503 		andi	a5,a0,63
  27              		.loc 1 9 53
  28 0014 63980702 		bnez	a5,.L3
  29              		.loc 1 9 53 discriminator 1
  30 0018 13556500 		srli	a0,a0,6
  31              	.LVL1:
  32              	.L4:
  10:src/syscall_c.cpp ****     __asm__ volatile("mv a2, %0" : : "r"(numBlocks));
  33              		.loc 1 10 5 is_stmt 1 discriminator 4
  34              		.loc 1 10 53 is_stmt 0 discriminator 4
  35              	#APP
  36              	# 10 "src/syscall_c.cpp" 1
  11              	    __asm__ volatile("mv a0, %0" : : "r"(MEM_ALLOC));
  37              		mv a2, a0
  38              	# 0 "" 2
  39              		.loc 1 11 5 is_stmt 1 discriminator 4
  40              		.loc 1 11 53 is_stmt 0 discriminator 4
  41              	#NO_APP
  42 0020 93071000 		li	a5,1
  43              	#APP
  44              	# 11 "src/syscall_c.cpp" 1
  12              	    __asm__ volatile("ecall");
  45              		mv a0, a5
GAS LISTING /tmp/cchq5Upx.s 			page 2


  46              	# 0 "" 2
  47              		.loc 1 12 5 is_stmt 1 discriminator 4
  48              		.loc 1 12 30 is_stmt 0 discriminator 4
  49              	# 12 "src/syscall_c.cpp" 1
  13              	
  14:src/syscall_c.cpp ****     volatile uint64 retaddr;
  50              		ecall
  51              	# 0 "" 2
  52              		.loc 1 14 5 is_stmt 1 discriminator 4
  15:src/syscall_c.cpp ****     __asm__ volatile("mv %0, a0" : "=r"(retaddr));
  53              		.loc 1 15 5 discriminator 4
  54              		.loc 1 15 50 is_stmt 0 discriminator 4
  55              	# 15 "src/syscall_c.cpp" 1
  16              	    return (void *)retaddr;
  56              		mv a5, a0
  57              	# 0 "" 2
  58              	#NO_APP
  59 0030 2334F4FE 		sd	a5,-24(s0)
  60              		.loc 1 16 5 is_stmt 1 discriminator 4
  61              		.loc 1 16 20 is_stmt 0 discriminator 4
  62 0034 033584FE 		ld	a0,-24(s0)
  63              	.LVL2:
  17:src/syscall_c.cpp **** }
  64              		.loc 1 17 1 discriminator 4
  65 0038 03348101 		ld	s0,24(sp)
  66              		.cfi_remember_state
  67              		.cfi_restore 8
  68 003c 13010102 		addi	sp,sp,32
  69              		.cfi_def_cfa_register 2
  70 0040 67800000 		jr	ra
  71              	.LVL3:
  72              	.L3:
  73              		.cfi_restore_state
   9:src/syscall_c.cpp ****     __asm__ volatile("mv a2, %0" : : "r"(numBlocks));
  74              		.loc 1 9 84 discriminator 2
  75 0044 13556500 		srli	a0,a0,6
  76              	.LVL4:
   9:src/syscall_c.cpp ****     __asm__ volatile("mv a2, %0" : : "r"(numBlocks));
  77              		.loc 1 9 53 discriminator 2
  78 0048 13051500 		addi	a0,a0,1
  79 004c 6FF01FFD 		j	.L4
  80              	.LVL5:
  81              	.L5:
  82              		.cfi_def_cfa_register 2
  83              		.cfi_restore 8
   8:src/syscall_c.cpp ****     size_t numBlocks = (size % MEM_BLOCK_SIZE == 0) ? size / MEM_BLOCK_SIZE : size / MEM_BLOCK_SIZE
  84              		.loc 1 8 16
  85 0050 13050000 		li	a0,0
  86              	.LVL6:
  87              		.loc 1 17 1
  88 0054 67800000 		ret
  89              		.cfi_endproc
  90              	.LFE32:
  92              		.align	2
  93              		.globl	_Z8mem_freePv
  95              	_Z8mem_freePv:
  96              	.LFB33:
GAS LISTING /tmp/cchq5Upx.s 			page 3


  18:src/syscall_c.cpp **** 
  19:src/syscall_c.cpp **** int mem_free(void *addr)
  20:src/syscall_c.cpp **** {
  97              		.loc 1 20 1 is_stmt 1
  98              		.cfi_startproc
  99              	.LVL7:
  21:src/syscall_c.cpp ****     if (!addr)
 100              		.loc 1 21 5
 101 0058 630E0502 		beqz	a0,.L12
  20:src/syscall_c.cpp ****     if (!addr)
 102              		.loc 1 20 1 is_stmt 0
 103 005c 130101FE 		addi	sp,sp,-32
 104              		.cfi_def_cfa_offset 32
 105 0060 233C8100 		sd	s0,24(sp)
 106              		.cfi_offset 8, -8
 107 0064 13040102 		addi	s0,sp,32
 108              		.cfi_def_cfa 8, 0
  22:src/syscall_c.cpp ****         return -1;
  23:src/syscall_c.cpp ****     __asm__ volatile("mv a2, %0" : : "r"(addr));
 109              		.loc 1 23 5 is_stmt 1
 110              		.loc 1 23 48 is_stmt 0
 111              	#APP
 112              	# 23 "src/syscall_c.cpp" 1
  24              	    __asm__ volatile("mv a0, %0" : : "r"(MEM_FREE));
 113              		mv a2, a0
 114              	# 0 "" 2
 115              		.loc 1 24 5 is_stmt 1
 116              		.loc 1 24 52 is_stmt 0
 117              	#NO_APP
 118 006c 93072000 		li	a5,2
 119              	#APP
 120              	# 24 "src/syscall_c.cpp" 1
  25              	    __asm__ volatile("ecall");
 121              		mv a0, a5
 122              	# 0 "" 2
 123              		.loc 1 25 5 is_stmt 1
 124              		.loc 1 25 30 is_stmt 0
 125              	# 25 "src/syscall_c.cpp" 1
  26              	
  27:src/syscall_c.cpp ****     volatile int status;
 126              		ecall
 127              	# 0 "" 2
 128              		.loc 1 27 5 is_stmt 1
  28:src/syscall_c.cpp ****     __asm__ volatile("mv %0, a0" : "=r"(status));
 129              		.loc 1 28 5
 130              		.loc 1 28 49 is_stmt 0
 131              	# 28 "src/syscall_c.cpp" 1
  29              	    return status;
 132              		mv a5, a0
 133              	# 0 "" 2
 134              	#NO_APP
 135 007c 2326F4FE 		sw	a5,-20(s0)
 136              		.loc 1 29 5 is_stmt 1
 137              		.loc 1 29 12 is_stmt 0
 138 0080 0325C4FE 		lw	a0,-20(s0)
 139              	.LVL8:
 140 0084 1B050500 		sext.w	a0,a0
GAS LISTING /tmp/cchq5Upx.s 			page 4


  30:src/syscall_c.cpp **** }
 141              		.loc 1 30 1
 142 0088 03348101 		ld	s0,24(sp)
 143              		.cfi_restore 8
 144 008c 13010102 		addi	sp,sp,32
 145              		.cfi_def_cfa_register 2
 146 0090 67800000 		jr	ra
 147              	.LVL9:
 148              	.L12:
  22:src/syscall_c.cpp ****     __asm__ volatile("mv a2, %0" : : "r"(addr));
 149              		.loc 1 22 17
 150 0094 1305F0FF 		li	a0,-1
 151              	.LVL10:
 152              		.loc 1 30 1
 153 0098 67800000 		ret
 154              		.cfi_endproc
 155              	.LFE33:
 157              		.align	2
 158              		.globl	_Z13thread_createPP3TCBPFvPvES2_
 160              	_Z13thread_createPP3TCBPFvPvES2_:
 161              	.LFB34:
  31:src/syscall_c.cpp **** 
  32:src/syscall_c.cpp **** int thread_create(thread_t *handle, void (*start_routine)(void*), void *arg)
  33:src/syscall_c.cpp **** {
 162              		.loc 1 33 1 is_stmt 1
 163              		.cfi_startproc
 164              	.LVL11:
 165 009c 130101FC 		addi	sp,sp,-64
 166              		.cfi_def_cfa_offset 64
 167 00a0 233C1102 		sd	ra,56(sp)
 168 00a4 23388102 		sd	s0,48(sp)
 169 00a8 23349102 		sd	s1,40(sp)
 170 00ac 23302103 		sd	s2,32(sp)
 171 00b0 233C3101 		sd	s3,24(sp)
 172              		.cfi_offset 1, -8
 173              		.cfi_offset 8, -16
 174              		.cfi_offset 9, -24
 175              		.cfi_offset 18, -32
 176              		.cfi_offset 19, -40
 177 00b4 13040104 		addi	s0,sp,64
 178              		.cfi_def_cfa 8, 0
 179 00b8 93040500 		mv	s1,a0
 180 00bc 13890500 		mv	s2,a1
 181 00c0 93090600 		mv	s3,a2
  34:src/syscall_c.cpp **** 
  35:src/syscall_c.cpp ****     uint64 *stack_space = (uint64 *)mem_alloc(DEFAULT_STACK_SIZE);
 182              		.loc 1 35 5
 183              		.loc 1 35 46 is_stmt 0
 184 00c4 37150000 		li	a0,4096
 185              	.LVL12:
 186 00c8 97000000 		call	_Z9mem_allocm
 186      E7800000 
 187              	.LVL13:
  36:src/syscall_c.cpp **** 
  37:src/syscall_c.cpp ****     if (!stack_space)
 188              		.loc 1 37 5 is_stmt 1
 189 00d0 63060504 		beqz	a0,.L19
GAS LISTING /tmp/cchq5Upx.s 			page 5


  38:src/syscall_c.cpp ****     {
  39:src/syscall_c.cpp ****         return -1;
  40:src/syscall_c.cpp ****     }
  41:src/syscall_c.cpp **** 
  42:src/syscall_c.cpp ****     __asm__ volatile("mv a4, %0" : : "r"(stack_space));
 190              		.loc 1 42 5
 191              		.loc 1 42 55 is_stmt 0
 192              	#APP
 193              	# 42 "src/syscall_c.cpp" 1
  43              	    __asm__ volatile("mv a3, %0" : : "r"(arg));
 194              		mv a4, a0
 195              	# 0 "" 2
 196              		.loc 1 43 5 is_stmt 1
 197              		.loc 1 43 47 is_stmt 0
 198              	# 43 "src/syscall_c.cpp" 1
  44              	    __asm__ volatile("mv a2, %0" : : "r"(start_routine));
 199              		mv a3, s3
 200              	# 0 "" 2
 201              		.loc 1 44 5 is_stmt 1
 202              		.loc 1 44 57 is_stmt 0
 203              	# 44 "src/syscall_c.cpp" 1
  45              	    __asm__ volatile("mv a1, %0" : : "r"(handle));
 204              		mv a2, s2
 205              	# 0 "" 2
 206              		.loc 1 45 5 is_stmt 1
 207              		.loc 1 45 50 is_stmt 0
 208              	# 45 "src/syscall_c.cpp" 1
  46              	    __asm__ volatile("mv a0, %0" : : "r"(THREAD_CREATE));
 209              		mv a1, s1
 210              	# 0 "" 2
 211              		.loc 1 46 5 is_stmt 1
 212              		.loc 1 46 57 is_stmt 0
 213              	#NO_APP
 214 00e4 93071001 		li	a5,17
 215              	#APP
 216              	# 46 "src/syscall_c.cpp" 1
  47              	
  48:src/syscall_c.cpp ****     __asm__ volatile("ecall");
 217              		mv a0, a5
 218              	# 0 "" 2
 219              		.loc 1 48 5 is_stmt 1
 220              		.loc 1 48 30 is_stmt 0
 221              	# 48 "src/syscall_c.cpp" 1
  49              	
  50:src/syscall_c.cpp ****     volatile int status;
 222              		ecall
 223              	# 0 "" 2
 224              		.loc 1 50 5 is_stmt 1
  51:src/syscall_c.cpp ****     __asm__ volatile("mv %0, a0" : "=r"(status));
 225              		.loc 1 51 5
 226              		.loc 1 51 49 is_stmt 0
 227              	# 51 "src/syscall_c.cpp" 1
  52              	    return status;
 228              		mv a5, a0
 229              	# 0 "" 2
 230              	#NO_APP
 231 00f4 2326F4FC 		sw	a5,-52(s0)
GAS LISTING /tmp/cchq5Upx.s 			page 6


 232              		.loc 1 52 5 is_stmt 1
 233              		.loc 1 52 12 is_stmt 0
 234 00f8 0325C4FC 		lw	a0,-52(s0)
 235              	.LVL14:
 236 00fc 1B050500 		sext.w	a0,a0
 237              	.L18:
  53:src/syscall_c.cpp **** }
 238              		.loc 1 53 1
 239 0100 83308103 		ld	ra,56(sp)
 240              		.cfi_remember_state
 241              		.cfi_restore 1
 242 0104 03340103 		ld	s0,48(sp)
 243              		.cfi_restore 8
 244 0108 83348102 		ld	s1,40(sp)
 245              		.cfi_restore 9
 246              	.LVL15:
 247 010c 03390102 		ld	s2,32(sp)
 248              		.cfi_restore 18
 249              	.LVL16:
 250 0110 83398101 		ld	s3,24(sp)
 251              		.cfi_restore 19
 252              	.LVL17:
 253 0114 13010104 		addi	sp,sp,64
 254              		.cfi_def_cfa_register 2
 255 0118 67800000 		jr	ra
 256              	.LVL18:
 257              	.L19:
 258              		.cfi_restore_state
  39:src/syscall_c.cpp ****     }
 259              		.loc 1 39 17
 260 011c 1305F0FF 		li	a0,-1
 261              	.LVL19:
 262 0120 6FF01FFE 		j	.L18
 263              		.cfi_endproc
 264              	.LFE34:
 266              		.align	2
 267              		.globl	_Z11thread_exitv
 269              	_Z11thread_exitv:
 270              	.LFB35:
  54:src/syscall_c.cpp **** 
  55:src/syscall_c.cpp **** int thread_exit()
  56:src/syscall_c.cpp **** {
 271              		.loc 1 56 1 is_stmt 1
 272              		.cfi_startproc
 273 0124 130101FF 		addi	sp,sp,-16
 274              		.cfi_def_cfa_offset 16
 275 0128 23348100 		sd	s0,8(sp)
 276              		.cfi_offset 8, -8
 277 012c 13040101 		addi	s0,sp,16
 278              		.cfi_def_cfa 8, 0
  57:src/syscall_c.cpp ****     __asm__ volatile("mv a0, %0" : : "r"(THREAD_EXIT));
 279              		.loc 1 57 5
 280              		.loc 1 57 55 is_stmt 0
 281 0130 93072001 		li	a5,18
 282              	#APP
 283              	# 57 "src/syscall_c.cpp" 1
  58              	
GAS LISTING /tmp/cchq5Upx.s 			page 7


  59:src/syscall_c.cpp ****     __asm__ volatile("ecall");
 284              		mv a0, a5
 285              	# 0 "" 2
 286              		.loc 1 59 5 is_stmt 1
 287              		.loc 1 59 30 is_stmt 0
 288              	# 59 "src/syscall_c.cpp" 1
  60              	
  61:src/syscall_c.cpp ****     return 0;
 289              		ecall
 290              	# 0 "" 2
 291              		.loc 1 61 5 is_stmt 1
  62:src/syscall_c.cpp **** }
 292              		.loc 1 62 1 is_stmt 0
 293              	#NO_APP
 294 013c 13050000 		li	a0,0
 295 0140 03348100 		ld	s0,8(sp)
 296              		.cfi_restore 8
 297 0144 13010101 		addi	sp,sp,16
 298              		.cfi_def_cfa_register 2
 299 0148 67800000 		jr	ra
 300              		.cfi_endproc
 301              	.LFE35:
 303              		.align	2
 304              		.globl	_Z15thread_dispatchv
 306              	_Z15thread_dispatchv:
 307              	.LFB36:
  63:src/syscall_c.cpp **** 
  64:src/syscall_c.cpp **** void thread_dispatch()
  65:src/syscall_c.cpp **** {
 308              		.loc 1 65 1 is_stmt 1
 309              		.cfi_startproc
 310 014c 130101FF 		addi	sp,sp,-16
 311              		.cfi_def_cfa_offset 16
 312 0150 23348100 		sd	s0,8(sp)
 313              		.cfi_offset 8, -8
 314 0154 13040101 		addi	s0,sp,16
 315              		.cfi_def_cfa 8, 0
  66:src/syscall_c.cpp ****     __asm__ volatile("mv a0, %0" : : "r"(THREAD_DISPATCH));
 316              		.loc 1 66 5
 317              		.loc 1 66 59 is_stmt 0
 318 0158 93073001 		li	a5,19
 319              	#APP
 320              	# 66 "src/syscall_c.cpp" 1
  67              	    __asm__ volatile("ecall");
 321              		mv a0, a5
 322              	# 0 "" 2
 323              		.loc 1 67 5 is_stmt 1
 324              		.loc 1 67 30 is_stmt 0
 325              	# 67 "src/syscall_c.cpp" 1
  68              	}
 326              		ecall
 327              	# 0 "" 2
 328              		.loc 1 68 1
 329              	#NO_APP
 330 0164 03348100 		ld	s0,8(sp)
 331              		.cfi_restore 8
 332 0168 13010101 		addi	sp,sp,16
GAS LISTING /tmp/cchq5Upx.s 			page 8


 333              		.cfi_def_cfa_register 2
 334 016c 67800000 		jr	ra
 335              		.cfi_endproc
 336              	.LFE36:
 338              		.align	2
 339              		.globl	_Z10time_sleepm
 341              	_Z10time_sleepm:
 342              	.LFB37:
  69:src/syscall_c.cpp **** 
  70:src/syscall_c.cpp **** int time_sleep (time_t time){
 343              		.loc 1 70 29 is_stmt 1
 344              		.cfi_startproc
 345              	.LVL20:
 346 0170 130101FF 		addi	sp,sp,-16
 347              		.cfi_def_cfa_offset 16
 348 0174 23348100 		sd	s0,8(sp)
 349              		.cfi_offset 8, -8
 350 0178 13040101 		addi	s0,sp,16
 351              		.cfi_def_cfa 8, 0
  71:src/syscall_c.cpp ****     __asm__ volatile("mv a1, %0" : : "r"(time));
 352              		.loc 1 71 5
 353              		.loc 1 71 48 is_stmt 0
 354              	#APP
 355              	# 71 "src/syscall_c.cpp" 1
  72              	    __asm__ volatile("mv a0, %0" : : "r"(THREAD_SLEEP));
 356              		mv a1, a0
 357              	# 0 "" 2
 358              		.loc 1 72 5 is_stmt 1
 359              		.loc 1 72 56 is_stmt 0
 360              	#NO_APP
 361 0180 93074001 		li	a5,20
 362              	#APP
 363              	# 72 "src/syscall_c.cpp" 1
  73              	    __asm__ volatile("ecall");
 364              		mv a0, a5
 365              	# 0 "" 2
 366              		.loc 1 73 5 is_stmt 1
 367              		.loc 1 73 30 is_stmt 0
 368              	# 73 "src/syscall_c.cpp" 1
  74              	
  75:src/syscall_c.cpp ****     return 0;
 369              		ecall
 370              	# 0 "" 2
 371              		.loc 1 75 5 is_stmt 1
  76:src/syscall_c.cpp **** }
 372              		.loc 1 76 1 is_stmt 0
 373              	#NO_APP
 374 018c 13050000 		li	a0,0
 375              	.LVL21:
 376 0190 03348100 		ld	s0,8(sp)
 377              		.cfi_restore 8
 378 0194 13010101 		addi	sp,sp,16
 379              		.cfi_def_cfa_register 2
 380 0198 67800000 		jr	ra
 381              		.cfi_endproc
 382              	.LFE37:
 384              		.align	2
GAS LISTING /tmp/cchq5Upx.s 			page 9


 385              		.globl	_Z8sem_openPP5mySemj
 387              	_Z8sem_openPP5mySemj:
 388              	.LFB38:
  77:src/syscall_c.cpp **** 
  78:src/syscall_c.cpp **** int sem_open(sem_t* handle, unsigned init){
 389              		.loc 1 78 43 is_stmt 1
 390              		.cfi_startproc
 391              	.LVL22:
 392 019c 130101FE 		addi	sp,sp,-32
 393              		.cfi_def_cfa_offset 32
 394 01a0 233C8100 		sd	s0,24(sp)
 395              		.cfi_offset 8, -8
 396 01a4 13040102 		addi	s0,sp,32
 397              		.cfi_def_cfa 8, 0
  79:src/syscall_c.cpp ****     __asm__ volatile("mv a2, %0" : : "r"(init));
 398              		.loc 1 79 5
 399              		.loc 1 79 48 is_stmt 0
 400              	#APP
 401              	# 79 "src/syscall_c.cpp" 1
  80              	    __asm__ volatile("mv a1, %0" : : "r"(handle));
 402              		mv a2, a1
 403              	# 0 "" 2
 404              		.loc 1 80 5 is_stmt 1
 405              		.loc 1 80 50 is_stmt 0
 406              	# 80 "src/syscall_c.cpp" 1
  81              	    __asm__ volatile("mv a0, %0" : : "r"(SEM_OPEN));
 407              		mv a1, a0
 408              	# 0 "" 2
 409              		.loc 1 81 5 is_stmt 1
 410              		.loc 1 81 52 is_stmt 0
 411              	#NO_APP
 412 01b0 93071002 		li	a5,33
 413              	#APP
 414              	# 81 "src/syscall_c.cpp" 1
  82              	
  83:src/syscall_c.cpp ****     __asm__ volatile("ecall");
 415              		mv a0, a5
 416              	# 0 "" 2
 417              		.loc 1 83 5 is_stmt 1
 418              		.loc 1 83 30 is_stmt 0
 419              	# 83 "src/syscall_c.cpp" 1
  84              	
  85:src/syscall_c.cpp ****     volatile int status;
 420              		ecall
 421              	# 0 "" 2
 422              		.loc 1 85 5 is_stmt 1
  86:src/syscall_c.cpp ****     __asm__ volatile("mv %0, a0" : "=r"(status));
 423              		.loc 1 86 5
 424              		.loc 1 86 49 is_stmt 0
 425              	# 86 "src/syscall_c.cpp" 1
  87              	    return status;
 426              		mv a5, a0
 427              	# 0 "" 2
 428              	#NO_APP
 429 01c0 2326F4FE 		sw	a5,-20(s0)
 430              		.loc 1 87 5 is_stmt 1
 431              		.loc 1 87 12 is_stmt 0
GAS LISTING /tmp/cchq5Upx.s 			page 10


 432 01c4 0325C4FE 		lw	a0,-20(s0)
 433              	.LVL23:
  88:src/syscall_c.cpp **** }
 434              		.loc 1 88 1
 435 01c8 1B050500 		sext.w	a0,a0
 436 01cc 03348101 		ld	s0,24(sp)
 437              		.cfi_restore 8
 438 01d0 13010102 		addi	sp,sp,32
 439              		.cfi_def_cfa_register 2
 440 01d4 67800000 		jr	ra
 441              		.cfi_endproc
 442              	.LFE38:
 444              		.align	2
 445              		.globl	_Z9sem_closeP5mySem
 447              	_Z9sem_closeP5mySem:
 448              	.LFB39:
  89:src/syscall_c.cpp **** 
  90:src/syscall_c.cpp **** int sem_close(sem_t handle){
 449              		.loc 1 90 28 is_stmt 1
 450              		.cfi_startproc
 451              	.LVL24:
 452 01d8 130101FE 		addi	sp,sp,-32
 453              		.cfi_def_cfa_offset 32
 454 01dc 233C8100 		sd	s0,24(sp)
 455              		.cfi_offset 8, -8
 456 01e0 13040102 		addi	s0,sp,32
 457              		.cfi_def_cfa 8, 0
  91:src/syscall_c.cpp ****     __asm__ volatile("mv a1, %0" : : "r"(handle));
 458              		.loc 1 91 5
 459              		.loc 1 91 50 is_stmt 0
 460              	#APP
 461              	# 91 "src/syscall_c.cpp" 1
  92              	    __asm__ volatile("mv a0, %0" : : "r"(SEM_CLOSE));
 462              		mv a1, a0
 463              	# 0 "" 2
 464              		.loc 1 92 5 is_stmt 1
 465              		.loc 1 92 53 is_stmt 0
 466              	#NO_APP
 467 01e8 93072002 		li	a5,34
 468              	#APP
 469              	# 92 "src/syscall_c.cpp" 1
  93              	
  94:src/syscall_c.cpp ****     __asm__ volatile("ecall");
 470              		mv a0, a5
 471              	# 0 "" 2
 472              		.loc 1 94 5 is_stmt 1
 473              		.loc 1 94 30 is_stmt 0
 474              	# 94 "src/syscall_c.cpp" 1
  95              	
  96:src/syscall_c.cpp ****     volatile int status;
 475              		ecall
 476              	# 0 "" 2
 477              		.loc 1 96 5 is_stmt 1
  97:src/syscall_c.cpp ****     __asm__ volatile("mv %0, a0" : "=r"(status));
 478              		.loc 1 97 5
 479              		.loc 1 97 49 is_stmt 0
 480              	# 97 "src/syscall_c.cpp" 1
GAS LISTING /tmp/cchq5Upx.s 			page 11


  98              	    return status;
 481              		mv a5, a0
 482              	# 0 "" 2
 483              	#NO_APP
 484 01f8 2326F4FE 		sw	a5,-20(s0)
 485              		.loc 1 98 5 is_stmt 1
 486              		.loc 1 98 12 is_stmt 0
 487 01fc 0325C4FE 		lw	a0,-20(s0)
 488              	.LVL25:
  99:src/syscall_c.cpp **** }
 489              		.loc 1 99 1
 490 0200 1B050500 		sext.w	a0,a0
 491 0204 03348101 		ld	s0,24(sp)
 492              		.cfi_restore 8
 493 0208 13010102 		addi	sp,sp,32
 494              		.cfi_def_cfa_register 2
 495 020c 67800000 		jr	ra
 496              		.cfi_endproc
 497              	.LFE39:
 499              		.align	2
 500              		.globl	_Z8sem_waitP5mySem
 502              	_Z8sem_waitP5mySem:
 503              	.LFB40:
 100:src/syscall_c.cpp **** 
 101:src/syscall_c.cpp **** int sem_wait(sem_t id){
 504              		.loc 1 101 23 is_stmt 1
 505              		.cfi_startproc
 506              	.LVL26:
 507 0210 130101FE 		addi	sp,sp,-32
 508              		.cfi_def_cfa_offset 32
 509 0214 233C8100 		sd	s0,24(sp)
 510              		.cfi_offset 8, -8
 511 0218 13040102 		addi	s0,sp,32
 512              		.cfi_def_cfa 8, 0
 102:src/syscall_c.cpp ****     __asm__ volatile("mv a1, %0" : : "r"(id));
 513              		.loc 1 102 5
 514              		.loc 1 102 46 is_stmt 0
 515              	#APP
 516              	# 102 "src/syscall_c.cpp" 1
 103              	    __asm__ volatile("mv a0, %0" : : "r"(SEM_WAIT));
 517              		mv a1, a0
 518              	# 0 "" 2
 519              		.loc 1 103 5 is_stmt 1
 520              		.loc 1 103 52 is_stmt 0
 521              	#NO_APP
 522 0220 93073002 		li	a5,35
 523              	#APP
 524              	# 103 "src/syscall_c.cpp" 1
 104              	
 105:src/syscall_c.cpp ****     __asm__ volatile("ecall");
 525              		mv a0, a5
 526              	# 0 "" 2
 527              		.loc 1 105 5 is_stmt 1
 528              		.loc 1 105 30 is_stmt 0
 529              	# 105 "src/syscall_c.cpp" 1
 106              	
 107:src/syscall_c.cpp ****     volatile int status;
GAS LISTING /tmp/cchq5Upx.s 			page 12


 530              		ecall
 531              	# 0 "" 2
 532              		.loc 1 107 5 is_stmt 1
 108:src/syscall_c.cpp ****     __asm__ volatile("mv %0, a0" : "=r"(status));
 533              		.loc 1 108 5
 534              		.loc 1 108 49 is_stmt 0
 535              	# 108 "src/syscall_c.cpp" 1
 109              	    return status;
 536              		mv a5, a0
 537              	# 0 "" 2
 538              	#NO_APP
 539 0230 2326F4FE 		sw	a5,-20(s0)
 540              		.loc 1 109 5 is_stmt 1
 541              		.loc 1 109 12 is_stmt 0
 542 0234 0325C4FE 		lw	a0,-20(s0)
 543              	.LVL27:
 110:src/syscall_c.cpp **** }
 544              		.loc 1 110 1
 545 0238 1B050500 		sext.w	a0,a0
 546 023c 03348101 		ld	s0,24(sp)
 547              		.cfi_restore 8
 548 0240 13010102 		addi	sp,sp,32
 549              		.cfi_def_cfa_register 2
 550 0244 67800000 		jr	ra
 551              		.cfi_endproc
 552              	.LFE40:
 554              		.align	2
 555              		.globl	_Z10sem_signalP5mySem
 557              	_Z10sem_signalP5mySem:
 558              	.LFB41:
 111:src/syscall_c.cpp **** 
 112:src/syscall_c.cpp **** int sem_signal (sem_t id){
 559              		.loc 1 112 26 is_stmt 1
 560              		.cfi_startproc
 561              	.LVL28:
 562 0248 130101FE 		addi	sp,sp,-32
 563              		.cfi_def_cfa_offset 32
 564 024c 233C8100 		sd	s0,24(sp)
 565              		.cfi_offset 8, -8
 566 0250 13040102 		addi	s0,sp,32
 567              		.cfi_def_cfa 8, 0
 113:src/syscall_c.cpp ****     __asm__ volatile("mv a1, %0" : : "r"(id));
 568              		.loc 1 113 5
 569              		.loc 1 113 46 is_stmt 0
 570              	#APP
 571              	# 113 "src/syscall_c.cpp" 1
 114              	    __asm__ volatile("mv a0, %0" : : "r"(SEM_SIGNAL));
 572              		mv a1, a0
 573              	# 0 "" 2
 574              		.loc 1 114 5 is_stmt 1
 575              		.loc 1 114 54 is_stmt 0
 576              	#NO_APP
 577 0258 93074002 		li	a5,36
 578              	#APP
 579              	# 114 "src/syscall_c.cpp" 1
 115              	
 116:src/syscall_c.cpp ****     __asm__ volatile("ecall");
GAS LISTING /tmp/cchq5Upx.s 			page 13


 580              		mv a0, a5
 581              	# 0 "" 2
 582              		.loc 1 116 5 is_stmt 1
 583              		.loc 1 116 30 is_stmt 0
 584              	# 116 "src/syscall_c.cpp" 1
 117              	
 118:src/syscall_c.cpp ****     volatile int status;
 585              		ecall
 586              	# 0 "" 2
 587              		.loc 1 118 5 is_stmt 1
 119:src/syscall_c.cpp ****     __asm__ volatile("mv %0, a0" : "=r"(status));
 588              		.loc 1 119 5
 589              		.loc 1 119 49 is_stmt 0
 590              	# 119 "src/syscall_c.cpp" 1
 120              	    return status;
 591              		mv a5, a0
 592              	# 0 "" 2
 593              	#NO_APP
 594 0268 2326F4FE 		sw	a5,-20(s0)
 595              		.loc 1 120 5 is_stmt 1
 596              		.loc 1 120 12 is_stmt 0
 597 026c 0325C4FE 		lw	a0,-20(s0)
 598              	.LVL29:
 121:src/syscall_c.cpp **** }
 599              		.loc 1 121 1
 600 0270 1B050500 		sext.w	a0,a0
 601 0274 03348101 		ld	s0,24(sp)
 602              		.cfi_restore 8
 603 0278 13010102 		addi	sp,sp,32
 604              		.cfi_def_cfa_register 2
 605 027c 67800000 		jr	ra
 606              		.cfi_endproc
 607              	.LFE41:
 609              		.align	2
 610              		.globl	_Z11sem_trywaitP5mySem
 612              	_Z11sem_trywaitP5mySem:
 613              	.LFB42:
 122:src/syscall_c.cpp **** 
 123:src/syscall_c.cpp **** int sem_trywait(sem_t id){
 614              		.loc 1 123 26 is_stmt 1
 615              		.cfi_startproc
 616              	.LVL30:
 617 0280 130101FE 		addi	sp,sp,-32
 618              		.cfi_def_cfa_offset 32
 619 0284 233C8100 		sd	s0,24(sp)
 620              		.cfi_offset 8, -8
 621 0288 13040102 		addi	s0,sp,32
 622              		.cfi_def_cfa 8, 0
 124:src/syscall_c.cpp ****     __asm__ volatile("mv a1, %0" : : "r"(id));
 623              		.loc 1 124 5
 624              		.loc 1 124 46 is_stmt 0
 625              	#APP
 626              	# 124 "src/syscall_c.cpp" 1
 125              	    __asm__ volatile("mv a0, %0" : : "r"(SEM_TRYWAIT));
 627              		mv a1, a0
 628              	# 0 "" 2
 629              		.loc 1 125 5 is_stmt 1
GAS LISTING /tmp/cchq5Upx.s 			page 14


 630              		.loc 1 125 55 is_stmt 0
 631              	#NO_APP
 632 0290 93076002 		li	a5,38
 633              	#APP
 634              	# 125 "src/syscall_c.cpp" 1
 126              	
 127:src/syscall_c.cpp ****     __asm__ volatile("ecall");
 635              		mv a0, a5
 636              	# 0 "" 2
 637              		.loc 1 127 5 is_stmt 1
 638              		.loc 1 127 30 is_stmt 0
 639              	# 127 "src/syscall_c.cpp" 1
 128              	
 129:src/syscall_c.cpp ****     volatile int status;
 640              		ecall
 641              	# 0 "" 2
 642              		.loc 1 129 5 is_stmt 1
 130:src/syscall_c.cpp ****     __asm__ volatile("mv %0, a0" : "=r"(status));
 643              		.loc 1 130 5
 644              		.loc 1 130 49 is_stmt 0
 645              	# 130 "src/syscall_c.cpp" 1
 131              	    return status;
 646              		mv a5, a0
 647              	# 0 "" 2
 648              	#NO_APP
 649 02a0 2326F4FE 		sw	a5,-20(s0)
 650              		.loc 1 131 5 is_stmt 1
 651              		.loc 1 131 12 is_stmt 0
 652 02a4 0325C4FE 		lw	a0,-20(s0)
 653              	.LVL31:
 132:src/syscall_c.cpp **** }
 654              		.loc 1 132 1
 655 02a8 1B050500 		sext.w	a0,a0
 656 02ac 03348101 		ld	s0,24(sp)
 657              		.cfi_restore 8
 658 02b0 13010102 		addi	sp,sp,32
 659              		.cfi_def_cfa_register 2
 660 02b4 67800000 		jr	ra
 661              		.cfi_endproc
 662              	.LFE42:
 664              		.align	2
 665              		.globl	_Z13sem_timedwaitP5mySemm
 667              	_Z13sem_timedwaitP5mySemm:
 668              	.LFB43:
 133:src/syscall_c.cpp **** 
 134:src/syscall_c.cpp **** int sem_timedwait(sem_t id, time_t time) {
 669              		.loc 1 134 42 is_stmt 1
 670              		.cfi_startproc
 671              	.LVL32:
 672 02b8 130101FE 		addi	sp,sp,-32
 673              		.cfi_def_cfa_offset 32
 674 02bc 233C8100 		sd	s0,24(sp)
 675              		.cfi_offset 8, -8
 676 02c0 13040102 		addi	s0,sp,32
 677              		.cfi_def_cfa 8, 0
 135:src/syscall_c.cpp ****     __asm__ volatile("mv a2, %0" : : "r"(id));
 678              		.loc 1 135 5
GAS LISTING /tmp/cchq5Upx.s 			page 15


 679              		.loc 1 135 46 is_stmt 0
 680              	#APP
 681              	# 135 "src/syscall_c.cpp" 1
 136              	    __asm__ volatile("mv a1, %0" : : "r"(time));
 682              		mv a2, a0
 683              	# 0 "" 2
 684              		.loc 1 136 5 is_stmt 1
 685              		.loc 1 136 48 is_stmt 0
 686              	# 136 "src/syscall_c.cpp" 1
 137              	    __asm__ volatile("mv a0, %0" : : "r"(SEM_TIMEDWAIT));
 687              		mv a1, a1
 688              	# 0 "" 2
 689              		.loc 1 137 5 is_stmt 1
 690              		.loc 1 137 57 is_stmt 0
 691              	#NO_APP
 692 02cc 93075002 		li	a5,37
 693              	#APP
 694              	# 137 "src/syscall_c.cpp" 1
 138              	
 139:src/syscall_c.cpp ****     __asm__ volatile("ecall");
 695              		mv a0, a5
 696              	# 0 "" 2
 697              		.loc 1 139 5 is_stmt 1
 698              		.loc 1 139 30 is_stmt 0
 699              	# 139 "src/syscall_c.cpp" 1
 140              	
 141:src/syscall_c.cpp ****     volatile int status;
 700              		ecall
 701              	# 0 "" 2
 702              		.loc 1 141 5 is_stmt 1
 142:src/syscall_c.cpp ****     __asm__ volatile("mv %0, a0" : "=r"(status));
 703              		.loc 1 142 5
 704              		.loc 1 142 49 is_stmt 0
 705              	# 142 "src/syscall_c.cpp" 1
 143              	    return status;
 706              		mv a5, a0
 707              	# 0 "" 2
 708              	#NO_APP
 709 02dc 2326F4FE 		sw	a5,-20(s0)
 710              		.loc 1 143 5 is_stmt 1
 711              		.loc 1 143 12 is_stmt 0
 712 02e0 0325C4FE 		lw	a0,-20(s0)
 713              	.LVL33:
 144:src/syscall_c.cpp **** }
 714              		.loc 1 144 1
 715 02e4 1B050500 		sext.w	a0,a0
 716 02e8 03348101 		ld	s0,24(sp)
 717              		.cfi_restore 8
 718 02ec 13010102 		addi	sp,sp,32
 719              		.cfi_def_cfa_register 2
 720 02f0 67800000 		jr	ra
 721              		.cfi_endproc
 722              	.LFE43:
 724              		.align	2
 725              		.globl	_Z4getcv
 727              	_Z4getcv:
 728              	.LFB44:
GAS LISTING /tmp/cchq5Upx.s 			page 16


 145:src/syscall_c.cpp **** 
 146:src/syscall_c.cpp **** char getc(){
 729              		.loc 1 146 12 is_stmt 1
 730              		.cfi_startproc
 731 02f4 130101FE 		addi	sp,sp,-32
 732              		.cfi_def_cfa_offset 32
 733 02f8 233C8100 		sd	s0,24(sp)
 734              		.cfi_offset 8, -8
 735 02fc 13040102 		addi	s0,sp,32
 736              		.cfi_def_cfa 8, 0
 147:src/syscall_c.cpp ****     __asm__ volatile("mv a0, %0" : : "r"(GETC));
 737              		.loc 1 147 5
 738              		.loc 1 147 48 is_stmt 0
 739 0300 93071004 		li	a5,65
 740              	#APP
 741              	# 147 "src/syscall_c.cpp" 1
 148              	
 149:src/syscall_c.cpp ****     __asm__ volatile("ecall");
 742              		mv a0, a5
 743              	# 0 "" 2
 744              		.loc 1 149 5 is_stmt 1
 745              		.loc 1 149 30 is_stmt 0
 746              	# 149 "src/syscall_c.cpp" 1
 150              	
 151:src/syscall_c.cpp ****     volatile char character;
 747              		ecall
 748              	# 0 "" 2
 749              		.loc 1 151 5 is_stmt 1
 152:src/syscall_c.cpp **** 
 153:src/syscall_c.cpp ****     __asm__ volatile("mv %0, a0" : "=r"(character));
 750              		.loc 1 153 5
 751              		.loc 1 153 52 is_stmt 0
 752              	# 153 "src/syscall_c.cpp" 1
 154              	    return character;
 753              		mv a5, a0
 754              	# 0 "" 2
 755              	#NO_APP
 756 0310 A307F4FE 		sb	a5,-17(s0)
 757              		.loc 1 154 5 is_stmt 1
 758              		.loc 1 154 12 is_stmt 0
 759 0314 0345F4FE 		lbu	a0,-17(s0)
 155:src/syscall_c.cpp **** }
 760              		.loc 1 155 1
 761 0318 03348101 		ld	s0,24(sp)
 762              		.cfi_restore 8
 763 031c 13010102 		addi	sp,sp,32
 764              		.cfi_def_cfa_register 2
 765 0320 67800000 		jr	ra
 766              		.cfi_endproc
 767              	.LFE44:
 769              		.align	2
 770              		.globl	_Z4putcc
 772              	_Z4putcc:
 773              	.LFB45:
 156:src/syscall_c.cpp **** 
 157:src/syscall_c.cpp **** void putc(char c){
 774              		.loc 1 157 18 is_stmt 1
GAS LISTING /tmp/cchq5Upx.s 			page 17


 775              		.cfi_startproc
 776              	.LVL34:
 777 0324 130101FF 		addi	sp,sp,-16
 778              		.cfi_def_cfa_offset 16
 779 0328 23348100 		sd	s0,8(sp)
 780              		.cfi_offset 8, -8
 781 032c 13040101 		addi	s0,sp,16
 782              		.cfi_def_cfa 8, 0
 158:src/syscall_c.cpp ****     __asm__ volatile("mv a1, %0" : : "r"(c));
 783              		.loc 1 158 5
 784              		.loc 1 158 45 is_stmt 0
 785              	#APP
 786              	# 158 "src/syscall_c.cpp" 1
 159              	    __asm__ volatile("mv a0, %0" : : "r"(PUTC));
 787              		mv a1, a0
 788              	# 0 "" 2
 789              		.loc 1 159 5 is_stmt 1
 790              		.loc 1 159 48 is_stmt 0
 791              	#NO_APP
 792 0334 93072004 		li	a5,66
 793              	#APP
 794              	# 159 "src/syscall_c.cpp" 1
 160              	
 161:src/syscall_c.cpp ****     __asm__ volatile("ecall");
 795              		mv a0, a5
 796              	# 0 "" 2
 797              		.loc 1 161 5 is_stmt 1
 798              		.loc 1 161 30 is_stmt 0
 799              	# 161 "src/syscall_c.cpp" 1
 162              	}
 800              		ecall
 801              	# 0 "" 2
 802              		.loc 1 162 1
 803              	#NO_APP
 804 0340 03348100 		ld	s0,8(sp)
 805              		.cfi_restore 8
 806 0344 13010101 		addi	sp,sp,16
 807              		.cfi_def_cfa_register 2
 808 0348 67800000 		jr	ra
 809              		.cfi_endproc
 810              	.LFE45:
 812              	.Letext0:
 813              		.file 2 "src/../lib/hw.h"
 814              		.file 3 "src/../h/../h/list.hpp"
 815              		.file 4 "src/../h/../h/tcb.hpp"
 816              		.file 5 "src/../h/../h/mySem.hpp"
 817              		.file 6 "src/../h/syscall_c.hpp"
 818              		.file 7 "src/../h/operation_codes.hpp"
GAS LISTING /tmp/cchq5Upx.s 			page 18

