GAS LISTING /tmp/ccEzZKaD.s 			page 1


   1              		.file	"syscall_cpp.cpp"
   2              		.option nopic
   3              		.option norelax
   4              		.text
   5              	.Ltext0:
   6              		.section	.text._ZN6Thread3runEv,"axG",@progbits,_ZN6Thread3runEv,comdat
   7              		.align	2
   8              		.weak	_ZN6Thread3runEv
  10              	_ZN6Thread3runEv:
  11              	.LFB32:
  12              		.file 1 "src/../h/syscall_cpp.hpp"
   1:src/../h/syscall_cpp.hpp **** #ifndef PROJECT_BASE_1_SYSCALL_CPP_HPP
   2:src/../h/syscall_cpp.hpp **** #define PROJECT_BASE_1_SYSCALL_CPP_HPP
   3:src/../h/syscall_cpp.hpp **** 
   4:src/../h/syscall_cpp.hpp **** #include "syscall_c.hpp"
   5:src/../h/syscall_cpp.hpp **** 
   6:src/../h/syscall_cpp.hpp **** void *operator new(size_t n);
   7:src/../h/syscall_cpp.hpp **** void operator delete(void *p) noexcept;
   8:src/../h/syscall_cpp.hpp **** 
   9:src/../h/syscall_cpp.hpp **** class Thread{
  10:src/../h/syscall_cpp.hpp **** public:
  11:src/../h/syscall_cpp.hpp ****     Thread (void (*body)(void*), void* arg);
  12:src/../h/syscall_cpp.hpp ****     virtual ~Thread ();
  13:src/../h/syscall_cpp.hpp **** 
  14:src/../h/syscall_cpp.hpp ****     int start ();
  15:src/../h/syscall_cpp.hpp **** 
  16:src/../h/syscall_cpp.hpp ****     static void dispatch ();
  17:src/../h/syscall_cpp.hpp ****     static int sleep(time_t);
  18:src/../h/syscall_cpp.hpp **** protected:
  19:src/../h/syscall_cpp.hpp ****     Thread();
  20:src/../h/syscall_cpp.hpp ****     virtual void run () {}
  13              		.loc 1 20 18
  14              		.cfi_startproc
  15              	.LVL0:
  16 0000 130101FF 		addi	sp,sp,-16
  17              		.cfi_def_cfa_offset 16
  18 0004 23348100 		sd	s0,8(sp)
  19              		.cfi_offset 8, -8
  20 0008 13040101 		addi	s0,sp,16
  21              		.cfi_def_cfa 8, 0
  22              		.loc 1 20 26 is_stmt 0
  23 000c 03348100 		ld	s0,8(sp)
  24              		.cfi_restore 8
  25 0010 13010101 		addi	sp,sp,16
  26              		.cfi_def_cfa_register 2
  27 0014 67800000 		jr	ra
  28              		.cfi_endproc
  29              	.LFE32:
  31              		.section	.text._ZN6Thread10runWrapperEPv,"axG",@progbits,_ZN6Thread10runWrapperEPv,comdat
  32              		.align	2
  33              		.weak	_ZN6Thread10runWrapperEPv
  35              	_ZN6Thread10runWrapperEPv:
  36              	.LFB33:
  21:src/../h/syscall_cpp.hpp **** 
  22:src/../h/syscall_cpp.hpp **** private:
  23:src/../h/syscall_cpp.hpp ****     thread_t myHandle;
  24:src/../h/syscall_cpp.hpp ****     void (*body)(void*);
GAS LISTING /tmp/ccEzZKaD.s 			page 2


  25:src/../h/syscall_cpp.hpp ****     void* arg;
  26:src/../h/syscall_cpp.hpp **** 
  27:src/../h/syscall_cpp.hpp ****     static void runWrapper(void* thread) {
  37              		.loc 1 27 17 is_stmt 1
  38              		.cfi_startproc
  39              	.LVL1:
  28:src/../h/syscall_cpp.hpp ****         if(thread != nullptr) {
  40              		.loc 1 28 9
  41 0000 63080502 		beqz	a0,.L6
  27:src/../h/syscall_cpp.hpp ****         if(thread != nullptr) {
  42              		.loc 1 27 17 is_stmt 0
  43 0004 130101FF 		addi	sp,sp,-16
  44              		.cfi_def_cfa_offset 16
  45 0008 23341100 		sd	ra,8(sp)
  46 000c 23308100 		sd	s0,0(sp)
  47              		.cfi_offset 1, -8
  48              		.cfi_offset 8, -16
  49 0010 13040101 		addi	s0,sp,16
  50              		.cfi_def_cfa 8, 0
  29:src/../h/syscall_cpp.hpp ****             ((Thread*)thread)->run();
  51              		.loc 1 29 13 is_stmt 1
  52              		.loc 1 29 36 is_stmt 0
  53 0014 83370500 		ld	a5,0(a0)
  54 0018 83B70701 		ld	a5,16(a5)
  55              		.loc 1 29 35
  56 001c E7800700 		jalr	a5
  57              	.LVL2:
  30:src/../h/syscall_cpp.hpp ****         }
  31:src/../h/syscall_cpp.hpp ****     }
  58              		.loc 1 31 5
  59 0020 83308100 		ld	ra,8(sp)
  60              		.cfi_restore 1
  61 0024 03340100 		ld	s0,0(sp)
  62              		.cfi_restore 8
  63 0028 13010101 		addi	sp,sp,16
  64              		.cfi_def_cfa_register 2
  65 002c 67800000 		jr	ra
  66              	.LVL3:
  67              	.L6:
  68 0030 67800000 		ret
  69              		.cfi_endproc
  70              	.LFE33:
  72              		.section	.text._ZN14PeriodicThread18periodicActivationEv,"axG",@progbits,_ZN14PeriodicThread18peri
  73              		.align	2
  74              		.weak	_ZN14PeriodicThread18periodicActivationEv
  76              	_ZN14PeriodicThread18periodicActivationEv:
  77              	.LFB34:
  32:src/../h/syscall_cpp.hpp **** };
  33:src/../h/syscall_cpp.hpp **** 
  34:src/../h/syscall_cpp.hpp **** class PeriodicThread : public Thread {
  35:src/../h/syscall_cpp.hpp **** public:
  36:src/../h/syscall_cpp.hpp ****     void terminate();
  37:src/../h/syscall_cpp.hpp **** protected:
  38:src/../h/syscall_cpp.hpp ****     PeriodicThread(time_t period);
  39:src/../h/syscall_cpp.hpp ****     virtual void periodicActivation() {}
  78              		.loc 1 39 18 is_stmt 1
  79              		.cfi_startproc
GAS LISTING /tmp/ccEzZKaD.s 			page 3


  80              	.LVL4:
  81 0000 130101FF 		addi	sp,sp,-16
  82              		.cfi_def_cfa_offset 16
  83 0004 23348100 		sd	s0,8(sp)
  84              		.cfi_offset 8, -8
  85 0008 13040101 		addi	s0,sp,16
  86              		.cfi_def_cfa 8, 0
  87              		.loc 1 39 40 is_stmt 0
  88 000c 03348100 		ld	s0,8(sp)
  89              		.cfi_restore 8
  90 0010 13010101 		addi	sp,sp,16
  91              		.cfi_def_cfa_register 2
  92 0014 67800000 		jr	ra
  93              		.cfi_endproc
  94              	.LFE34:
  96              		.text
  97              		.align	2
  98              		.globl	_ZN6ThreadD2Ev
 100              	_ZN6ThreadD2Ev:
 101              	.LFB41:
 102              		.file 2 "src/syscall_cpp.cpp"
   1:src/syscall_cpp.cpp **** #include "../h/syscall_cpp.hpp"
   2:src/syscall_cpp.cpp **** 
   3:src/syscall_cpp.cpp **** Thread::Thread(void (*body)(void*), void* arg) {
   4:src/syscall_cpp.cpp ****     myHandle = nullptr;
   5:src/syscall_cpp.cpp ****     this->body = body;
   6:src/syscall_cpp.cpp ****     this->arg = arg;
   7:src/syscall_cpp.cpp **** }
   8:src/syscall_cpp.cpp **** 
   9:src/syscall_cpp.cpp **** int Thread::start() {
  10:src/syscall_cpp.cpp ****     if(myHandle != nullptr)
  11:src/syscall_cpp.cpp ****         return -1;
  12:src/syscall_cpp.cpp **** 
  13:src/syscall_cpp.cpp ****     return thread_create(&myHandle, runWrapper, this);
  14:src/syscall_cpp.cpp **** }
  15:src/syscall_cpp.cpp **** 
  16:src/syscall_cpp.cpp **** void Thread::dispatch() {
  17:src/syscall_cpp.cpp ****     thread_dispatch();
  18:src/syscall_cpp.cpp **** }
  19:src/syscall_cpp.cpp **** 
  20:src/syscall_cpp.cpp **** Thread::~Thread() {
 103              		.loc 2 20 1 is_stmt 1
 104              		.cfi_startproc
 105              		.cfi_personality 0x9b,DW.ref.__gxx_personality_v0
 106              		.cfi_lsda 0x1b,.LLSDA41
 107              	.LVL5:
 108 0000 130101FE 		addi	sp,sp,-32
 109              		.cfi_def_cfa_offset 32
 110 0004 233C1100 		sd	ra,24(sp)
 111 0008 23388100 		sd	s0,16(sp)
 112 000c 23349100 		sd	s1,8(sp)
 113              		.cfi_offset 1, -8
 114              		.cfi_offset 8, -16
 115              		.cfi_offset 9, -24
 116 0010 13040102 		addi	s0,sp,32
 117              		.cfi_def_cfa 8, 0
 118              	.LBB11:
GAS LISTING /tmp/ccEzZKaD.s 			page 4


 119              		.loc 2 20 17 is_stmt 0
 120 0014 97070000 		lla	a5,_ZTV6Thread+16
 120      93870700 
 121 001c 2330F500 		sd	a5,0(a0)
  21:src/syscall_cpp.cpp ****     delete myHandle;
 122              		.loc 2 21 5 is_stmt 1
 123              		.loc 2 21 12 is_stmt 0
 124 0020 83348500 		ld	s1,8(a0)
 125              		.loc 2 21 20
 126 0024 63800402 		beqz	s1,.L11
 127              	.LVL6:
 128              	.LBB12:
 129              	.LBB13:
 130              		.file 3 "src/../h/../h/tcb.hpp"
   1:src/../h/../h/tcb.hpp **** #ifndef PROJECT_BASE_TCB_HPP
   2:src/../h/../h/tcb.hpp **** #define PROJECT_BASE_TCB_HPP
   3:src/../h/../h/tcb.hpp **** 
   4:src/../h/../h/tcb.hpp **** #include "../lib/hw.h"
   5:src/../h/../h/tcb.hpp **** #include "scheduler.hpp"
   6:src/../h/../h/tcb.hpp **** 
   7:src/../h/../h/tcb.hpp **** // Thread Control Block
   8:src/../h/../h/tcb.hpp **** class TCB
   9:src/../h/../h/tcb.hpp **** {
  10:src/../h/../h/tcb.hpp **** public:
  11:src/../h/../h/tcb.hpp ****     void *operator new(size_t n) { return MemoryAllocator::mem_alloc((n + MEM_BLOCK_SIZE - 1) / MEM
  12:src/../h/../h/tcb.hpp ****     void *operator new[](size_t n) { return MemoryAllocator::mem_alloc((n + MEM_BLOCK_SIZE - 1) / M
  13:src/../h/../h/tcb.hpp **** 
  14:src/../h/../h/tcb.hpp ****     void operator delete(void *p) noexcept { MemoryAllocator::mem_free(p); }
  15:src/../h/../h/tcb.hpp ****     void operator delete[](void *p) noexcept { MemoryAllocator::mem_free(p); }
  16:src/../h/../h/tcb.hpp **** 
  17:src/../h/../h/tcb.hpp ****     ~TCB() { delete[] stack; }
 131              		.loc 3 17 14 is_stmt 1
 132              		.loc 3 17 23 is_stmt 0
 133 0028 03B50401 		ld	a0,16(s1)
 134              	.LVL7:
 135              		.loc 3 17 28
 136 002c 63060500 		beqz	a0,.L13
 137              		.loc 3 17 23
 138 0030 97000000 		call	_ZdaPv
 138      E7800000 
 139              	.LVL8:
 140              	.L13:
 141              	.LBE13:
 142              	.LBE12:
 143              	.LBB14:
 144              	.LBB15:
  14:src/../h/../h/tcb.hpp ****     void operator delete[](void *p) noexcept { MemoryAllocator::mem_free(p); }
 145              		.loc 3 14 46 is_stmt 1
  14:src/../h/../h/tcb.hpp ****     void operator delete[](void *p) noexcept { MemoryAllocator::mem_free(p); }
 146              		.loc 3 14 71 is_stmt 0
 147 0038 13850400 		mv	a0,s1
 148 003c 97000000 		call	_ZN15MemoryAllocator8mem_freeEPv
 148      E7800000 
 149              	.LVL9:
 150              	.L11:
 151              	.LBE15:
 152              	.LBE14:
GAS LISTING /tmp/ccEzZKaD.s 			page 5


 153              	.LBE11:
  22:src/syscall_cpp.cpp **** }
 154              		.loc 2 22 1
 155 0044 83308101 		ld	ra,24(sp)
 156              		.cfi_restore 1
 157 0048 03340101 		ld	s0,16(sp)
 158              		.cfi_restore 8
 159 004c 83348100 		ld	s1,8(sp)
 160              		.cfi_restore 9
 161 0050 13010102 		addi	sp,sp,32
 162              		.cfi_def_cfa_register 2
 163 0054 67800000 		jr	ra
 164              		.cfi_endproc
 165              	.LFE41:
 166              		.globl	__gxx_personality_v0
 167              		.section	.gcc_except_table,"a",@progbits
 168              	.LLSDA41:
 169 0000 FF       		.byte	0xff
 170 0001 FF       		.byte	0xff
 171 0002 03       		.byte	0x3
 172 0003 00       		.byte	0
 173              		.text
 175              		.globl	_ZN6ThreadD1Ev
 176              		.set	_ZN6ThreadD1Ev,_ZN6ThreadD2Ev
 177              		.section	.text._ZN14PeriodicThreadD2Ev,"axG",@progbits,_ZN14PeriodicThreadD5Ev,comdat
 178              		.align	2
 179              		.weak	_ZN14PeriodicThreadD2Ev
 181              	_ZN14PeriodicThreadD2Ev:
 182              	.LFB70:
  34:src/../h/syscall_cpp.hpp **** public:
 183              		.loc 1 34 7 is_stmt 1
 184              		.cfi_startproc
 185              	.LVL10:
 186 0000 130101FF 		addi	sp,sp,-16
 187              		.cfi_def_cfa_offset 16
 188 0004 23341100 		sd	ra,8(sp)
 189 0008 23308100 		sd	s0,0(sp)
 190              		.cfi_offset 1, -8
 191              		.cfi_offset 8, -16
 192 000c 13040101 		addi	s0,sp,16
 193              		.cfi_def_cfa 8, 0
 194              	.LBB16:
  34:src/../h/syscall_cpp.hpp **** public:
 195              		.loc 1 34 7 is_stmt 0
 196 0010 97070000 		lla	a5,_ZTV14PeriodicThread+16
 196      93870700 
 197 0018 2330F500 		sd	a5,0(a0)
 198 001c 97000000 		call	_ZN6ThreadD2Ev
 198      E7800000 
 199              	.LVL11:
 200              	.LBE16:
 201 0024 83308100 		ld	ra,8(sp)
 202              		.cfi_restore 1
 203 0028 03340100 		ld	s0,0(sp)
 204              		.cfi_restore 8
 205 002c 13010101 		addi	sp,sp,16
 206              		.cfi_def_cfa_register 2
GAS LISTING /tmp/ccEzZKaD.s 			page 6


 207 0030 67800000 		jr	ra
 208              		.cfi_endproc
 209              	.LFE70:
 211              		.weak	_ZN14PeriodicThreadD1Ev
 212              		.set	_ZN14PeriodicThreadD1Ev,_ZN14PeriodicThreadD2Ev
 213              		.text
 214              		.align	2
 215              		.globl	_ZN6ThreadD0Ev
 217              	_ZN6ThreadD0Ev:
 218              	.LFB43:
  20:src/syscall_cpp.cpp ****     delete myHandle;
 219              		.loc 2 20 1 is_stmt 1
 220              		.cfi_startproc
 221              	.LVL12:
 222 0058 130101FE 		addi	sp,sp,-32
 223              		.cfi_def_cfa_offset 32
 224 005c 233C1100 		sd	ra,24(sp)
 225 0060 23388100 		sd	s0,16(sp)
 226 0064 23349100 		sd	s1,8(sp)
 227              		.cfi_offset 1, -8
 228              		.cfi_offset 8, -16
 229              		.cfi_offset 9, -24
 230 0068 13040102 		addi	s0,sp,32
 231              		.cfi_def_cfa 8, 0
 232 006c 93040500 		mv	s1,a0
 233              		.loc 2 22 1 is_stmt 0
 234 0070 97000000 		call	_ZN6ThreadD1Ev
 234      E7800000 
 235              	.LVL13:
 236 0078 13850400 		mv	a0,s1
 237 007c 97000000 		call	_ZdlPv
 237      E7800000 
 238              	.LVL14:
 239 0084 83308101 		ld	ra,24(sp)
 240              		.cfi_restore 1
 241 0088 03340101 		ld	s0,16(sp)
 242              		.cfi_restore 8
 243 008c 83348100 		ld	s1,8(sp)
 244              		.cfi_restore 9
 245              	.LVL15:
 246 0090 13010102 		addi	sp,sp,32
 247              		.cfi_def_cfa_register 2
 248 0094 67800000 		jr	ra
 249              		.cfi_endproc
 250              	.LFE43:
 252              		.section	.text._ZN14PeriodicThreadD0Ev,"axG",@progbits,_ZN14PeriodicThreadD5Ev,comdat
 253              		.align	2
 254              		.weak	_ZN14PeriodicThreadD0Ev
 256              	_ZN14PeriodicThreadD0Ev:
 257              	.LFB72:
  34:src/../h/syscall_cpp.hpp **** public:
 258              		.loc 1 34 7 is_stmt 1
 259              		.cfi_startproc
 260              	.LVL16:
 261 0000 130101FE 		addi	sp,sp,-32
 262              		.cfi_def_cfa_offset 32
 263 0004 233C1100 		sd	ra,24(sp)
GAS LISTING /tmp/ccEzZKaD.s 			page 7


 264 0008 23388100 		sd	s0,16(sp)
 265 000c 23349100 		sd	s1,8(sp)
 266              		.cfi_offset 1, -8
 267              		.cfi_offset 8, -16
 268              		.cfi_offset 9, -24
 269 0010 13040102 		addi	s0,sp,32
 270              		.cfi_def_cfa 8, 0
 271 0014 93040500 		mv	s1,a0
 272              	.LVL17:
 273              	.LBB17:
 274              	.LBB18:
  34:src/../h/syscall_cpp.hpp **** public:
 275              		.loc 1 34 7 is_stmt 0
 276 0018 97070000 		lla	a5,_ZTV14PeriodicThread+16
 276      93870700 
 277 0020 2330F500 		sd	a5,0(a0)
 278 0024 97000000 		call	_ZN6ThreadD2Ev
 278      E7800000 
 279              	.LVL18:
 280              	.LBE18:
 281              	.LBE17:
 282 002c 13850400 		mv	a0,s1
 283 0030 97000000 		call	_ZdlPv
 283      E7800000 
 284              	.LVL19:
 285 0038 83308101 		ld	ra,24(sp)
 286              		.cfi_restore 1
 287 003c 03340101 		ld	s0,16(sp)
 288              		.cfi_restore 8
 289 0040 83348100 		ld	s1,8(sp)
 290              		.cfi_restore 9
 291              	.LVL20:
 292 0044 13010102 		addi	sp,sp,32
 293              		.cfi_def_cfa_register 2
 294 0048 67800000 		jr	ra
 295              		.cfi_endproc
 296              	.LFE72:
 298              		.text
 299              		.align	2
 300              		.globl	_ZN14PeriodicThread3runEv
 302              	_ZN14PeriodicThread3runEv:
 303              	.LFB51:
  23:src/syscall_cpp.cpp **** 
  24:src/syscall_cpp.cpp **** Thread::Thread() {
  25:src/syscall_cpp.cpp ****     myHandle = nullptr;
  26:src/syscall_cpp.cpp ****     arg = nullptr;
  27:src/syscall_cpp.cpp ****     body = nullptr;
  28:src/syscall_cpp.cpp **** }
  29:src/syscall_cpp.cpp **** 
  30:src/syscall_cpp.cpp **** int Thread::sleep(time_t time) {
  31:src/syscall_cpp.cpp ****     time_sleep(time);
  32:src/syscall_cpp.cpp ****     return 0;
  33:src/syscall_cpp.cpp **** }
  34:src/syscall_cpp.cpp **** 
  35:src/syscall_cpp.cpp **** PeriodicThread::PeriodicThread(time_t period) {
  36:src/syscall_cpp.cpp ****     this->period = period;
  37:src/syscall_cpp.cpp **** }
GAS LISTING /tmp/ccEzZKaD.s 			page 8


  38:src/syscall_cpp.cpp **** 
  39:src/syscall_cpp.cpp **** void PeriodicThread::run() {
 304              		.loc 2 39 28 is_stmt 1
 305              		.cfi_startproc
 306              	.LVL21:
 307 0098 130101FE 		addi	sp,sp,-32
 308              		.cfi_def_cfa_offset 32
 309 009c 233C1100 		sd	ra,24(sp)
 310 00a0 23388100 		sd	s0,16(sp)
 311 00a4 23349100 		sd	s1,8(sp)
 312              		.cfi_offset 1, -8
 313              		.cfi_offset 8, -16
 314              		.cfi_offset 9, -24
 315 00a8 13040102 		addi	s0,sp,32
 316              		.cfi_def_cfa 8, 0
 317 00ac 93040500 		mv	s1,a0
 318              	.LVL22:
 319              	.L23:
  40:src/syscall_cpp.cpp ****     while(period) {
 320              		.loc 2 40 5
 321              		.loc 2 40 11 is_stmt 0
 322 00b0 83B70402 		ld	a5,32(s1)
 323 00b4 63820702 		beqz	a5,.L21
  41:src/syscall_cpp.cpp ****         periodicActivation();
 324              		.loc 2 41 9 is_stmt 1
 325              		.loc 2 41 28 is_stmt 0
 326 00b8 83B70400 		ld	a5,0(s1)
 327 00bc 83B78701 		ld	a5,24(a5)
 328              		.loc 2 41 27
 329 00c0 13850400 		mv	a0,s1
 330 00c4 E7800700 		jalr	a5
 331              	.LVL23:
  42:src/syscall_cpp.cpp ****         time_sleep(period);
 332              		.loc 2 42 9 is_stmt 1
 333              		.loc 2 42 19 is_stmt 0
 334 00c8 03B50402 		ld	a0,32(s1)
 335 00cc 97000000 		call	_Z10time_sleepm
 335      E7800000 
 336              	.LVL24:
  40:src/syscall_cpp.cpp ****     while(period) {
 337              		.loc 2 40 5
 338 00d4 6FF0DFFD 		j	.L23
 339              	.L21:
  43:src/syscall_cpp.cpp ****     }
  44:src/syscall_cpp.cpp **** }
 340              		.loc 2 44 1
 341 00d8 83308101 		ld	ra,24(sp)
 342              		.cfi_restore 1
 343 00dc 03340101 		ld	s0,16(sp)
 344              		.cfi_restore 8
 345 00e0 83348100 		ld	s1,8(sp)
 346              		.cfi_restore 9
 347              	.LVL25:
 348 00e4 13010102 		addi	sp,sp,32
 349              		.cfi_def_cfa_register 2
 350 00e8 67800000 		jr	ra
 351              		.cfi_endproc
GAS LISTING /tmp/ccEzZKaD.s 			page 9


 352              	.LFE51:
 354              		.align	2
 355              		.globl	_ZN9SemaphoreD2Ev
 357              	_ZN9SemaphoreD2Ev:
 358              	.LFB57:
  45:src/syscall_cpp.cpp **** 
  46:src/syscall_cpp.cpp **** void PeriodicThread::terminate() {
  47:src/syscall_cpp.cpp ****     period = 0;
  48:src/syscall_cpp.cpp **** }
  49:src/syscall_cpp.cpp **** 
  50:src/syscall_cpp.cpp **** 
  51:src/syscall_cpp.cpp **** Semaphore::Semaphore(unsigned int init) {
  52:src/syscall_cpp.cpp ****     myHandle = nullptr;
  53:src/syscall_cpp.cpp ****     sem_open(&myHandle, init);
  54:src/syscall_cpp.cpp **** }
  55:src/syscall_cpp.cpp **** 
  56:src/syscall_cpp.cpp **** Semaphore::~Semaphore() {
 359              		.loc 2 56 1 is_stmt 1
 360              		.cfi_startproc
 361              		.cfi_personality 0x9b,DW.ref.__gxx_personality_v0
 362              		.cfi_lsda 0x1b,.LLSDA57
 363              	.LVL26:
 364 00ec 130101FF 		addi	sp,sp,-16
 365              		.cfi_def_cfa_offset 16
 366 00f0 23341100 		sd	ra,8(sp)
 367 00f4 23308100 		sd	s0,0(sp)
 368              		.cfi_offset 1, -8
 369              		.cfi_offset 8, -16
 370 00f8 13040101 		addi	s0,sp,16
 371              		.cfi_def_cfa 8, 0
 372              	.LBB19:
 373              		.loc 2 56 23 is_stmt 0
 374 00fc 97070000 		lla	a5,_ZTV9Semaphore+16
 374      93870700 
 375 0104 2330F500 		sd	a5,0(a0)
  57:src/syscall_cpp.cpp ****     sem_close(myHandle);
 376              		.loc 2 57 5 is_stmt 1
 377              		.loc 2 57 14 is_stmt 0
 378 0108 03358500 		ld	a0,8(a0)
 379              	.LVL27:
 380 010c 97000000 		call	_Z9sem_closeP5mySem
 380      E7800000 
 381              	.LVL28:
 382              	.LBE19:
  58:src/syscall_cpp.cpp **** }
 383              		.loc 2 58 1
 384 0114 83308100 		ld	ra,8(sp)
 385              		.cfi_restore 1
 386 0118 03340100 		ld	s0,0(sp)
 387              		.cfi_restore 8
 388 011c 13010101 		addi	sp,sp,16
 389              		.cfi_def_cfa_register 2
 390 0120 67800000 		jr	ra
 391              		.cfi_endproc
 392              	.LFE57:
 393              		.section	.gcc_except_table
 394              	.LLSDA57:
GAS LISTING /tmp/ccEzZKaD.s 			page 10


 395 0004 FF       		.byte	0xff
 396 0005 FF       		.byte	0xff
 397 0006 03       		.byte	0x3
 398 0007 00       		.byte	0
 399              		.text
 401              		.globl	_ZN9SemaphoreD1Ev
 402              		.set	_ZN9SemaphoreD1Ev,_ZN9SemaphoreD2Ev
 403              		.align	2
 404              		.globl	_ZN9SemaphoreD0Ev
 406              	_ZN9SemaphoreD0Ev:
 407              	.LFB59:
  56:src/syscall_cpp.cpp ****     sem_close(myHandle);
 408              		.loc 2 56 1 is_stmt 1
 409              		.cfi_startproc
 410              	.LVL29:
 411 0124 130101FE 		addi	sp,sp,-32
 412              		.cfi_def_cfa_offset 32
 413 0128 233C1100 		sd	ra,24(sp)
 414 012c 23388100 		sd	s0,16(sp)
 415 0130 23349100 		sd	s1,8(sp)
 416              		.cfi_offset 1, -8
 417              		.cfi_offset 8, -16
 418              		.cfi_offset 9, -24
 419 0134 13040102 		addi	s0,sp,32
 420              		.cfi_def_cfa 8, 0
 421 0138 93040500 		mv	s1,a0
 422              		.loc 2 58 1 is_stmt 0
 423 013c 97000000 		call	_ZN9SemaphoreD1Ev
 423      E7800000 
 424              	.LVL30:
 425 0144 13850400 		mv	a0,s1
 426 0148 97000000 		call	_ZdlPv
 426      E7800000 
 427              	.LVL31:
 428 0150 83308101 		ld	ra,24(sp)
 429              		.cfi_restore 1
 430 0154 03340101 		ld	s0,16(sp)
 431              		.cfi_restore 8
 432 0158 83348100 		ld	s1,8(sp)
 433              		.cfi_restore 9
 434              	.LVL32:
 435 015c 13010102 		addi	sp,sp,32
 436              		.cfi_def_cfa_register 2
 437 0160 67800000 		jr	ra
 438              		.cfi_endproc
 439              	.LFE59:
 441              		.align	2
 442              		.globl	_ZN6ThreadC2EPFvPvES0_
 444              	_ZN6ThreadC2EPFvPvES0_:
 445              	.LFB36:
   3:src/syscall_cpp.cpp ****     myHandle = nullptr;
 446              		.loc 2 3 1 is_stmt 1
 447              		.cfi_startproc
 448              	.LVL33:
 449 0164 130101FF 		addi	sp,sp,-16
 450              		.cfi_def_cfa_offset 16
 451 0168 23348100 		sd	s0,8(sp)
GAS LISTING /tmp/ccEzZKaD.s 			page 11


 452              		.cfi_offset 8, -8
 453 016c 13040101 		addi	s0,sp,16
 454              		.cfi_def_cfa 8, 0
 455              	.LBB20:
   3:src/syscall_cpp.cpp ****     myHandle = nullptr;
 456              		.loc 2 3 46 is_stmt 0
 457 0170 97070000 		lla	a5,_ZTV6Thread+16
 457      93870700 
 458 0178 2330F500 		sd	a5,0(a0)
   4:src/syscall_cpp.cpp ****     this->body = body;
 459              		.loc 2 4 5 is_stmt 1
   4:src/syscall_cpp.cpp ****     this->body = body;
 460              		.loc 2 4 14 is_stmt 0
 461 017c 23340500 		sd	zero,8(a0)
   5:src/syscall_cpp.cpp ****     this->arg = arg;
 462              		.loc 2 5 5 is_stmt 1
   5:src/syscall_cpp.cpp ****     this->arg = arg;
 463              		.loc 2 5 16 is_stmt 0
 464 0180 2338B500 		sd	a1,16(a0)
   6:src/syscall_cpp.cpp **** }
 465              		.loc 2 6 5 is_stmt 1
   6:src/syscall_cpp.cpp **** }
 466              		.loc 2 6 15 is_stmt 0
 467 0184 233CC500 		sd	a2,24(a0)
 468              	.LBE20:
   7:src/syscall_cpp.cpp **** 
 469              		.loc 2 7 1
 470 0188 03348100 		ld	s0,8(sp)
 471              		.cfi_restore 8
 472 018c 13010101 		addi	sp,sp,16
 473              		.cfi_def_cfa_register 2
 474 0190 67800000 		jr	ra
 475              		.cfi_endproc
 476              	.LFE36:
 478              		.globl	_ZN6ThreadC1EPFvPvES0_
 479              		.set	_ZN6ThreadC1EPFvPvES0_,_ZN6ThreadC2EPFvPvES0_
 480              		.align	2
 481              		.globl	_ZN6Thread5startEv
 483              	_ZN6Thread5startEv:
 484              	.LFB38:
   9:src/syscall_cpp.cpp ****     if(myHandle != nullptr)
 485              		.loc 2 9 21 is_stmt 1
 486              		.cfi_startproc
 487              	.LVL34:
  10:src/syscall_cpp.cpp ****         return -1;
 488              		.loc 2 10 5
  10:src/syscall_cpp.cpp ****         return -1;
 489              		.loc 2 10 8 is_stmt 0
 490 0194 83378500 		ld	a5,8(a0)
  10:src/syscall_cpp.cpp ****         return -1;
 491              		.loc 2 10 5
 492 0198 639E0702 		bnez	a5,.L33
   9:src/syscall_cpp.cpp ****     if(myHandle != nullptr)
 493              		.loc 2 9 21
 494 019c 130101FF 		addi	sp,sp,-16
 495              		.cfi_def_cfa_offset 16
 496 01a0 23341100 		sd	ra,8(sp)
GAS LISTING /tmp/ccEzZKaD.s 			page 12


 497 01a4 23308100 		sd	s0,0(sp)
 498              		.cfi_offset 1, -8
 499              		.cfi_offset 8, -16
 500 01a8 13040101 		addi	s0,sp,16
 501              		.cfi_def_cfa 8, 0
  13:src/syscall_cpp.cpp **** }
 502              		.loc 2 13 5 is_stmt 1
  13:src/syscall_cpp.cpp **** }
 503              		.loc 2 13 25 is_stmt 0
 504 01ac 13060500 		mv	a2,a0
 505 01b0 97050000 		lla	a1,_ZN6Thread10runWrapperEPv
 505      93850500 
 506 01b8 13058500 		addi	a0,a0,8
 507              	.LVL35:
 508 01bc 97000000 		call	_Z13thread_createPP3TCBPFvPvES2_
 508      E7800000 
 509              	.LVL36:
  14:src/syscall_cpp.cpp **** 
 510              		.loc 2 14 1
 511 01c4 83308100 		ld	ra,8(sp)
 512              		.cfi_restore 1
 513 01c8 03340100 		ld	s0,0(sp)
 514              		.cfi_restore 8
 515 01cc 13010101 		addi	sp,sp,16
 516              		.cfi_def_cfa_register 2
 517 01d0 67800000 		jr	ra
 518              	.LVL37:
 519              	.L33:
  11:src/syscall_cpp.cpp **** 
 520              		.loc 2 11 17
 521 01d4 1305F0FF 		li	a0,-1
 522              	.LVL38:
  14:src/syscall_cpp.cpp **** 
 523              		.loc 2 14 1
 524 01d8 67800000 		ret
 525              		.cfi_endproc
 526              	.LFE38:
 528              		.align	2
 529              		.globl	_ZN6Thread8dispatchEv
 531              	_ZN6Thread8dispatchEv:
 532              	.LFB39:
  16:src/syscall_cpp.cpp ****     thread_dispatch();
 533              		.loc 2 16 25 is_stmt 1
 534              		.cfi_startproc
 535 01dc 130101FF 		addi	sp,sp,-16
 536              		.cfi_def_cfa_offset 16
 537 01e0 23341100 		sd	ra,8(sp)
 538 01e4 23308100 		sd	s0,0(sp)
 539              		.cfi_offset 1, -8
 540              		.cfi_offset 8, -16
 541 01e8 13040101 		addi	s0,sp,16
 542              		.cfi_def_cfa 8, 0
  17:src/syscall_cpp.cpp **** }
 543              		.loc 2 17 5
  17:src/syscall_cpp.cpp **** }
 544              		.loc 2 17 20 is_stmt 0
 545 01ec 97000000 		call	_Z15thread_dispatchv
GAS LISTING /tmp/ccEzZKaD.s 			page 13


 545      E7800000 
 546              	.LVL39:
  18:src/syscall_cpp.cpp **** 
 547              		.loc 2 18 1
 548 01f4 83308100 		ld	ra,8(sp)
 549              		.cfi_restore 1
 550 01f8 03340100 		ld	s0,0(sp)
 551              		.cfi_restore 8
 552 01fc 13010101 		addi	sp,sp,16
 553              		.cfi_def_cfa_register 2
 554 0200 67800000 		jr	ra
 555              		.cfi_endproc
 556              	.LFE39:
 558              		.align	2
 559              		.globl	_ZN6ThreadC2Ev
 561              	_ZN6ThreadC2Ev:
 562              	.LFB45:
  24:src/syscall_cpp.cpp ****     myHandle = nullptr;
 563              		.loc 2 24 1 is_stmt 1
 564              		.cfi_startproc
 565              	.LVL40:
 566 0204 130101FF 		addi	sp,sp,-16
 567              		.cfi_def_cfa_offset 16
 568 0208 23348100 		sd	s0,8(sp)
 569              		.cfi_offset 8, -8
 570 020c 13040101 		addi	s0,sp,16
 571              		.cfi_def_cfa 8, 0
 572              	.LBB21:
  24:src/syscall_cpp.cpp ****     myHandle = nullptr;
 573              		.loc 2 24 16 is_stmt 0
 574 0210 97070000 		lla	a5,_ZTV6Thread+16
 574      93870700 
 575 0218 2330F500 		sd	a5,0(a0)
  25:src/syscall_cpp.cpp ****     arg = nullptr;
 576              		.loc 2 25 5 is_stmt 1
  25:src/syscall_cpp.cpp ****     arg = nullptr;
 577              		.loc 2 25 14 is_stmt 0
 578 021c 23340500 		sd	zero,8(a0)
  26:src/syscall_cpp.cpp ****     body = nullptr;
 579              		.loc 2 26 5 is_stmt 1
  26:src/syscall_cpp.cpp ****     body = nullptr;
 580              		.loc 2 26 9 is_stmt 0
 581 0220 233C0500 		sd	zero,24(a0)
  27:src/syscall_cpp.cpp **** }
 582              		.loc 2 27 5 is_stmt 1
  27:src/syscall_cpp.cpp **** }
 583              		.loc 2 27 10 is_stmt 0
 584 0224 23380500 		sd	zero,16(a0)
 585              	.LBE21:
  28:src/syscall_cpp.cpp **** 
 586              		.loc 2 28 1
 587 0228 03348100 		ld	s0,8(sp)
 588              		.cfi_restore 8
 589 022c 13010101 		addi	sp,sp,16
 590              		.cfi_def_cfa_register 2
 591 0230 67800000 		jr	ra
 592              		.cfi_endproc
GAS LISTING /tmp/ccEzZKaD.s 			page 14


 593              	.LFE45:
 595              		.globl	_ZN6ThreadC1Ev
 596              		.set	_ZN6ThreadC1Ev,_ZN6ThreadC2Ev
 597              		.align	2
 598              		.globl	_ZN6Thread5sleepEm
 600              	_ZN6Thread5sleepEm:
 601              	.LFB47:
  30:src/syscall_cpp.cpp ****     time_sleep(time);
 602              		.loc 2 30 32 is_stmt 1
 603              		.cfi_startproc
 604              	.LVL41:
 605 0234 130101FF 		addi	sp,sp,-16
 606              		.cfi_def_cfa_offset 16
 607 0238 23341100 		sd	ra,8(sp)
 608 023c 23308100 		sd	s0,0(sp)
 609              		.cfi_offset 1, -8
 610              		.cfi_offset 8, -16
 611 0240 13040101 		addi	s0,sp,16
 612              		.cfi_def_cfa 8, 0
  31:src/syscall_cpp.cpp ****     return 0;
 613              		.loc 2 31 5
  31:src/syscall_cpp.cpp ****     return 0;
 614              		.loc 2 31 15 is_stmt 0
 615 0244 97000000 		call	_Z10time_sleepm
 615      E7800000 
 616              	.LVL42:
  32:src/syscall_cpp.cpp **** }
 617              		.loc 2 32 5 is_stmt 1
  33:src/syscall_cpp.cpp **** 
 618              		.loc 2 33 1 is_stmt 0
 619 024c 13050000 		li	a0,0
 620 0250 83308100 		ld	ra,8(sp)
 621              		.cfi_restore 1
 622 0254 03340100 		ld	s0,0(sp)
 623              		.cfi_restore 8
 624 0258 13010101 		addi	sp,sp,16
 625              		.cfi_def_cfa_register 2
 626 025c 67800000 		jr	ra
 627              		.cfi_endproc
 628              	.LFE47:
 630              		.align	2
 631              		.globl	_ZN14PeriodicThreadC2Em
 633              	_ZN14PeriodicThreadC2Em:
 634              	.LFB49:
  35:src/syscall_cpp.cpp ****     this->period = period;
 635              		.loc 2 35 1 is_stmt 1
 636              		.cfi_startproc
 637              	.LVL43:
 638 0260 130101FE 		addi	sp,sp,-32
 639              		.cfi_def_cfa_offset 32
 640 0264 233C1100 		sd	ra,24(sp)
 641 0268 23388100 		sd	s0,16(sp)
 642 026c 23349100 		sd	s1,8(sp)
 643 0270 23302101 		sd	s2,0(sp)
 644              		.cfi_offset 1, -8
 645              		.cfi_offset 8, -16
 646              		.cfi_offset 9, -24
GAS LISTING /tmp/ccEzZKaD.s 			page 15


 647              		.cfi_offset 18, -32
 648 0274 13040102 		addi	s0,sp,32
 649              		.cfi_def_cfa 8, 0
 650 0278 93040500 		mv	s1,a0
 651 027c 13890500 		mv	s2,a1
 652              	.LBB22:
  35:src/syscall_cpp.cpp ****     this->period = period;
 653              		.loc 2 35 45 is_stmt 0
 654 0280 97000000 		call	_ZN6ThreadC2Ev
 654      E7800000 
 655              	.LVL44:
 656 0288 97070000 		lla	a5,_ZTV14PeriodicThread+16
 656      93870700 
 657 0290 23B0F400 		sd	a5,0(s1)
  36:src/syscall_cpp.cpp **** }
 658              		.loc 2 36 5 is_stmt 1
  36:src/syscall_cpp.cpp **** }
 659              		.loc 2 36 18 is_stmt 0
 660 0294 23B02403 		sd	s2,32(s1)
 661              	.LBE22:
  37:src/syscall_cpp.cpp **** 
 662              		.loc 2 37 1
 663 0298 83308101 		ld	ra,24(sp)
 664              		.cfi_restore 1
 665 029c 03340101 		ld	s0,16(sp)
 666              		.cfi_restore 8
 667 02a0 83348100 		ld	s1,8(sp)
 668              		.cfi_restore 9
 669              	.LVL45:
 670 02a4 03390100 		ld	s2,0(sp)
 671              		.cfi_restore 18
 672              	.LVL46:
 673 02a8 13010102 		addi	sp,sp,32
 674              		.cfi_def_cfa_register 2
 675 02ac 67800000 		jr	ra
 676              		.cfi_endproc
 677              	.LFE49:
 679              		.globl	_ZN14PeriodicThreadC1Em
 680              		.set	_ZN14PeriodicThreadC1Em,_ZN14PeriodicThreadC2Em
 681              		.align	2
 682              		.globl	_ZN14PeriodicThread9terminateEv
 684              	_ZN14PeriodicThread9terminateEv:
 685              	.LFB52:
  46:src/syscall_cpp.cpp ****     period = 0;
 686              		.loc 2 46 34 is_stmt 1
 687              		.cfi_startproc
 688              	.LVL47:
 689 02b0 130101FF 		addi	sp,sp,-16
 690              		.cfi_def_cfa_offset 16
 691 02b4 23348100 		sd	s0,8(sp)
 692              		.cfi_offset 8, -8
 693 02b8 13040101 		addi	s0,sp,16
 694              		.cfi_def_cfa 8, 0
  47:src/syscall_cpp.cpp **** }
 695              		.loc 2 47 5
  47:src/syscall_cpp.cpp **** }
 696              		.loc 2 47 12 is_stmt 0
GAS LISTING /tmp/ccEzZKaD.s 			page 16


 697 02bc 23300502 		sd	zero,32(a0)
  48:src/syscall_cpp.cpp **** 
 698              		.loc 2 48 1
 699 02c0 03348100 		ld	s0,8(sp)
 700              		.cfi_restore 8
 701 02c4 13010101 		addi	sp,sp,16
 702              		.cfi_def_cfa_register 2
 703 02c8 67800000 		jr	ra
 704              		.cfi_endproc
 705              	.LFE52:
 707              		.align	2
 708              		.globl	_ZN9SemaphoreC2Ej
 710              	_ZN9SemaphoreC2Ej:
 711              	.LFB54:
  51:src/syscall_cpp.cpp ****     myHandle = nullptr;
 712              		.loc 2 51 1 is_stmt 1
 713              		.cfi_startproc
 714              	.LVL48:
 715 02cc 130101FF 		addi	sp,sp,-16
 716              		.cfi_def_cfa_offset 16
 717 02d0 23341100 		sd	ra,8(sp)
 718 02d4 23308100 		sd	s0,0(sp)
 719              		.cfi_offset 1, -8
 720              		.cfi_offset 8, -16
 721 02d8 13040101 		addi	s0,sp,16
 722              		.cfi_def_cfa 8, 0
 723              	.LBB23:
  51:src/syscall_cpp.cpp ****     myHandle = nullptr;
 724              		.loc 2 51 39 is_stmt 0
 725 02dc 97070000 		lla	a5,_ZTV9Semaphore+16
 725      93870700 
 726 02e4 2330F500 		sd	a5,0(a0)
  52:src/syscall_cpp.cpp ****     sem_open(&myHandle, init);
 727              		.loc 2 52 5 is_stmt 1
  52:src/syscall_cpp.cpp ****     sem_open(&myHandle, init);
 728              		.loc 2 52 14 is_stmt 0
 729 02e8 23340500 		sd	zero,8(a0)
  53:src/syscall_cpp.cpp **** }
 730              		.loc 2 53 5 is_stmt 1
  53:src/syscall_cpp.cpp **** }
 731              		.loc 2 53 13 is_stmt 0
 732 02ec 13058500 		addi	a0,a0,8
 733              	.LVL49:
 734 02f0 97000000 		call	_Z8sem_openPP5mySemj
 734      E7800000 
 735              	.LVL50:
 736              	.LBE23:
  54:src/syscall_cpp.cpp **** 
 737              		.loc 2 54 1
 738 02f8 83308100 		ld	ra,8(sp)
 739              		.cfi_restore 1
 740 02fc 03340100 		ld	s0,0(sp)
 741              		.cfi_restore 8
 742 0300 13010101 		addi	sp,sp,16
 743              		.cfi_def_cfa_register 2
 744 0304 67800000 		jr	ra
 745              		.cfi_endproc
GAS LISTING /tmp/ccEzZKaD.s 			page 17


 746              	.LFE54:
 748              		.globl	_ZN9SemaphoreC1Ej
 749              		.set	_ZN9SemaphoreC1Ej,_ZN9SemaphoreC2Ej
 750              		.align	2
 751              		.globl	_ZN9Semaphore6signalEv
 753              	_ZN9Semaphore6signalEv:
 754              	.LFB60:
  59:src/syscall_cpp.cpp **** 
  60:src/syscall_cpp.cpp **** int Semaphore::signal() {
 755              		.loc 2 60 25 is_stmt 1
 756              		.cfi_startproc
 757              	.LVL51:
 758 0308 130101FF 		addi	sp,sp,-16
 759              		.cfi_def_cfa_offset 16
 760 030c 23341100 		sd	ra,8(sp)
 761 0310 23308100 		sd	s0,0(sp)
 762              		.cfi_offset 1, -8
 763              		.cfi_offset 8, -16
 764 0314 13040101 		addi	s0,sp,16
 765              		.cfi_def_cfa 8, 0
  61:src/syscall_cpp.cpp ****     return sem_signal(myHandle);
 766              		.loc 2 61 5
 767              		.loc 2 61 22 is_stmt 0
 768 0318 03358500 		ld	a0,8(a0)
 769              	.LVL52:
 770 031c 97000000 		call	_Z10sem_signalP5mySem
 770      E7800000 
 771              	.LVL53:
  62:src/syscall_cpp.cpp **** }
 772              		.loc 2 62 1
 773 0324 83308100 		ld	ra,8(sp)
 774              		.cfi_restore 1
 775 0328 03340100 		ld	s0,0(sp)
 776              		.cfi_restore 8
 777 032c 13010101 		addi	sp,sp,16
 778              		.cfi_def_cfa_register 2
 779 0330 67800000 		jr	ra
 780              		.cfi_endproc
 781              	.LFE60:
 783              		.align	2
 784              		.globl	_ZN9Semaphore4waitEv
 786              	_ZN9Semaphore4waitEv:
 787              	.LFB61:
  63:src/syscall_cpp.cpp **** 
  64:src/syscall_cpp.cpp **** int Semaphore::wait() {
 788              		.loc 2 64 23 is_stmt 1
 789              		.cfi_startproc
 790              	.LVL54:
 791 0334 130101FF 		addi	sp,sp,-16
 792              		.cfi_def_cfa_offset 16
 793 0338 23341100 		sd	ra,8(sp)
 794 033c 23308100 		sd	s0,0(sp)
 795              		.cfi_offset 1, -8
 796              		.cfi_offset 8, -16
 797 0340 13040101 		addi	s0,sp,16
 798              		.cfi_def_cfa 8, 0
  65:src/syscall_cpp.cpp ****     return sem_wait(myHandle);
GAS LISTING /tmp/ccEzZKaD.s 			page 18


 799              		.loc 2 65 5
 800              		.loc 2 65 20 is_stmt 0
 801 0344 03358500 		ld	a0,8(a0)
 802              	.LVL55:
 803 0348 97000000 		call	_Z8sem_waitP5mySem
 803      E7800000 
 804              	.LVL56:
  66:src/syscall_cpp.cpp **** }
 805              		.loc 2 66 1
 806 0350 83308100 		ld	ra,8(sp)
 807              		.cfi_restore 1
 808 0354 03340100 		ld	s0,0(sp)
 809              		.cfi_restore 8
 810 0358 13010101 		addi	sp,sp,16
 811              		.cfi_def_cfa_register 2
 812 035c 67800000 		jr	ra
 813              		.cfi_endproc
 814              	.LFE61:
 816              		.align	2
 817              		.globl	_ZN9Semaphore7tryWaitEv
 819              	_ZN9Semaphore7tryWaitEv:
 820              	.LFB62:
  67:src/syscall_cpp.cpp **** 
  68:src/syscall_cpp.cpp **** int Semaphore::tryWait() {
 821              		.loc 2 68 26 is_stmt 1
 822              		.cfi_startproc
 823              	.LVL57:
 824 0360 130101FF 		addi	sp,sp,-16
 825              		.cfi_def_cfa_offset 16
 826 0364 23341100 		sd	ra,8(sp)
 827 0368 23308100 		sd	s0,0(sp)
 828              		.cfi_offset 1, -8
 829              		.cfi_offset 8, -16
 830 036c 13040101 		addi	s0,sp,16
 831              		.cfi_def_cfa 8, 0
  69:src/syscall_cpp.cpp ****     return sem_trywait(myHandle);
 832              		.loc 2 69 5
 833              		.loc 2 69 23 is_stmt 0
 834 0370 03358500 		ld	a0,8(a0)
 835              	.LVL58:
 836 0374 97000000 		call	_Z11sem_trywaitP5mySem
 836      E7800000 
 837              	.LVL59:
  70:src/syscall_cpp.cpp **** }
 838              		.loc 2 70 1
 839 037c 83308100 		ld	ra,8(sp)
 840              		.cfi_restore 1
 841 0380 03340100 		ld	s0,0(sp)
 842              		.cfi_restore 8
 843 0384 13010101 		addi	sp,sp,16
 844              		.cfi_def_cfa_register 2
 845 0388 67800000 		jr	ra
 846              		.cfi_endproc
 847              	.LFE62:
 849              		.align	2
 850              		.globl	_ZN9Semaphore9timedWaitEm
 852              	_ZN9Semaphore9timedWaitEm:
GAS LISTING /tmp/ccEzZKaD.s 			page 19


 853              	.LFB63:
  71:src/syscall_cpp.cpp **** 
  72:src/syscall_cpp.cpp **** int Semaphore::timedWait(time_t time) {
 854              		.loc 2 72 39 is_stmt 1
 855              		.cfi_startproc
 856              	.LVL60:
 857 038c 130101FF 		addi	sp,sp,-16
 858              		.cfi_def_cfa_offset 16
 859 0390 23341100 		sd	ra,8(sp)
 860 0394 23308100 		sd	s0,0(sp)
 861              		.cfi_offset 1, -8
 862              		.cfi_offset 8, -16
 863 0398 13040101 		addi	s0,sp,16
 864              		.cfi_def_cfa 8, 0
  73:src/syscall_cpp.cpp ****     return sem_timedwait(myHandle, time);
 865              		.loc 2 73 5
 866              		.loc 2 73 25 is_stmt 0
 867 039c 03358500 		ld	a0,8(a0)
 868              	.LVL61:
 869 03a0 97000000 		call	_Z13sem_timedwaitP5mySemm
 869      E7800000 
 870              	.LVL62:
  74:src/syscall_cpp.cpp **** }
 871              		.loc 2 74 1
 872 03a8 83308100 		ld	ra,8(sp)
 873              		.cfi_restore 1
 874 03ac 03340100 		ld	s0,0(sp)
 875              		.cfi_restore 8
 876 03b0 13010101 		addi	sp,sp,16
 877              		.cfi_def_cfa_register 2
 878 03b4 67800000 		jr	ra
 879              		.cfi_endproc
 880              	.LFE63:
 882              		.align	2
 883              		.globl	_ZN7Console4getcEv
 885              	_ZN7Console4getcEv:
 886              	.LFB64:
  75:src/syscall_cpp.cpp **** 
  76:src/syscall_cpp.cpp **** 
  77:src/syscall_cpp.cpp **** char Console::getc() {
 887              		.loc 2 77 22 is_stmt 1
 888              		.cfi_startproc
 889 03b8 130101FF 		addi	sp,sp,-16
 890              		.cfi_def_cfa_offset 16
 891 03bc 23341100 		sd	ra,8(sp)
 892 03c0 23308100 		sd	s0,0(sp)
 893              		.cfi_offset 1, -8
 894              		.cfi_offset 8, -16
 895 03c4 13040101 		addi	s0,sp,16
 896              		.cfi_def_cfa 8, 0
  78:src/syscall_cpp.cpp ****     return ::getc();
 897              		.loc 2 78 5
 898              		.loc 2 78 18 is_stmt 0
 899 03c8 97000000 		call	_Z4getcv
 899      E7800000 
 900              	.LVL63:
  79:src/syscall_cpp.cpp **** }
GAS LISTING /tmp/ccEzZKaD.s 			page 20


 901              		.loc 2 79 1
 902 03d0 83308100 		ld	ra,8(sp)
 903              		.cfi_restore 1
 904 03d4 03340100 		ld	s0,0(sp)
 905              		.cfi_restore 8
 906 03d8 13010101 		addi	sp,sp,16
 907              		.cfi_def_cfa_register 2
 908 03dc 67800000 		jr	ra
 909              		.cfi_endproc
 910              	.LFE64:
 912              		.align	2
 913              		.globl	_ZN7Console4putcEc
 915              	_ZN7Console4putcEc:
 916              	.LFB65:
  80:src/syscall_cpp.cpp **** 
  81:src/syscall_cpp.cpp **** void Console::putc(char c) {
 917              		.loc 2 81 28 is_stmt 1
 918              		.cfi_startproc
 919              	.LVL64:
 920 03e0 130101FF 		addi	sp,sp,-16
 921              		.cfi_def_cfa_offset 16
 922 03e4 23341100 		sd	ra,8(sp)
 923 03e8 23308100 		sd	s0,0(sp)
 924              		.cfi_offset 1, -8
 925              		.cfi_offset 8, -16
 926 03ec 13040101 		addi	s0,sp,16
 927              		.cfi_def_cfa 8, 0
  82:src/syscall_cpp.cpp ****     return ::putc(c);
 928              		.loc 2 82 5
 929              		.loc 2 82 18 is_stmt 0
 930 03f0 97000000 		call	_Z4putcc
 930      E7800000 
 931              	.LVL65:
  83:src/syscall_cpp.cpp **** }
 932              		.loc 2 83 1
 933 03f8 83308100 		ld	ra,8(sp)
 934              		.cfi_restore 1
 935 03fc 03340100 		ld	s0,0(sp)
 936              		.cfi_restore 8
 937 0400 13010101 		addi	sp,sp,16
 938              		.cfi_def_cfa_register 2
 939 0404 67800000 		jr	ra
 940              		.cfi_endproc
 941              	.LFE65:
 943              		.weak	_ZTV6Thread
 944              		.section	.rodata._ZTV6Thread,"aG",@progbits,_ZTV6Thread,comdat
 945              		.align	3
 948              	_ZTV6Thread:
 949 0000 00000000 		.dword	0
 949      00000000 
 950 0008 00000000 		.dword	0
 950      00000000 
 951 0010 00000000 		.dword	_ZN6ThreadD1Ev
 951      00000000 
 952 0018 00000000 		.dword	_ZN6ThreadD0Ev
 952      00000000 
 953 0020 00000000 		.dword	_ZN6Thread3runEv
GAS LISTING /tmp/ccEzZKaD.s 			page 21


 953      00000000 
 954              		.weak	_ZTV14PeriodicThread
 955              		.section	.rodata._ZTV14PeriodicThread,"aG",@progbits,_ZTV14PeriodicThread,comdat
 956              		.align	3
 959              	_ZTV14PeriodicThread:
 960 0000 00000000 		.dword	0
 960      00000000 
 961 0008 00000000 		.dword	0
 961      00000000 
 962 0010 00000000 		.dword	_ZN14PeriodicThreadD1Ev
 962      00000000 
 963 0018 00000000 		.dword	_ZN14PeriodicThreadD0Ev
 963      00000000 
 964 0020 00000000 		.dword	_ZN14PeriodicThread3runEv
 964      00000000 
 965 0028 00000000 		.dword	_ZN14PeriodicThread18periodicActivationEv
 965      00000000 
 966              		.weak	_ZTV9Semaphore
 967              		.section	.rodata._ZTV9Semaphore,"aG",@progbits,_ZTV9Semaphore,comdat
 968              		.align	3
 971              	_ZTV9Semaphore:
 972 0000 00000000 		.dword	0
 972      00000000 
 973 0008 00000000 		.dword	0
 973      00000000 
 974 0010 00000000 		.dword	_ZN9SemaphoreD1Ev
 974      00000000 
 975 0018 00000000 		.dword	_ZN9SemaphoreD0Ev
 975      00000000 
 976              		.text
 977              	.Letext0:
 978              		.file 4 "src/../h/../lib/hw.h"
 979              		.file 5 "src/../h/../h/../h/MemoryAllocator.hpp"
 980              		.file 6 "src/../h/../h/list.hpp"
 981              		.file 7 "src/../h/../h/mySem.hpp"
 982              		.file 8 "src/../h/syscall_c.hpp"
 5447              		.align	3
 5450              	DW.ref.__gxx_personality_v0:
 5451 0000 00000000 		.dword	__gxx_personality_v0
 5451      00000000 
 5452              		.ident	"GCC: (GNU) 8.3.0"
GAS LISTING /tmp/ccEzZKaD.s 			page 22

