GAS LISTING /tmp/cc7aQfY0.s 			page 1


   1              		.file	"tcb.cpp"
   2              		.option nopic
   3              		.option norelax
   4              		.text
   5              	.Ltext0:
   6              		.align	2
   8              	_Z41__static_initialization_and_destruction_0ii:
   9              	.LFB64:
  10              		.file 1 "src/tcb.cpp"
   1:src/tcb.cpp   **** #include "../h/tcb.hpp"
   2:src/tcb.cpp   **** #include "../h/riscv.hpp"
   3:src/tcb.cpp   **** #include "../h/syscall_c.hpp"
   4:src/tcb.cpp   **** #include "../h/operation_codes.hpp"
   5:src/tcb.cpp   **** #include "../test/printing.hpp"
   6:src/tcb.cpp   **** 
   7:src/tcb.cpp   **** TCB *TCB::running = nullptr;
   8:src/tcb.cpp   **** 
   9:src/tcb.cpp   **** uint64 TCB::timeSliceCounter = 0;
  10:src/tcb.cpp   **** 
  11:src/tcb.cpp   **** List<TCB> TCB::sleepingThreads;
  12:src/tcb.cpp   **** 
  13:src/tcb.cpp   **** TCB *TCB::createThread(Body body, uint64 *stack, void *arg)
  14:src/tcb.cpp   **** {
  15:src/tcb.cpp   ****     return new TCB(body, stack, arg, TIME_SLICE);
  16:src/tcb.cpp   **** }
  17:src/tcb.cpp   **** 
  18:src/tcb.cpp   **** void TCB::yield()
  19:src/tcb.cpp   **** {
  20:src/tcb.cpp   ****     __asm__ volatile("ecall");
  21:src/tcb.cpp   **** }
  22:src/tcb.cpp   **** 
  23:src/tcb.cpp   **** void TCB::dispatch()
  24:src/tcb.cpp   **** {
  25:src/tcb.cpp   ****     TCB *old = running;
  26:src/tcb.cpp   ****     if (!old->isFinished())
  27:src/tcb.cpp   ****     {
  28:src/tcb.cpp   ****         Scheduler::put(old);
  29:src/tcb.cpp   ****     }
  30:src/tcb.cpp   ****     running = Scheduler::get();
  31:src/tcb.cpp   **** 
  32:src/tcb.cpp   ****     contextSwitch(&old->context, &running->context);
  33:src/tcb.cpp   **** }
  34:src/tcb.cpp   **** 
  35:src/tcb.cpp   **** 
  36:src/tcb.cpp   **** void TCB::threadWrapper()
  37:src/tcb.cpp   **** {
  38:src/tcb.cpp   ****     Riscv::popSppSpie();
  39:src/tcb.cpp   ****     running->body(running->arg);
  40:src/tcb.cpp   ****     thread_exit();
  41:src/tcb.cpp   **** }
  42:src/tcb.cpp   **** 
  43:src/tcb.cpp   **** void TCB::addToSleepingList(TCB* thread, int time)
  44:src/tcb.cpp   **** {
  45:src/tcb.cpp   ****     thread->sleepTime = time;
  46:src/tcb.cpp   ****     sleepingThreads.addLast(thread);
  47:src/tcb.cpp   ****     
  48:src/tcb.cpp   ****     //context switch
GAS LISTING /tmp/cc7aQfY0.s 			page 2


  49:src/tcb.cpp   ****     TCB* old = running;
  50:src/tcb.cpp   ****     running = Scheduler::get();
  51:src/tcb.cpp   ****     contextSwitch(&old->context, &TCB::running->context);
  52:src/tcb.cpp   **** }
  53:src/tcb.cpp   **** 
  54:src/tcb.cpp   **** void TCB::checkSleepingList(){
  55:src/tcb.cpp   ****     if(sleepingThreads.setPointer() == 0) {
  56:src/tcb.cpp   ****         while(1){
  57:src/tcb.cpp   ****             TCB* thread = sleepingThreads.getData();
  58:src/tcb.cpp   ****             thread->sleepTime--;
  59:src/tcb.cpp   ****             if(thread->sleepTime <= 0){
  60:src/tcb.cpp   ****                 sleepingThreads.removeElem();
  61:src/tcb.cpp   ****                 Scheduler::put(thread);
  62:src/tcb.cpp   ****             }
  63:src/tcb.cpp   ****             if(sleepingThreads.movePointer() == -1) break;
  64:src/tcb.cpp   ****         }
  65:src/tcb.cpp   ****     }
  66:src/tcb.cpp   **** }
  11              		.loc 1 66 1
  12              		.cfi_startproc
  13              	.LVL0:
  14 0000 130101FF 		addi	sp,sp,-16
  15              		.cfi_def_cfa_offset 16
  16 0004 23348100 		sd	s0,8(sp)
  17              		.cfi_offset 8, -8
  18 0008 13040101 		addi	s0,sp,16
  19              		.cfi_def_cfa 8, 0
  20              		.loc 1 66 1 is_stmt 0
  21 000c 93071000 		li	a5,1
  22 0010 6308F500 		beq	a0,a5,.L4
  23              	.L1:
  24 0014 03348100 		ld	s0,8(sp)
  25              		.cfi_remember_state
  26              		.cfi_restore 8
  27 0018 13010101 		addi	sp,sp,16
  28              		.cfi_def_cfa_register 2
  29 001c 67800000 		jr	ra
  30              	.L4:
  31              		.cfi_restore_state
  32              		.loc 1 66 1 discriminator 1
  33 0020 B7070100 		li	a5,65536
  34 0024 9387F7FF 		addi	a5,a5,-1
  35 0028 E396F5FE 		bne	a1,a5,.L1
  36              	.LVL1:
  37              	.LBB22:
  38              	.LBB23:
  39              	.LBB24:
  40              		.file 2 "src/../h/list.hpp"
   1:src/../h/list.hpp **** #ifndef OS1_VEZBE07_RISCV_CONTEXT_SWITCH_2_INTERRUPT_LIST_HPP
   2:src/../h/list.hpp **** #define OS1_VEZBE07_RISCV_CONTEXT_SWITCH_2_INTERRUPT_LIST_HPP
   3:src/../h/list.hpp **** 
   4:src/../h/list.hpp **** #include "../h/MemoryAllocator.hpp"
   5:src/../h/list.hpp **** 
   6:src/../h/list.hpp **** 
   7:src/../h/list.hpp **** template <typename T>
   8:src/../h/list.hpp **** class List
   9:src/../h/list.hpp **** {
GAS LISTING /tmp/cc7aQfY0.s 			page 3


  10:src/../h/list.hpp **** private:
  11:src/../h/list.hpp ****     struct Elem
  12:src/../h/list.hpp ****     {
  13:src/../h/list.hpp ****         T *data;
  14:src/../h/list.hpp ****         Elem *next;
  15:src/../h/list.hpp **** 
  16:src/../h/list.hpp ****         Elem(T *data, Elem *next) : data(data), next(next) {}
  17:src/../h/list.hpp ****     };
  18:src/../h/list.hpp **** 
  19:src/../h/list.hpp ****     Elem *head, *tail;
  20:src/../h/list.hpp ****     
  21:src/../h/list.hpp ****     Elem* pointer;
  22:src/../h/list.hpp ****     
  23:src/../h/list.hpp **** public:
  24:src/../h/list.hpp ****     List() : head(0), tail(0), pointer(0) {}
  41              		.loc 2 24 41
  42 002c 97070000 		lla	a5,.LANCHOR0
  42      93870700 
  43 0034 23B00700 		sd	zero,0(a5)
  44 0038 23B40700 		sd	zero,8(a5)
  45 003c 23B80700 		sd	zero,16(a5)
  46              	.LBE24:
  47              	.LBE23:
  48              	.LBE22:
  49              		.loc 1 66 1
  50 0040 6FF05FFD 		j	.L1
  51              		.cfi_endproc
  52              	.LFE64:
  54              		.align	2
  55              		.globl	_ZN3TCB13threadWrapperEv
  57              	_ZN3TCB13threadWrapperEv:
  58              	.LFB51:
  37:src/tcb.cpp   ****     Riscv::popSppSpie();
  59              		.loc 1 37 1 is_stmt 1
  60              		.cfi_startproc
  61 0044 130101FF 		addi	sp,sp,-16
  62              		.cfi_def_cfa_offset 16
  63 0048 23341100 		sd	ra,8(sp)
  64 004c 23308100 		sd	s0,0(sp)
  65              		.cfi_offset 1, -8
  66              		.cfi_offset 8, -16
  67 0050 13040101 		addi	s0,sp,16
  68              		.cfi_def_cfa 8, 0
  38:src/tcb.cpp   ****     running->body(running->arg);
  69              		.loc 1 38 5
  38:src/tcb.cpp   ****     running->body(running->arg);
  70              		.loc 1 38 22 is_stmt 0
  71 0054 97000000 		call	_ZN5Riscv10popSppSpieEv
  71      E7800000 
  72              	.LVL2:
  39:src/tcb.cpp   ****     thread_exit();
  73              		.loc 1 39 5 is_stmt 1
  39:src/tcb.cpp   ****     thread_exit();
  74              		.loc 1 39 14 is_stmt 0
  75 005c 97070000 		lla	a5,_ZN3TCB7runningE
  75      93870700 
  76 0064 83B70700 		ld	a5,0(a5)
GAS LISTING /tmp/cc7aQfY0.s 			page 4


  77 0068 03B70700 		ld	a4,0(a5)
  39:src/tcb.cpp   ****     thread_exit();
  78              		.loc 1 39 18
  79 006c 03B58700 		ld	a0,8(a5)
  80 0070 E7000700 		jalr	a4
  81              	.LVL3:
  40:src/tcb.cpp   **** }
  82              		.loc 1 40 5 is_stmt 1
  40:src/tcb.cpp   **** }
  83              		.loc 1 40 16 is_stmt 0
  84 0074 97000000 		call	_Z11thread_exitv
  84      E7800000 
  85              	.LVL4:
  41:src/tcb.cpp   **** 
  86              		.loc 1 41 1
  87 007c 83308100 		ld	ra,8(sp)
  88              		.cfi_restore 1
  89 0080 03340100 		ld	s0,0(sp)
  90              		.cfi_restore 8
  91 0084 13010101 		addi	sp,sp,16
  92              		.cfi_def_cfa_register 2
  93 0088 67800000 		jr	ra
  94              		.cfi_endproc
  95              	.LFE51:
  97              		.align	2
  98              		.globl	_ZN3TCB12createThreadEPFvPvEPmS0_
 100              	_ZN3TCB12createThreadEPFvPvEPmS0_:
 101              	.LFB48:
  14:src/tcb.cpp   ****     return new TCB(body, stack, arg, TIME_SLICE);
 102              		.loc 1 14 1 is_stmt 1
 103              		.cfi_startproc
 104              		.cfi_personality 0x9b,DW.ref.__gxx_personality_v0
 105              		.cfi_lsda 0x1b,.LLSDA48
 106              	.LVL5:
 107 008c 130101FD 		addi	sp,sp,-48
 108              		.cfi_def_cfa_offset 48
 109 0090 23341102 		sd	ra,40(sp)
 110 0094 23308102 		sd	s0,32(sp)
 111 0098 233C9100 		sd	s1,24(sp)
 112 009c 23382101 		sd	s2,16(sp)
 113 00a0 23343101 		sd	s3,8(sp)
 114 00a4 23304101 		sd	s4,0(sp)
 115              		.cfi_offset 1, -8
 116              		.cfi_offset 8, -16
 117              		.cfi_offset 9, -24
 118              		.cfi_offset 18, -32
 119              		.cfi_offset 19, -40
 120              		.cfi_offset 20, -48
 121 00a8 13040103 		addi	s0,sp,48
 122              		.cfi_def_cfa 8, 0
 123 00ac 93090500 		mv	s3,a0
 124 00b0 13890500 		mv	s2,a1
 125 00b4 130A0600 		mv	s4,a2
  15:src/tcb.cpp   **** }
 126              		.loc 1 15 5
 127              	.LVL6:
 128              	.LBB32:
GAS LISTING /tmp/cc7aQfY0.s 			page 5


 129              	.LBB33:
 130              		.file 3 "src/../h/tcb.hpp"
   1:src/../h/tcb.hpp **** #ifndef PROJECT_BASE_TCB_HPP
   2:src/../h/tcb.hpp **** #define PROJECT_BASE_TCB_HPP
   3:src/../h/tcb.hpp **** 
   4:src/../h/tcb.hpp **** #include "../lib/hw.h"
   5:src/../h/tcb.hpp **** #include "scheduler.hpp"
   6:src/../h/tcb.hpp **** 
   7:src/../h/tcb.hpp **** // Thread Control Block
   8:src/../h/tcb.hpp **** class TCB
   9:src/../h/tcb.hpp **** {
  10:src/../h/tcb.hpp **** public:
  11:src/../h/tcb.hpp ****     void *operator new(size_t n) { return MemoryAllocator::mem_alloc((n + MEM_BLOCK_SIZE - 1) / MEM
 131              		.loc 3 11 36
 132              		.loc 3 11 69 is_stmt 0
 133 00b8 13051000 		li	a0,1
 134              	.LVL7:
 135              	.LEHB0:
 136 00bc 97000000 		call	_ZN15MemoryAllocator9mem_allocEm
 136      E7800000 
 137              	.LVL8:
 138              	.LEHE0:
 139 00c4 93040500 		mv	s1,a0
 140              	.LVL9:
 141              	.LBE33:
 142              	.LBE32:
 143              	.LBB34:
 144              	.LBB35:
  12:src/../h/tcb.hpp ****     void *operator new[](size_t n) { return MemoryAllocator::mem_alloc((n + MEM_BLOCK_SIZE - 1) / M
  13:src/../h/tcb.hpp **** 
  14:src/../h/tcb.hpp ****     void operator delete(void *p) noexcept { MemoryAllocator::mem_free(p); }
  15:src/../h/tcb.hpp ****     void operator delete[](void *p) noexcept { MemoryAllocator::mem_free(p); }
  16:src/../h/tcb.hpp **** 
  17:src/../h/tcb.hpp ****     ~TCB() { delete[] stack; }
  18:src/../h/tcb.hpp **** 
  19:src/../h/tcb.hpp ****     bool isFinished() const { return finished; }
  20:src/../h/tcb.hpp **** 
  21:src/../h/tcb.hpp ****     void setFinished(bool value) { finished = value; }
  22:src/../h/tcb.hpp **** 
  23:src/../h/tcb.hpp ****     uint64 getTimeSlice() const { return timeSlice; }
  24:src/../h/tcb.hpp **** 
  25:src/../h/tcb.hpp ****     using Body = void (*)(void*);
  26:src/../h/tcb.hpp **** 
  27:src/../h/tcb.hpp ****     static TCB *createThread(Body body, uint64 *stack, void *arg);
  28:src/../h/tcb.hpp **** 
  29:src/../h/tcb.hpp ****     static void yield();
  30:src/../h/tcb.hpp **** 
  31:src/../h/tcb.hpp ****     static TCB *running;
  32:src/../h/tcb.hpp **** 
  33:src/../h/tcb.hpp ****     friend class mySem;
  34:src/../h/tcb.hpp ****     
  35:src/../h/tcb.hpp ****     static void addToSleepingList(TCB* thread, int time);
  36:src/../h/tcb.hpp **** 
  37:src/../h/tcb.hpp ****     static void checkSleepingList();
  38:src/../h/tcb.hpp **** 
  39:src/../h/tcb.hpp **** private:
  40:src/../h/tcb.hpp ****     TCB(Body body, uint64 *stack, void *arg, uint64 timeSlice) : body(body), arg(arg),
GAS LISTING /tmp/cc7aQfY0.s 			page 6


  41:src/../h/tcb.hpp ****                                                                  stack(body != nullptr ? stack : nu
  42:src/../h/tcb.hpp ****                                                                  context({(uint64)&threadWrapper,
  43:src/../h/tcb.hpp ****                                                                           stack != nullptr ? (uint6
  44:src/../h/tcb.hpp ****                                                                  timeSlice(timeSlice),
  45:src/../h/tcb.hpp ****                                                                  finished(false), sleepTime(0)
 145              		.loc 3 45 94
 146 00c8 23303501 		sd	s3,0(a0)
 147 00cc 23344501 		sd	s4,8(a0)
  41:src/../h/tcb.hpp ****                                                                  context({(uint64)&threadWrapper,
 148              		.loc 3 41 88
 149 00d0 63860904 		beqz	s3,.L13
 150 00d4 93070900 		mv	a5,s2
 151              	.L8:
 152              		.loc 3 45 94
 153 00d8 23B8F400 		sd	a5,16(s1)
 154 00dc 97070000 		lla	a5,_ZN3TCB13threadWrapperEv
 154      93870700 
 155 00e4 23BCF400 		sd	a5,24(s1)
  43:src/../h/tcb.hpp ****                                                                  timeSlice(timeSlice),
 156              		.loc 3 43 92
 157 00e8 630E0902 		beqz	s2,.L14
  43:src/../h/tcb.hpp ****                                                                  timeSlice(timeSlice),
 158              		.loc 3 43 102
 159 00ec B7170000 		li	a5,4096
 160 00f0 3309F900 		add	s2,s2,a5
 161              	.LVL10:
 162              	.L9:
 163              		.loc 3 45 94
 164 00f4 23B02403 		sd	s2,32(s1)
 165 00f8 93072000 		li	a5,2
 166 00fc 23B4F402 		sd	a5,40(s1)
 167 0100 23880402 		sb	zero,48(s1)
 168 0104 23AA0402 		sw	zero,52(s1)
  46:src/../h/tcb.hpp ****     {
  47:src/../h/tcb.hpp ****         if (body != nullptr)
 169              		.loc 3 47 9 is_stmt 1
 170 0108 63820902 		beqz	s3,.L10
  48:src/../h/tcb.hpp ****         {
  49:src/../h/tcb.hpp ****             Scheduler::put(this);
 171              		.loc 3 49 13
 172              		.loc 3 49 27 is_stmt 0
 173 010c 13850400 		mv	a0,s1
 174              	.LEHB1:
 175 0110 97000000 		call	_ZN9Scheduler3putEP3TCB
 175      E7800000 
 176              	.LVL11:
 177              	.LEHE1:
 178 0118 6F004001 		j	.L10
 179              	.LVL12:
 180              	.L13:
  41:src/../h/tcb.hpp ****                                                                  context({(uint64)&threadWrapper,
 181              		.loc 3 41 88
 182 011c 93070000 		li	a5,0
 183 0120 6FF09FFB 		j	.L8
 184              	.L14:
  43:src/../h/tcb.hpp ****                                                                  timeSlice(timeSlice),
 185              		.loc 3 43 92
GAS LISTING /tmp/cc7aQfY0.s 			page 7


 186 0124 13090000 		li	s2,0
 187              	.LVL13:
 188 0128 6FF0DFFC 		j	.L9
 189              	.L10:
  50:src/../h/tcb.hpp ****         }
  51:src/../h/tcb.hpp ****         if (running == nullptr) // should only set the main() thread
 190              		.loc 3 51 9 is_stmt 1
 191              		.loc 3 51 21 is_stmt 0
 192 012c 97070000 		lla	a5,_ZN3TCB7runningE
 192      93870700 
 193 0134 83B70700 		ld	a5,0(a5)
 194              		.loc 3 51 9
 195 0138 63840702 		beqz	a5,.L17
 196              	.LVL14:
 197              	.L7:
 198              	.LBE35:
 199              	.LBE34:
  16:src/tcb.cpp   **** 
 200              		.loc 1 16 1
 201 013c 13850400 		mv	a0,s1
 202 0140 83308102 		ld	ra,40(sp)
 203              		.cfi_remember_state
 204              		.cfi_restore 1
 205 0144 03340102 		ld	s0,32(sp)
 206              		.cfi_restore 8
 207 0148 83348101 		ld	s1,24(sp)
 208              		.cfi_restore 9
 209 014c 03390101 		ld	s2,16(sp)
 210              		.cfi_restore 18
 211 0150 83398100 		ld	s3,8(sp)
 212              		.cfi_restore 19
 213              	.LVL15:
 214 0154 033A0100 		ld	s4,0(sp)
 215              		.cfi_restore 20
 216              	.LVL16:
 217 0158 13010103 		addi	sp,sp,48
 218              		.cfi_def_cfa_register 2
 219 015c 67800000 		jr	ra
 220              	.LVL17:
 221              	.L17:
 222              		.cfi_restore_state
 223              	.LBB37:
 224              	.LBB36:
  52:src/../h/tcb.hpp ****         {
  53:src/../h/tcb.hpp ****             TCB::running = this;
 225              		.loc 3 53 13 is_stmt 1
 226              		.loc 3 53 26 is_stmt 0
 227 0160 97070000 		sd	s1,_ZN3TCB7runningE,a5
 227      23B09700 
 228              	.LVL18:
 229              	.LBE36:
 230              	.LBE37:
  15:src/tcb.cpp   **** }
 231              		.loc 1 15 48
 232 0168 6FF05FFD 		j	.L7
 233              	.LVL19:
 234              	.L15:
GAS LISTING /tmp/cc7aQfY0.s 			page 8


 235 016c 13090500 		mv	s2,a0
 236              	.LVL20:
 237              	.LBB38:
 238              	.LBB39:
  14:src/../h/tcb.hpp ****     void operator delete[](void *p) noexcept { MemoryAllocator::mem_free(p); }
 239              		.loc 3 14 46 is_stmt 1
  14:src/../h/tcb.hpp ****     void operator delete[](void *p) noexcept { MemoryAllocator::mem_free(p); }
 240              		.loc 3 14 71 is_stmt 0
 241 0170 13850400 		mv	a0,s1
 242 0174 97000000 		call	_ZN15MemoryAllocator8mem_freeEPv
 242      E7800000 
 243              	.LVL21:
 244 017c 13050900 		mv	a0,s2
 245              	.LEHB2:
 246 0180 97000000 		call	_Unwind_Resume
 246      E7800000 
 247              	.LVL22:
 248              	.LEHE2:
 249              	.LBE39:
 250              	.LBE38:
 251              		.cfi_endproc
 252              	.LFE48:
 253              		.globl	__gxx_personality_v0
 254              		.section	.gcc_except_table,"a",@progbits
 255              	.LLSDA48:
 256 0000 FF       		.byte	0xff
 257 0001 FF       		.byte	0xff
 258 0002 03       		.byte	0x3
 259 0003 27       		.byte	0x27
 260 0004 00000000 		.4byte	.LEHB0-.LFB48
 261 0008 00000000 		.4byte	.LEHE0-.LEHB0
 262 000c 00000000 		.4byte	0
 263 0010 00       		.byte	0
 264 0011 00000000 		.4byte	.LEHB1-.LFB48
 265 0015 00000000 		.4byte	.LEHE1-.LEHB1
 266 0019 00000000 		.4byte	.L15-.LFB48
 267 001d 00       		.byte	0
 268 001e 00000000 		.4byte	.LEHB2-.LFB48
 269 0022 00000000 		.4byte	.LEHE2-.LEHB2
 270 0026 00000000 		.4byte	0
 271 002a 00       		.byte	0
 272              		.text
 274              		.align	2
 275              		.globl	_ZN3TCB5yieldEv
 277              	_ZN3TCB5yieldEv:
 278              	.LFB49:
  19:src/tcb.cpp   ****     __asm__ volatile("ecall");
 279              		.loc 1 19 1 is_stmt 1
 280              		.cfi_startproc
 281 0188 130101FF 		addi	sp,sp,-16
 282              		.cfi_def_cfa_offset 16
 283 018c 23348100 		sd	s0,8(sp)
 284              		.cfi_offset 8, -8
 285 0190 13040101 		addi	s0,sp,16
 286              		.cfi_def_cfa 8, 0
  20:src/tcb.cpp   **** }
 287              		.loc 1 20 5
GAS LISTING /tmp/cc7aQfY0.s 			page 9


  20:src/tcb.cpp   **** }
 288              		.loc 1 20 30 is_stmt 0
 289              	#APP
 290              	# 20 "src/tcb.cpp" 1
  21:src/tcb.cpp   **** 
 291              		ecall
 292              	# 0 "" 2
 293              		.loc 1 21 1
 294              	#NO_APP
 295 0198 03348100 		ld	s0,8(sp)
 296              		.cfi_restore 8
 297 019c 13010101 		addi	sp,sp,16
 298              		.cfi_def_cfa_register 2
 299 01a0 67800000 		jr	ra
 300              		.cfi_endproc
 301              	.LFE49:
 303              		.align	2
 304              		.globl	_ZN3TCB8dispatchEv
 306              	_ZN3TCB8dispatchEv:
 307              	.LFB50:
  24:src/tcb.cpp   ****     TCB *old = running;
 308              		.loc 1 24 1 is_stmt 1
 309              		.cfi_startproc
 310 01a4 130101FE 		addi	sp,sp,-32
 311              		.cfi_def_cfa_offset 32
 312 01a8 233C1100 		sd	ra,24(sp)
 313 01ac 23388100 		sd	s0,16(sp)
 314 01b0 23349100 		sd	s1,8(sp)
 315              		.cfi_offset 1, -8
 316              		.cfi_offset 8, -16
 317              		.cfi_offset 9, -24
 318 01b4 13040102 		addi	s0,sp,32
 319              		.cfi_def_cfa 8, 0
  25:src/tcb.cpp   ****     if (!old->isFinished())
 320              		.loc 1 25 5
  25:src/tcb.cpp   ****     if (!old->isFinished())
 321              		.loc 1 25 10 is_stmt 0
 322 01b8 97070000 		lla	a5,_ZN3TCB7runningE
 322      93870700 
 323 01c0 83B40700 		ld	s1,0(a5)
 324              	.LVL23:
  26:src/tcb.cpp   ****     {
 325              		.loc 1 26 5 is_stmt 1
 326              	.LBB40:
 327              	.LBB41:
  19:src/../h/tcb.hpp **** 
 328              		.loc 3 19 31
  19:src/../h/tcb.hpp **** 
 329              		.loc 3 19 38 is_stmt 0
 330 01c4 83C70403 		lbu	a5,48(s1)
 331              	.LVL24:
 332              	.LBE41:
 333              	.LBE40:
  26:src/tcb.cpp   ****     {
 334              		.loc 1 26 5
 335 01c8 638C0702 		beqz	a5,.L23
 336              	.L21:
GAS LISTING /tmp/cc7aQfY0.s 			page 10


  30:src/tcb.cpp   **** 
 337              		.loc 1 30 5 is_stmt 1
  30:src/tcb.cpp   **** 
 338              		.loc 1 30 29 is_stmt 0
 339 01cc 97000000 		call	_ZN9Scheduler3getEv
 339      E7800000 
 340              	.LVL25:
  30:src/tcb.cpp   **** 
 341              		.loc 1 30 13
 342 01d4 97070000 		sd	a0,_ZN3TCB7runningE,a5
 342      23B0A700 
  32:src/tcb.cpp   **** }
 343              		.loc 1 32 5 is_stmt 1
  32:src/tcb.cpp   **** }
 344              		.loc 1 32 18 is_stmt 0
 345 01dc 93058501 		addi	a1,a0,24
 346 01e0 13858401 		addi	a0,s1,24
 347 01e4 97000000 		call	_ZN3TCB13contextSwitchEPNS_7ContextES1_
 347      E7800000 
 348              	.LVL26:
  33:src/tcb.cpp   **** 
 349              		.loc 1 33 1
 350 01ec 83308101 		ld	ra,24(sp)
 351              		.cfi_remember_state
 352              		.cfi_restore 1
 353 01f0 03340101 		ld	s0,16(sp)
 354              		.cfi_restore 8
 355 01f4 83348100 		ld	s1,8(sp)
 356              		.cfi_restore 9
 357              	.LVL27:
 358 01f8 13010102 		addi	sp,sp,32
 359              		.cfi_def_cfa_register 2
 360 01fc 67800000 		jr	ra
 361              	.LVL28:
 362              	.L23:
 363              		.cfi_restore_state
  28:src/tcb.cpp   ****     }
 364              		.loc 1 28 9 is_stmt 1
  28:src/tcb.cpp   ****     }
 365              		.loc 1 28 23 is_stmt 0
 366 0200 13850400 		mv	a0,s1
 367 0204 97000000 		call	_ZN9Scheduler3putEP3TCB
 367      E7800000 
 368              	.LVL29:
 369 020c 6FF01FFC 		j	.L21
 370              		.cfi_endproc
 371              	.LFE50:
 373              		.align	2
 374              		.globl	_ZN3TCB17addToSleepingListEPS_i
 376              	_ZN3TCB17addToSleepingListEPS_i:
 377              	.LFB52:
  44:src/tcb.cpp   ****     thread->sleepTime = time;
 378              		.loc 1 44 1 is_stmt 1
 379              		.cfi_startproc
 380              	.LVL30:
 381 0210 130101FE 		addi	sp,sp,-32
 382              		.cfi_def_cfa_offset 32
GAS LISTING /tmp/cc7aQfY0.s 			page 11


 383 0214 233C1100 		sd	ra,24(sp)
 384 0218 23388100 		sd	s0,16(sp)
 385 021c 23349100 		sd	s1,8(sp)
 386 0220 23302101 		sd	s2,0(sp)
 387              		.cfi_offset 1, -8
 388              		.cfi_offset 8, -16
 389              		.cfi_offset 9, -24
 390              		.cfi_offset 18, -32
 391 0224 13040102 		addi	s0,sp,32
 392              		.cfi_def_cfa 8, 0
 393 0228 93040500 		mv	s1,a0
  45:src/tcb.cpp   ****     sleepingThreads.addLast(thread);
 394              		.loc 1 45 5
  45:src/tcb.cpp   ****     sleepingThreads.addLast(thread);
 395              		.loc 1 45 23 is_stmt 0
 396 022c 232AB502 		sw	a1,52(a0)
  46:src/tcb.cpp   ****     
 397              		.loc 1 46 5 is_stmt 1
 398              	.LVL31:
 399              	.LBB42:
 400              	.LBB43:
  25:src/../h/list.hpp **** 
  26:src/../h/list.hpp ****     List(const List<T> &) = delete;
  27:src/../h/list.hpp **** 
  28:src/../h/list.hpp ****     List<T> &operator=(const List<T> &) = delete;
  29:src/../h/list.hpp **** 
  30:src/../h/list.hpp ****  
  31:src/../h/list.hpp ****     int setPointer(){
  32:src/../h/list.hpp ****         if(!head) return -1;
  33:src/../h/list.hpp ****         pointer = head;
  34:src/../h/list.hpp ****         return 0;
  35:src/../h/list.hpp ****     } 
  36:src/../h/list.hpp **** 
  37:src/../h/list.hpp ****     int movePointer(){
  38:src/../h/list.hpp ****         if(!pointer) return -1;
  39:src/../h/list.hpp ****         pointer = pointer->next;
  40:src/../h/list.hpp ****         if(!pointer) return -1;
  41:src/../h/list.hpp ****         return 0;
  42:src/../h/list.hpp ****     }
  43:src/../h/list.hpp **** 
  44:src/../h/list.hpp ****     T* getData(){
  45:src/../h/list.hpp ****         return pointer->data;
  46:src/../h/list.hpp ****     }
  47:src/../h/list.hpp **** 
  48:src/../h/list.hpp ****     T* removeElem(){
  49:src/../h/list.hpp ****         if(pointer == head) removeFirst();
  50:src/../h/list.hpp ****         else if(pointer == tail) removeLast();
  51:src/../h/list.hpp ****         else{
  52:src/../h/list.hpp ****             Elem* last = nullptr;
  53:src/../h/list.hpp ****             Elem* curr = head;
  54:src/../h/list.hpp ****             while(curr != pointer){ last = curr; curr = curr->next; }
  55:src/../h/list.hpp ****             last->next = pointer->next;
  56:src/../h/list.hpp ****         }
  57:src/../h/list.hpp **** 
  58:src/../h/list.hpp ****         return pointer->data;
  59:src/../h/list.hpp ****     }
  60:src/../h/list.hpp ****     void addFirst(T *data)
GAS LISTING /tmp/cc7aQfY0.s 			page 12


  61:src/../h/list.hpp ****     {
  62:src/../h/list.hpp ****         // Elem *elem = new Elem(data, head);
  63:src/../h/list.hpp ****         size_t size = sizeof(Elem);
  64:src/../h/list.hpp ****         size_t numBlocks = (size % MEM_BLOCK_SIZE == 0) ? size / MEM_BLOCK_SIZE : size / MEM_BLOCK_
  65:src/../h/list.hpp ****         Elem *elem = (Elem *)MemoryAllocator::mem_alloc(numBlocks);
  66:src/../h/list.hpp ****         elem->data = data;
  67:src/../h/list.hpp ****         elem->next = head;
  68:src/../h/list.hpp ****         head = elem;
  69:src/../h/list.hpp ****         if (!tail)
  70:src/../h/list.hpp ****         {
  71:src/../h/list.hpp ****             tail = head;
  72:src/../h/list.hpp ****         }
  73:src/../h/list.hpp ****     }
  74:src/../h/list.hpp **** 
  75:src/../h/list.hpp ****     void addLast(T *data)
  76:src/../h/list.hpp ****     {
  77:src/../h/list.hpp ****         // Elem *elem = new Elem(data, 0);
  78:src/../h/list.hpp ****         size_t size = sizeof(Elem);
  79:src/../h/list.hpp ****         size_t numBlocks = (size % MEM_BLOCK_SIZE == 0) ? size / MEM_BLOCK_SIZE : size / MEM_BLOCK_
  80:src/../h/list.hpp ****         Elem *elem = (Elem *)MemoryAllocator::mem_alloc(numBlocks);
 401              		.loc 2 80 56 is_stmt 0
 402 0230 13051000 		li	a0,1
 403              	.LVL32:
 404 0234 97000000 		call	_ZN15MemoryAllocator9mem_allocEm
 404      E7800000 
 405              	.LVL33:
  81:src/../h/list.hpp ****         elem->data = data;
 406              		.loc 2 81 9
 407 023c 23309500 		sd	s1,0(a0)
  82:src/../h/list.hpp ****         elem->next = 0;
 408              		.loc 2 82 9
 409 0240 23340500 		sd	zero,8(a0)
  83:src/../h/list.hpp ****         if (tail)
 410              		.loc 2 83 13
 411 0244 97070000 		lla	a5,.LANCHOR0
 411      93870700 
 412 024c 83B78700 		ld	a5,8(a5)
 413              		.loc 2 83 9
 414 0250 63880704 		beqz	a5,.L25
  84:src/../h/list.hpp ****         {
  85:src/../h/list.hpp ****             tail->next = elem;
 415              		.loc 2 85 13
 416 0254 23B4A700 		sd	a0,8(a5)
  86:src/../h/list.hpp ****             tail = elem;
 417              		.loc 2 86 13
 418 0258 97070000 		sd	a0,.LANCHOR0+8,a5
 418      23B0A700 
 419              	.L26:
 420              	.LVL34:
 421              	.LBE43:
 422              	.LBE42:
  49:src/tcb.cpp   ****     running = Scheduler::get();
 423              		.loc 1 49 5 is_stmt 1
  49:src/tcb.cpp   ****     running = Scheduler::get();
 424              		.loc 1 49 10 is_stmt 0
 425 0260 97040000 		lla	s1,_ZN3TCB7runningE
 425      93840400 
GAS LISTING /tmp/cc7aQfY0.s 			page 13


 426              	.LVL35:
 427 0268 03B90400 		ld	s2,0(s1)
 428              	.LVL36:
  50:src/tcb.cpp   ****     contextSwitch(&old->context, &TCB::running->context);
 429              		.loc 1 50 5 is_stmt 1
  50:src/tcb.cpp   ****     contextSwitch(&old->context, &TCB::running->context);
 430              		.loc 1 50 29 is_stmt 0
 431 026c 97000000 		call	_ZN9Scheduler3getEv
 431      E7800000 
 432              	.LVL37:
  50:src/tcb.cpp   ****     contextSwitch(&old->context, &TCB::running->context);
 433              		.loc 1 50 13
 434 0274 23B0A400 		sd	a0,0(s1)
  51:src/tcb.cpp   **** }
 435              		.loc 1 51 5 is_stmt 1
  51:src/tcb.cpp   **** }
 436              		.loc 1 51 18 is_stmt 0
 437 0278 93058501 		addi	a1,a0,24
 438 027c 13058901 		addi	a0,s2,24
 439 0280 97000000 		call	_ZN3TCB13contextSwitchEPNS_7ContextES1_
 439      E7800000 
 440              	.LVL38:
  52:src/tcb.cpp   **** 
 441              		.loc 1 52 1
 442 0288 83308101 		ld	ra,24(sp)
 443              		.cfi_remember_state
 444              		.cfi_restore 1
 445 028c 03340101 		ld	s0,16(sp)
 446              		.cfi_restore 8
 447 0290 83348100 		ld	s1,8(sp)
 448              		.cfi_restore 9
 449 0294 03390100 		ld	s2,0(sp)
 450              		.cfi_restore 18
 451              	.LVL39:
 452 0298 13010102 		addi	sp,sp,32
 453              		.cfi_def_cfa_register 2
 454 029c 67800000 		jr	ra
 455              	.LVL40:
 456              	.L25:
 457              		.cfi_restore_state
 458              	.LBB45:
 459              	.LBB44:
  87:src/../h/list.hpp ****         }
  88:src/../h/list.hpp ****         else
  89:src/../h/list.hpp ****         {
  90:src/../h/list.hpp ****             head = tail = elem;
 460              		.loc 2 90 13
 461 02a0 97070000 		lla	a5,.LANCHOR0
 461      93870700 
 462 02a8 23B4A700 		sd	a0,8(a5)
 463 02ac 23B0A700 		sd	a0,0(a5)
 464 02b0 6FF01FFB 		j	.L26
 465              	.LBE44:
 466              	.LBE45:
 467              		.cfi_endproc
 468              	.LFE52:
 470              		.align	2
GAS LISTING /tmp/cc7aQfY0.s 			page 14


 471              		.globl	_ZN3TCB17checkSleepingListEv
 473              	_ZN3TCB17checkSleepingListEv:
 474              	.LFB53:
  54:src/tcb.cpp   ****     if(sleepingThreads.setPointer() == 0) {
 475              		.loc 1 54 30 is_stmt 1
 476              		.cfi_startproc
  55:src/tcb.cpp   ****         while(1){
 477              		.loc 1 55 5
 478              	.LVL41:
 479              	.LBB63:
 480              	.LBB64:
  32:src/../h/list.hpp ****         pointer = head;
 481              		.loc 2 32 13 is_stmt 0
 482 02b4 97070000 		lla	a5,.LANCHOR0
 482      93870700 
 483 02bc 83B70700 		ld	a5,0(a5)
  32:src/../h/list.hpp ****         pointer = head;
 484              		.loc 2 32 9
 485 02c0 63840716 		beqz	a5,.L45
 486              	.LBE64:
 487              	.LBE63:
  54:src/tcb.cpp   ****     if(sleepingThreads.setPointer() == 0) {
 488              		.loc 1 54 30
 489 02c4 130101FE 		addi	sp,sp,-32
 490              		.cfi_def_cfa_offset 32
 491 02c8 233C1100 		sd	ra,24(sp)
 492 02cc 23388100 		sd	s0,16(sp)
 493 02d0 23349100 		sd	s1,8(sp)
 494              		.cfi_offset 1, -8
 495              		.cfi_offset 8, -16
 496              		.cfi_offset 9, -24
 497 02d4 13040102 		addi	s0,sp,32
 498              		.cfi_def_cfa 8, 0
 499              	.LBB66:
 500              	.LBB65:
  33:src/../h/list.hpp ****         return 0;
 501              		.loc 2 33 9
 502 02d8 17070000 		sd	a5,.LANCHOR0+16,a4
 502      2330F700 
 503              	.LVL42:
 504 02e0 6F00800D 		j	.L42
 505              	.LVL43:
 506              	.L49:
 507              	.LBE65:
 508              	.LBE66:
 509              	.LBB67:
 510              	.LBB68:
 511              	.LBB69:
 512              	.LBB70:
 513              	.LBB71:
  91:src/../h/list.hpp ****         }
  92:src/../h/list.hpp ****         
  93:src/../h/list.hpp ****     }
  94:src/../h/list.hpp **** 
  95:src/../h/list.hpp ****     T *removeFirst()
  96:src/../h/list.hpp ****     {
  97:src/../h/list.hpp ****         if (!head)
GAS LISTING /tmp/cc7aQfY0.s 			page 15


 514              		.loc 2 97 14
 515 02e4 97070000 		lla	a5,.LANCHOR0
 515      93870700 
 516 02ec 03B50700 		ld	a0,0(a5)
 517              		.loc 2 97 9
 518 02f0 630E0508 		beqz	a0,.L34
 519              	.LVL44:
  98:src/../h/list.hpp ****         {
  99:src/../h/list.hpp ****             return 0;
 100:src/../h/list.hpp ****         }
 101:src/../h/list.hpp **** 
 102:src/../h/list.hpp ****         Elem *elem = head;
 103:src/../h/list.hpp ****         head = head->next;
 520              		.loc 2 103 22
 521 02f4 83378500 		ld	a5,8(a0)
 522              		.loc 2 103 9
 523 02f8 17070000 		sd	a5,.LANCHOR0,a4
 523      2330F700 
 104:src/../h/list.hpp ****         if (!head)
 524              		.loc 2 104 9
 525 0300 63880700 		beqz	a5,.L48
 526              	.L33:
 527              	.LVL45:
 105:src/../h/list.hpp ****         {
 106:src/../h/list.hpp ****             tail = 0;
 107:src/../h/list.hpp ****         }
 108:src/../h/list.hpp **** 
 109:src/../h/list.hpp **** 
 110:src/../h/list.hpp ****         T *ret = elem->data;
 111:src/../h/list.hpp ****         // delete elem;
 112:src/../h/list.hpp ****         MemoryAllocator::mem_free(elem);
 528              		.loc 2 112 34
 529 0304 97000000 		call	_ZN15MemoryAllocator8mem_freeEPv
 529      E7800000 
 530              	.LVL46:
 531 030c 6F000008 		j	.L34
 532              	.LVL47:
 533              	.L48:
 106:src/../h/list.hpp ****         }
 534              		.loc 2 106 13
 535 0310 97070000 		sd	zero,.LANCHOR0+8,a5
 535      23B00700 
 536 0318 6FF0DFFE 		j	.L33
 537              	.LVL48:
 538              	.L50:
 539              	.LBE71:
 540              	.LBE70:
 541              	.LBB72:
 542              	.LBB73:
 543              	.LBB74:
 113:src/../h/list.hpp ****         return ret;
 114:src/../h/list.hpp ****     }
 115:src/../h/list.hpp **** 
 116:src/../h/list.hpp ****     T *peekFirst()
 117:src/../h/list.hpp ****     {
 118:src/../h/list.hpp ****         if (!head)
 119:src/../h/list.hpp ****         {
GAS LISTING /tmp/cc7aQfY0.s 			page 16


 120:src/../h/list.hpp ****             return 0;
 121:src/../h/list.hpp ****         }
 122:src/../h/list.hpp ****         return head->data;
 123:src/../h/list.hpp ****     }
 124:src/../h/list.hpp **** 
 125:src/../h/list.hpp ****     T *removeLast()
 126:src/../h/list.hpp ****     {
 127:src/../h/list.hpp ****         if (!head)
 544              		.loc 2 127 14
 545 031c 97070000 		lla	a5,.LANCHOR0
 545      93870700 
 546 0324 83B70700 		ld	a5,0(a5)
 547              		.loc 2 127 9
 548 0328 63820706 		beqz	a5,.L34
 128:src/../h/list.hpp ****         {
 129:src/../h/list.hpp ****             return 0;
 130:src/../h/list.hpp ****         }
 131:src/../h/list.hpp **** 
 132:src/../h/list.hpp ****         Elem *prev = 0;
 549              		.loc 2 132 15
 550 032c 93060000 		li	a3,0
 551              	.L38:
 552              	.LVL49:
 553              	.LBB75:
 133:src/../h/list.hpp ****         for (Elem *curr = head; curr && curr != tail; curr = curr->next)
 554              		.loc 2 133 38
 555 0330 63800702 		beqz	a5,.L37
 556              		.loc 2 133 49
 557 0334 17070000 		lla	a4,.LANCHOR0
 557      13070700 
 558 033c 03378700 		ld	a4,8(a4)
 559              		.loc 2 133 38
 560 0340 6388E700 		beq	a5,a4,.L37
 561              	.LVL50:
 134:src/../h/list.hpp ****         {
 135:src/../h/list.hpp ****             prev = curr;
 562              		.loc 2 135 13
 563 0344 93860700 		mv	a3,a5
 133:src/../h/list.hpp ****         for (Elem *curr = head; curr && curr != tail; curr = curr->next)
 564              		.loc 2 133 9
 565 0348 83B78700 		ld	a5,8(a5)
 566              	.LVL51:
 567 034c 6FF05FFE 		j	.L38
 568              	.L37:
 569              	.LBE75:
 136:src/../h/list.hpp ****         }
 137:src/../h/list.hpp **** 
 138:src/../h/list.hpp ****         Elem *elem = tail;
 570              		.loc 2 138 15
 571 0350 97070000 		lla	a5,.LANCHOR0
 571      93870700 
 572              	.LVL52:
 573 0358 03B58700 		ld	a0,8(a5)
 574              	.LVL53:
 139:src/../h/list.hpp ****         if (prev)
 575              		.loc 2 139 9
 576 035c 638E0600 		beqz	a3,.L39
GAS LISTING /tmp/cc7aQfY0.s 			page 17


 140:src/../h/list.hpp ****         {
 141:src/../h/list.hpp ****             prev->next = 0;
 577              		.loc 2 141 13
 578 0360 23B40600 		sd	zero,8(a3)
 579              	.L40:
 142:src/../h/list.hpp ****         }
 143:src/../h/list.hpp ****         else
 144:src/../h/list.hpp ****         {
 145:src/../h/list.hpp ****             head = 0;
 146:src/../h/list.hpp ****         }
 147:src/../h/list.hpp ****         tail = prev;
 580              		.loc 2 147 9
 581 0364 97070000 		sd	a3,.LANCHOR0+8,a5
 581      23B0D700 
 582              	.LVL54:
 148:src/../h/list.hpp ****         
 149:src/../h/list.hpp ****       
 150:src/../h/list.hpp ****         T *ret = elem->data;
 151:src/../h/list.hpp ****         // delete elem;
 152:src/../h/list.hpp ****         MemoryAllocator::mem_free(elem);
 583              		.loc 2 152 34
 584 036c 97000000 		call	_ZN15MemoryAllocator8mem_freeEPv
 584      E7800000 
 585              	.LVL55:
 586 0374 6F008001 		j	.L34
 587              	.LVL56:
 588              	.L39:
 145:src/../h/list.hpp ****         }
 589              		.loc 2 145 13
 590 0378 97070000 		sd	zero,.LANCHOR0,a5
 590      23B00700 
 591 0380 6FF05FFE 		j	.L40
 592              	.LVL57:
 593              	.L41:
 594              	.LBE74:
 595              	.LBE73:
 596              	.LBB76:
  55:src/../h/list.hpp ****         }
 597              		.loc 2 55 35
 598 0384 83378700 		ld	a5,8(a4)
 599              	.LVL58:
  55:src/../h/list.hpp ****         }
 600              		.loc 2 55 13
 601 0388 23B4F600 		sd	a5,8(a3)
 602              	.LVL59:
 603              	.L34:
 604              	.LBE76:
 605              	.LBE72:
 606              	.LBE69:
 607              	.LBE68:
  61:src/tcb.cpp   ****             }
 608              		.loc 1 61 17 is_stmt 1
  61:src/tcb.cpp   ****             }
 609              		.loc 1 61 31 is_stmt 0
 610 038c 13850400 		mv	a0,s1
 611 0390 97000000 		call	_ZN9Scheduler3putEP3TCB
 611      E7800000 
GAS LISTING /tmp/cc7aQfY0.s 			page 18


 612              	.LVL60:
 613              	.L30:
  63:src/tcb.cpp   ****         }
 614              		.loc 1 63 13 is_stmt 1
 615              	.LBB80:
 616              	.LBB81:
  38:src/../h/list.hpp ****         pointer = pointer->next;
 617              		.loc 2 38 13 is_stmt 0
 618 0398 97070000 		lla	a5,.LANCHOR0
 618      93870700 
 619 03a0 83B70701 		ld	a5,16(a5)
  38:src/../h/list.hpp ****         pointer = pointer->next;
 620              		.loc 2 38 9
 621 03a4 63880706 		beqz	a5,.L28
  39:src/../h/list.hpp ****         if(!pointer) return -1;
 622              		.loc 2 39 28
 623 03a8 83B78700 		ld	a5,8(a5)
  39:src/../h/list.hpp ****         if(!pointer) return -1;
 624              		.loc 2 39 9
 625 03ac 17070000 		sd	a5,.LANCHOR0+16,a4
 625      2330F700 
  40:src/../h/list.hpp ****         return 0;
 626              		.loc 2 40 9
 627 03b4 63800706 		beqz	a5,.L28
 628              	.LVL61:
 629              	.L42:
 630              	.LBE81:
 631              	.LBE80:
 632              	.LBE67:
  56:src/tcb.cpp   ****             TCB* thread = sleepingThreads.getData();
 633              		.loc 1 56 9 is_stmt 1
 634              	.LBB85:
  57:src/tcb.cpp   ****             thread->sleepTime--;
 635              		.loc 1 57 13
 636              	.LBB82:
 637              	.LBB83:
  45:src/../h/list.hpp ****     }
 638              		.loc 2 45 16 is_stmt 0
 639 03b8 97070000 		lla	a5,.LANCHOR0
 639      93870700 
 640 03c0 83B70701 		ld	a5,16(a5)
  45:src/../h/list.hpp ****     }
 641              		.loc 2 45 25
 642 03c4 83B40700 		ld	s1,0(a5)
 643              	.LVL62:
 644              	.LBE83:
 645              	.LBE82:
  58:src/tcb.cpp   ****             if(thread->sleepTime <= 0){
 646              		.loc 1 58 13 is_stmt 1
  58:src/tcb.cpp   ****             if(thread->sleepTime <= 0){
 647              		.loc 1 58 21 is_stmt 0
 648 03c8 83A74403 		lw	a5,52(s1)
  58:src/tcb.cpp   ****             if(thread->sleepTime <= 0){
 649              		.loc 1 58 30
 650 03cc 9B87F7FF 		addiw	a5,a5,-1
 651 03d0 1B870700 		sext.w	a4,a5
 652 03d4 23AAF402 		sw	a5,52(s1)
GAS LISTING /tmp/cc7aQfY0.s 			page 19


  59:src/tcb.cpp   ****                 sleepingThreads.removeElem();
 653              		.loc 1 59 13 is_stmt 1
 654 03d8 E340E0FC 		bgtz	a4,.L30
  60:src/tcb.cpp   ****                 Scheduler::put(thread);
 655              		.loc 1 60 17
 656              	.LVL63:
 657              	.LBB84:
 658              	.LBB79:
  49:src/../h/list.hpp ****         else if(pointer == tail) removeLast();
 659              		.loc 2 49 12 is_stmt 0
 660 03dc 97070000 		lla	a5,.LANCHOR0
 660      93870700 
 661 03e4 03B70701 		ld	a4,16(a5)
  49:src/../h/list.hpp ****         else if(pointer == tail) removeLast();
 662              		.loc 2 49 23
 663 03e8 83B70700 		ld	a5,0(a5)
  49:src/../h/list.hpp ****         else if(pointer == tail) removeLast();
 664              		.loc 2 49 9
 665 03ec E30CF7EE 		beq	a4,a5,.L49
 666              	.LBB78:
  50:src/../h/list.hpp ****         else{
 667              		.loc 2 50 28
 668 03f0 97060000 		lla	a3,.LANCHOR0
 668      93860600 
 669 03f8 83B68600 		ld	a3,8(a3)
  50:src/../h/list.hpp ****         else{
 670              		.loc 2 50 14
 671 03fc E300D7F2 		beq	a4,a3,.L50
 672              	.LBB77:
  52:src/../h/list.hpp ****             Elem* curr = head;
 673              		.loc 2 52 19
 674 0400 93060000 		li	a3,0
 675              	.L35:
 676              	.LVL64:
  54:src/../h/list.hpp ****             last->next = pointer->next;
 677              		.loc 2 54 24
 678 0404 E300F7F8 		beq	a4,a5,.L41
 679              	.LVL65:
  54:src/../h/list.hpp ****             last->next = pointer->next;
 680              		.loc 2 54 37
 681 0408 93860700 		mv	a3,a5
  54:src/../h/list.hpp ****             last->next = pointer->next;
 682              		.loc 2 54 50
 683 040c 83B78700 		ld	a5,8(a5)
 684              	.LVL66:
 685 0410 6FF05FFF 		j	.L35
 686              	.LVL67:
 687              	.L28:
 688              	.LBE77:
 689              	.LBE78:
 690              	.LBE79:
 691              	.LBE84:
 692              	.LBE85:
 693              		.loc 1 66 1
 694 0414 83308101 		ld	ra,24(sp)
 695              		.cfi_restore 1
 696 0418 03340101 		ld	s0,16(sp)
GAS LISTING /tmp/cc7aQfY0.s 			page 20


 697              		.cfi_restore 8
 698 041c 83348100 		ld	s1,8(sp)
 699              		.cfi_restore 9
 700              	.LVL68:
 701 0420 13010102 		addi	sp,sp,32
 702              		.cfi_def_cfa_register 2
 703 0424 67800000 		jr	ra
 704              	.LVL69:
 705              	.L45:
 706 0428 67800000 		ret
 707              		.cfi_endproc
 708              	.LFE53:
 710              		.align	2
 712              	_GLOBAL__sub_I__ZN3TCB7runningE:
 713              	.LFB65:
 714              		.loc 1 66 1 is_stmt 1
 715              		.cfi_startproc
 716 042c 130101FF 		addi	sp,sp,-16
 717              		.cfi_def_cfa_offset 16
 718 0430 23341100 		sd	ra,8(sp)
 719 0434 23308100 		sd	s0,0(sp)
 720              		.cfi_offset 1, -8
 721              		.cfi_offset 8, -16
 722 0438 13040101 		addi	s0,sp,16
 723              		.cfi_def_cfa 8, 0
 724              		.loc 1 66 1 is_stmt 0
 725 043c B7050100 		li	a1,65536
 726 0440 9385F5FF 		addi	a1,a1,-1
 727 0444 13051000 		li	a0,1
 728 0448 97000000 		call	_Z41__static_initialization_and_destruction_0ii
 728      E7800000 
 729              	.LVL70:
 730 0450 83308100 		ld	ra,8(sp)
 731              		.cfi_restore 1
 732 0454 03340100 		ld	s0,0(sp)
 733              		.cfi_restore 8
 734 0458 13010101 		addi	sp,sp,16
 735              		.cfi_def_cfa_register 2
 736 045c 67800000 		jr	ra
 737              		.cfi_endproc
 738              	.LFE65:
 740              		.section	.init_array,"aw"
 741              		.align	3
 742 0000 00000000 		.dword	_GLOBAL__sub_I__ZN3TCB7runningE
 742      00000000 
 743              		.globl	_ZN3TCB15sleepingThreadsE
 744              		.globl	_ZN3TCB16timeSliceCounterE
 745              		.globl	_ZN3TCB7runningE
 746              		.bss
 747              		.align	3
 748              		.set	.LANCHOR0,. + 0
 751              	_ZN3TCB15sleepingThreadsE:
 752 0000 00000000 		.zero	24
 752      00000000 
 752      00000000 
 752      00000000 
 752      00000000 
GAS LISTING /tmp/cc7aQfY0.s 			page 21


 753              		.section	.sbss,"aw",@nobits
 754              		.align	3
 757              	_ZN3TCB16timeSliceCounterE:
 758 0000 00000000 		.zero	8
 758      00000000 
 761              	_ZN3TCB7runningE:
 762 0008 00000000 		.zero	8
 762      00000000 
 763              		.text
 764              	.Letext0:
 765              		.file 4 "src/../h/../lib/hw.h"
 766              		.file 5 "src/../h/../h/MemoryAllocator.hpp"
 767              		.file 6 "src/../h/scheduler.hpp"
 768              		.file 7 "src/../h/riscv.hpp"
 769              		.file 8 "src/../h/operation_codes.hpp"
 770              		.file 9 "src/../h/syscall_c.hpp"
 4878              		.align	3
 4881              	DW.ref.__gxx_personality_v0:
 4882 0000 00000000 		.dword	__gxx_personality_v0
 4882      00000000 
 4883              		.ident	"GCC: (GNU) 8.3.0"
GAS LISTING /tmp/cc7aQfY0.s 			page 22

