GAS LISTING /tmp/ccT1hiNb.s 			page 1


   1              		.file	"buffer_CPP_API.cpp"
   2              		.option nopic
   3              		.option norelax
   4              		.text
   5              	.Ltext0:
   6              		.align	2
   7              		.globl	_ZN9BufferCPPC2Ei
   9              	_ZN9BufferCPPC2Ei:
  10              	.LFB36:
  11              		.file 1 "test/buffer_CPP_API.cpp"
   1:test/buffer_CPP_API.cpp **** #include "buffer_CPP_API.hpp"
   2:test/buffer_CPP_API.cpp **** 
   3:test/buffer_CPP_API.cpp **** BufferCPP::BufferCPP(int _cap) : cap(_cap + 1), head(0), tail(0) {
  12              		.loc 1 3 1
  13              		.cfi_startproc
  14              		.cfi_personality 0x9b,DW.ref.__gxx_personality_v0
  15              		.cfi_lsda 0x1b,.LLSDA36
  16              	.LVL0:
  17 0000 130101FD 		addi	sp,sp,-48
  18              		.cfi_def_cfa_offset 48
  19 0004 23341102 		sd	ra,40(sp)
  20 0008 23308102 		sd	s0,32(sp)
  21 000c 233C9100 		sd	s1,24(sp)
  22 0010 23382101 		sd	s2,16(sp)
  23 0014 23343101 		sd	s3,8(sp)
  24              		.cfi_offset 1, -8
  25              		.cfi_offset 8, -16
  26              		.cfi_offset 9, -24
  27              		.cfi_offset 18, -32
  28              		.cfi_offset 19, -40
  29 0018 13040103 		addi	s0,sp,48
  30              		.cfi_def_cfa 8, 0
  31 001c 93040500 		mv	s1,a0
  32 0020 13890500 		mv	s2,a1
  33              	.LBB2:
  34              		.loc 1 3 43 is_stmt 0
  35 0024 9B871500 		addiw	a5,a1,1
  36 0028 1B850700 		sext.w	a0,a5
  37              	.LVL1:
  38              		.loc 1 3 64
  39 002c 23A0F400 		sw	a5,0(s1)
  40 0030 23A80400 		sw	zero,16(s1)
  41 0034 23AA0400 		sw	zero,20(s1)
   4:test/buffer_CPP_API.cpp ****     buffer = (int *)mem_alloc(sizeof(int) * cap);
  42              		.loc 1 4 5 is_stmt 1
  43              		.loc 1 4 30 is_stmt 0
  44 0038 13152500 		slli	a0,a0,2
  45              	.LEHB0:
  46 003c 97000000 		call	_Z9mem_allocm
  46      E7800000 
  47              	.LVL2:
  48              		.loc 1 4 12
  49 0044 23B4A400 		sd	a0,8(s1)
   5:test/buffer_CPP_API.cpp ****     itemAvailable = new Semaphore(0);
  50              		.loc 1 5 5 is_stmt 1
  51              		.loc 1 5 36 is_stmt 0
  52 0048 13050001 		li	a0,16
GAS LISTING /tmp/ccT1hiNb.s 			page 2


  53 004c 97000000 		call	_Znwm
  53      E7800000 
  54              	.LVL3:
  55              	.LEHE0:
  56 0054 93090500 		mv	s3,a0
  57 0058 93050000 		li	a1,0
  58              	.LEHB1:
  59 005c 97000000 		call	_ZN9SemaphoreC1Ej
  59      E7800000 
  60              	.LVL4:
  61              	.LEHE1:
  62              		.loc 1 5 19 discriminator 2
  63 0064 23B03403 		sd	s3,32(s1)
   6:test/buffer_CPP_API.cpp ****     spaceAvailable = new Semaphore(_cap);
  64              		.loc 1 6 5 is_stmt 1 discriminator 2
  65              		.loc 1 6 40 is_stmt 0 discriminator 2
  66 0068 13050001 		li	a0,16
  67              	.LEHB2:
  68 006c 97000000 		call	_Znwm
  68      E7800000 
  69              	.LVL5:
  70              	.LEHE2:
  71 0074 93090500 		mv	s3,a0
  72 0078 93050900 		mv	a1,s2
  73              	.LEHB3:
  74 007c 97000000 		call	_ZN9SemaphoreC1Ej
  74      E7800000 
  75              	.LVL6:
  76              	.LEHE3:
  77              		.loc 1 6 20 discriminator 2
  78 0084 23BC3401 		sd	s3,24(s1)
   7:test/buffer_CPP_API.cpp ****     mutexHead = new Semaphore(1);
  79              		.loc 1 7 5 is_stmt 1 discriminator 2
  80              		.loc 1 7 32 is_stmt 0 discriminator 2
  81 0088 13050001 		li	a0,16
  82              	.LEHB4:
  83 008c 97000000 		call	_Znwm
  83      E7800000 
  84              	.LVL7:
  85              	.LEHE4:
  86 0094 13090500 		mv	s2,a0
  87 0098 93051000 		li	a1,1
  88              	.LEHB5:
  89 009c 97000000 		call	_ZN9SemaphoreC1Ej
  89      E7800000 
  90              	.LVL8:
  91              	.LEHE5:
  92              		.loc 1 7 15 discriminator 2
  93 00a4 23B42403 		sd	s2,40(s1)
   8:test/buffer_CPP_API.cpp ****     mutexTail = new Semaphore(1);
  94              		.loc 1 8 5 is_stmt 1 discriminator 2
  95              		.loc 1 8 32 is_stmt 0 discriminator 2
  96 00a8 13050001 		li	a0,16
  97              	.LEHB6:
  98 00ac 97000000 		call	_Znwm
  98      E7800000 
  99              	.LVL9:
GAS LISTING /tmp/ccT1hiNb.s 			page 3


 100              	.LEHE6:
 101 00b4 13090500 		mv	s2,a0
 102 00b8 93051000 		li	a1,1
 103              	.LEHB7:
 104 00bc 97000000 		call	_ZN9SemaphoreC1Ej
 104      E7800000 
 105              	.LVL10:
 106              	.LEHE7:
 107              		.loc 1 8 15 discriminator 2
 108 00c4 23B82403 		sd	s2,48(s1)
 109              	.LBE2:
   9:test/buffer_CPP_API.cpp **** }
 110              		.loc 1 9 1 discriminator 2
 111 00c8 83308102 		ld	ra,40(sp)
 112              		.cfi_remember_state
 113              		.cfi_restore 1
 114 00cc 03340102 		ld	s0,32(sp)
 115              		.cfi_restore 8
 116 00d0 83348101 		ld	s1,24(sp)
 117              		.cfi_restore 9
 118              	.LVL11:
 119 00d4 03390101 		ld	s2,16(sp)
 120              		.cfi_restore 18
 121 00d8 83398100 		ld	s3,8(sp)
 122              		.cfi_restore 19
 123 00dc 13010103 		addi	sp,sp,48
 124              		.cfi_def_cfa_register 2
 125 00e0 67800000 		jr	ra
 126              	.LVL12:
 127              	.L6:
 128              		.cfi_restore_state
 129 00e4 93040500 		mv	s1,a0
 130              	.LVL13:
 131              	.LBB3:
   5:test/buffer_CPP_API.cpp ****     spaceAvailable = new Semaphore(_cap);
 132              		.loc 1 5 36
 133 00e8 13850900 		mv	a0,s3
 134 00ec 97000000 		call	_ZdlPv
 134      E7800000 
 135              	.LVL14:
 136 00f4 13850400 		mv	a0,s1
 137              	.LEHB8:
 138 00f8 97000000 		call	_Unwind_Resume
 138      E7800000 
 139              	.LVL15:
 140              	.L7:
 141 0100 93040500 		mv	s1,a0
 142              	.LVL16:
   6:test/buffer_CPP_API.cpp ****     mutexHead = new Semaphore(1);
 143              		.loc 1 6 40
 144 0104 13850900 		mv	a0,s3
 145 0108 97000000 		call	_ZdlPv
 145      E7800000 
 146              	.LVL17:
 147 0110 13850400 		mv	a0,s1
 148 0114 97000000 		call	_Unwind_Resume
 148      E7800000 
GAS LISTING /tmp/ccT1hiNb.s 			page 4


 149              	.LVL18:
 150              	.L8:
 151 011c 93040500 		mv	s1,a0
 152              	.LVL19:
   7:test/buffer_CPP_API.cpp ****     mutexTail = new Semaphore(1);
 153              		.loc 1 7 32
 154 0120 13050900 		mv	a0,s2
 155 0124 97000000 		call	_ZdlPv
 155      E7800000 
 156              	.LVL20:
 157 012c 13850400 		mv	a0,s1
 158 0130 97000000 		call	_Unwind_Resume
 158      E7800000 
 159              	.LVL21:
 160              	.L9:
 161 0138 93040500 		mv	s1,a0
 162              	.LVL22:
   8:test/buffer_CPP_API.cpp **** }
 163              		.loc 1 8 32
 164 013c 13050900 		mv	a0,s2
 165 0140 97000000 		call	_ZdlPv
 165      E7800000 
 166              	.LVL23:
 167 0148 13850400 		mv	a0,s1
 168 014c 97000000 		call	_Unwind_Resume
 168      E7800000 
 169              	.LVL24:
 170              	.LEHE8:
 171              	.LBE3:
 172              		.cfi_endproc
 173              	.LFE36:
 174              		.globl	__gxx_personality_v0
 175              		.section	.gcc_except_table,"a",@progbits
 176              	.LLSDA36:
 177 0000 FF       		.byte	0xff
 178 0001 FF       		.byte	0xff
 179 0002 03       		.byte	0x3
 180 0003 75       		.byte	0x75
 181 0004 00000000 		.4byte	.LEHB0-.LFB36
 182 0008 00000000 		.4byte	.LEHE0-.LEHB0
 183 000c 00000000 		.4byte	0
 184 0010 00       		.byte	0
 185 0011 00000000 		.4byte	.LEHB1-.LFB36
 186 0015 00000000 		.4byte	.LEHE1-.LEHB1
 187 0019 00000000 		.4byte	.L6-.LFB36
 188 001d 00       		.byte	0
 189 001e 00000000 		.4byte	.LEHB2-.LFB36
 190 0022 00000000 		.4byte	.LEHE2-.LEHB2
 191 0026 00000000 		.4byte	0
 192 002a 00       		.byte	0
 193 002b 00000000 		.4byte	.LEHB3-.LFB36
 194 002f 00000000 		.4byte	.LEHE3-.LEHB3
 195 0033 00000000 		.4byte	.L7-.LFB36
 196 0037 00       		.byte	0
 197 0038 00000000 		.4byte	.LEHB4-.LFB36
 198 003c 00000000 		.4byte	.LEHE4-.LEHB4
 199 0040 00000000 		.4byte	0
GAS LISTING /tmp/ccT1hiNb.s 			page 5


 200 0044 00       		.byte	0
 201 0045 00000000 		.4byte	.LEHB5-.LFB36
 202 0049 00000000 		.4byte	.LEHE5-.LEHB5
 203 004d 00000000 		.4byte	.L8-.LFB36
 204 0051 00       		.byte	0
 205 0052 00000000 		.4byte	.LEHB6-.LFB36
 206 0056 00000000 		.4byte	.LEHE6-.LEHB6
 207 005a 00000000 		.4byte	0
 208 005e 00       		.byte	0
 209 005f 00000000 		.4byte	.LEHB7-.LFB36
 210 0063 00000000 		.4byte	.LEHE7-.LEHB7
 211 0067 00000000 		.4byte	.L9-.LFB36
 212 006b 00       		.byte	0
 213 006c 00000000 		.4byte	.LEHB8-.LFB36
 214 0070 00000000 		.4byte	.LEHE8-.LEHB8
 215 0074 00000000 		.4byte	0
 216 0078 00       		.byte	0
 217              		.text
 219              		.globl	_ZN9BufferCPPC1Ei
 220              		.set	_ZN9BufferCPPC1Ei,_ZN9BufferCPPC2Ei
 221              		.align	2
 222              		.globl	_ZN9BufferCPP3putEi
 224              	_ZN9BufferCPP3putEi:
 225              	.LFB41:
  10:test/buffer_CPP_API.cpp **** 
  11:test/buffer_CPP_API.cpp **** BufferCPP::~BufferCPP() {
  12:test/buffer_CPP_API.cpp ****     Console::putc('\n');
  13:test/buffer_CPP_API.cpp ****     printString("Buffer deleted!\n");
  14:test/buffer_CPP_API.cpp ****     while (getCnt()) {
  15:test/buffer_CPP_API.cpp ****         char ch = buffer[head];
  16:test/buffer_CPP_API.cpp ****         Console::putc(ch);
  17:test/buffer_CPP_API.cpp ****         head = (head + 1) % cap;
  18:test/buffer_CPP_API.cpp ****     }
  19:test/buffer_CPP_API.cpp ****     Console::putc('!');
  20:test/buffer_CPP_API.cpp ****     Console::putc('\n');
  21:test/buffer_CPP_API.cpp **** 
  22:test/buffer_CPP_API.cpp ****     mem_free(buffer);
  23:test/buffer_CPP_API.cpp ****     delete itemAvailable;
  24:test/buffer_CPP_API.cpp ****     delete spaceAvailable;
  25:test/buffer_CPP_API.cpp ****     delete mutexTail;
  26:test/buffer_CPP_API.cpp ****     delete mutexHead;
  27:test/buffer_CPP_API.cpp **** 
  28:test/buffer_CPP_API.cpp **** }
  29:test/buffer_CPP_API.cpp **** 
  30:test/buffer_CPP_API.cpp **** void BufferCPP::put(int val) {
 226              		.loc 1 30 30 is_stmt 1
 227              		.cfi_startproc
 228              	.LVL25:
 229 0154 130101FE 		addi	sp,sp,-32
 230              		.cfi_def_cfa_offset 32
 231 0158 233C1100 		sd	ra,24(sp)
 232 015c 23388100 		sd	s0,16(sp)
 233 0160 23349100 		sd	s1,8(sp)
 234 0164 23302101 		sd	s2,0(sp)
 235              		.cfi_offset 1, -8
 236              		.cfi_offset 8, -16
 237              		.cfi_offset 9, -24
GAS LISTING /tmp/ccT1hiNb.s 			page 6


 238              		.cfi_offset 18, -32
 239 0168 13040102 		addi	s0,sp,32
 240              		.cfi_def_cfa 8, 0
 241 016c 93040500 		mv	s1,a0
 242 0170 13890500 		mv	s2,a1
  31:test/buffer_CPP_API.cpp ****     spaceAvailable->wait();
 243              		.loc 1 31 5
 244              		.loc 1 31 25 is_stmt 0
 245 0174 03358501 		ld	a0,24(a0)
 246              	.LVL26:
 247 0178 97000000 		call	_ZN9Semaphore4waitEv
 247      E7800000 
 248              	.LVL27:
  32:test/buffer_CPP_API.cpp **** 
  33:test/buffer_CPP_API.cpp ****     mutexTail->wait();
 249              		.loc 1 33 5 is_stmt 1
 250              		.loc 1 33 20 is_stmt 0
 251 0180 03B50403 		ld	a0,48(s1)
 252 0184 97000000 		call	_ZN9Semaphore4waitEv
 252      E7800000 
 253              	.LVL28:
  34:test/buffer_CPP_API.cpp ****     buffer[tail] = val;
 254              		.loc 1 34 5 is_stmt 1
 255 018c 83B78400 		ld	a5,8(s1)
 256              		.loc 1 34 12 is_stmt 0
 257 0190 03A74401 		lw	a4,20(s1)
 258              		.loc 1 34 16
 259 0194 13172700 		slli	a4,a4,2
 260 0198 B387E700 		add	a5,a5,a4
 261              		.loc 1 34 18
 262 019c 23A02701 		sw	s2,0(a5)
  35:test/buffer_CPP_API.cpp ****     tail = (tail + 1) % cap;
 263              		.loc 1 35 5 is_stmt 1
 264              		.loc 1 35 13 is_stmt 0
 265 01a0 83A74401 		lw	a5,20(s1)
 266              		.loc 1 35 18
 267 01a4 9B871700 		addiw	a5,a5,1
 268              		.loc 1 35 25
 269 01a8 03A70400 		lw	a4,0(s1)
 270              		.loc 1 35 23
 271 01ac BBE7E702 		remw	a5,a5,a4
 272              		.loc 1 35 10
 273 01b0 23AAF400 		sw	a5,20(s1)
  36:test/buffer_CPP_API.cpp ****     mutexTail->signal();
 274              		.loc 1 36 5 is_stmt 1
 275              		.loc 1 36 22 is_stmt 0
 276 01b4 03B50403 		ld	a0,48(s1)
 277 01b8 97000000 		call	_ZN9Semaphore6signalEv
 277      E7800000 
 278              	.LVL29:
  37:test/buffer_CPP_API.cpp **** 
  38:test/buffer_CPP_API.cpp ****     itemAvailable->signal();
 279              		.loc 1 38 5 is_stmt 1
 280              		.loc 1 38 26 is_stmt 0
 281 01c0 03B50402 		ld	a0,32(s1)
 282 01c4 97000000 		call	_ZN9Semaphore6signalEv
 282      E7800000 
GAS LISTING /tmp/ccT1hiNb.s 			page 7


 283              	.LVL30:
  39:test/buffer_CPP_API.cpp **** 
  40:test/buffer_CPP_API.cpp **** }
 284              		.loc 1 40 1
 285 01cc 83308101 		ld	ra,24(sp)
 286              		.cfi_restore 1
 287 01d0 03340101 		ld	s0,16(sp)
 288              		.cfi_restore 8
 289 01d4 83348100 		ld	s1,8(sp)
 290              		.cfi_restore 9
 291              	.LVL31:
 292 01d8 03390100 		ld	s2,0(sp)
 293              		.cfi_restore 18
 294 01dc 13010102 		addi	sp,sp,32
 295              		.cfi_def_cfa_register 2
 296 01e0 67800000 		jr	ra
 297              		.cfi_endproc
 298              	.LFE41:
 300              		.align	2
 301              		.globl	_ZN9BufferCPP3getEv
 303              	_ZN9BufferCPP3getEv:
 304              	.LFB42:
  41:test/buffer_CPP_API.cpp **** 
  42:test/buffer_CPP_API.cpp **** int BufferCPP::get() {
 305              		.loc 1 42 22 is_stmt 1
 306              		.cfi_startproc
 307              	.LVL32:
 308 01e4 130101FE 		addi	sp,sp,-32
 309              		.cfi_def_cfa_offset 32
 310 01e8 233C1100 		sd	ra,24(sp)
 311 01ec 23388100 		sd	s0,16(sp)
 312 01f0 23349100 		sd	s1,8(sp)
 313 01f4 23302101 		sd	s2,0(sp)
 314              		.cfi_offset 1, -8
 315              		.cfi_offset 8, -16
 316              		.cfi_offset 9, -24
 317              		.cfi_offset 18, -32
 318 01f8 13040102 		addi	s0,sp,32
 319              		.cfi_def_cfa 8, 0
 320 01fc 93040500 		mv	s1,a0
  43:test/buffer_CPP_API.cpp ****     itemAvailable->wait();
 321              		.loc 1 43 5
 322              		.loc 1 43 24 is_stmt 0
 323 0200 03350502 		ld	a0,32(a0)
 324              	.LVL33:
 325 0204 97000000 		call	_ZN9Semaphore4waitEv
 325      E7800000 
 326              	.LVL34:
  44:test/buffer_CPP_API.cpp **** 
  45:test/buffer_CPP_API.cpp ****     mutexHead->wait();
 327              		.loc 1 45 5 is_stmt 1
 328              		.loc 1 45 20 is_stmt 0
 329 020c 03B58402 		ld	a0,40(s1)
 330 0210 97000000 		call	_ZN9Semaphore4waitEv
 330      E7800000 
 331              	.LVL35:
  46:test/buffer_CPP_API.cpp **** 
GAS LISTING /tmp/ccT1hiNb.s 			page 8


  47:test/buffer_CPP_API.cpp ****     int ret = buffer[head];
 332              		.loc 1 47 5 is_stmt 1
 333              		.loc 1 47 15 is_stmt 0
 334 0218 03B78400 		ld	a4,8(s1)
 335              		.loc 1 47 22
 336 021c 83A70401 		lw	a5,16(s1)
 337              		.loc 1 47 26
 338 0220 93962700 		slli	a3,a5,2
 339 0224 3307D700 		add	a4,a4,a3
 340              		.loc 1 47 9
 341 0228 03290700 		lw	s2,0(a4)
 342              	.LVL36:
  48:test/buffer_CPP_API.cpp ****     head = (head + 1) % cap;
 343              		.loc 1 48 5 is_stmt 1
 344              		.loc 1 48 18 is_stmt 0
 345 022c 9B871700 		addiw	a5,a5,1
 346              		.loc 1 48 25
 347 0230 03A70400 		lw	a4,0(s1)
 348              		.loc 1 48 23
 349 0234 BBE7E702 		remw	a5,a5,a4
 350              		.loc 1 48 10
 351 0238 23A8F400 		sw	a5,16(s1)
  49:test/buffer_CPP_API.cpp ****     mutexHead->signal();
 352              		.loc 1 49 5 is_stmt 1
 353              		.loc 1 49 22 is_stmt 0
 354 023c 03B58402 		ld	a0,40(s1)
 355 0240 97000000 		call	_ZN9Semaphore6signalEv
 355      E7800000 
 356              	.LVL37:
  50:test/buffer_CPP_API.cpp **** 
  51:test/buffer_CPP_API.cpp ****     spaceAvailable->signal();
 357              		.loc 1 51 5 is_stmt 1
 358              		.loc 1 51 27 is_stmt 0
 359 0248 03B58401 		ld	a0,24(s1)
 360 024c 97000000 		call	_ZN9Semaphore6signalEv
 360      E7800000 
 361              	.LVL38:
  52:test/buffer_CPP_API.cpp **** 
  53:test/buffer_CPP_API.cpp ****     return ret;
 362              		.loc 1 53 5 is_stmt 1
  54:test/buffer_CPP_API.cpp **** }
 363              		.loc 1 54 1 is_stmt 0
 364 0254 13050900 		mv	a0,s2
 365 0258 83308101 		ld	ra,24(sp)
 366              		.cfi_restore 1
 367 025c 03340101 		ld	s0,16(sp)
 368              		.cfi_restore 8
 369 0260 83348100 		ld	s1,8(sp)
 370              		.cfi_restore 9
 371              	.LVL39:
 372 0264 03390100 		ld	s2,0(sp)
 373              		.cfi_restore 18
 374              	.LVL40:
 375 0268 13010102 		addi	sp,sp,32
 376              		.cfi_def_cfa_register 2
 377 026c 67800000 		jr	ra
 378              		.cfi_endproc
GAS LISTING /tmp/ccT1hiNb.s 			page 9


 379              	.LFE42:
 381              		.align	2
 382              		.globl	_ZN9BufferCPP6getCntEv
 384              	_ZN9BufferCPP6getCntEv:
 385              	.LFB43:
  55:test/buffer_CPP_API.cpp **** 
  56:test/buffer_CPP_API.cpp **** int BufferCPP::getCnt() {
 386              		.loc 1 56 25 is_stmt 1
 387              		.cfi_startproc
 388              	.LVL41:
 389 0270 130101FE 		addi	sp,sp,-32
 390              		.cfi_def_cfa_offset 32
 391 0274 233C1100 		sd	ra,24(sp)
 392 0278 23388100 		sd	s0,16(sp)
 393 027c 23349100 		sd	s1,8(sp)
 394 0280 23302101 		sd	s2,0(sp)
 395              		.cfi_offset 1, -8
 396              		.cfi_offset 8, -16
 397              		.cfi_offset 9, -24
 398              		.cfi_offset 18, -32
 399 0284 13040102 		addi	s0,sp,32
 400              		.cfi_def_cfa 8, 0
 401 0288 93040500 		mv	s1,a0
  57:test/buffer_CPP_API.cpp ****     int ret;
 402              		.loc 1 57 5
  58:test/buffer_CPP_API.cpp **** 
  59:test/buffer_CPP_API.cpp ****     mutexHead->wait();
 403              		.loc 1 59 5
 404              		.loc 1 59 20 is_stmt 0
 405 028c 03358502 		ld	a0,40(a0)
 406              	.LVL42:
 407 0290 97000000 		call	_ZN9Semaphore4waitEv
 407      E7800000 
 408              	.LVL43:
  60:test/buffer_CPP_API.cpp ****     mutexTail->wait();
 409              		.loc 1 60 5 is_stmt 1
 410              		.loc 1 60 20 is_stmt 0
 411 0298 03B50403 		ld	a0,48(s1)
 412 029c 97000000 		call	_ZN9Semaphore4waitEv
 412      E7800000 
 413              	.LVL44:
  61:test/buffer_CPP_API.cpp **** 
  62:test/buffer_CPP_API.cpp ****     if (tail >= head) {
 414              		.loc 1 62 5 is_stmt 1
 415              		.loc 1 62 9 is_stmt 0
 416 02a4 83A74401 		lw	a5,20(s1)
 417              		.loc 1 62 17
 418 02a8 03A90401 		lw	s2,16(s1)
 419              		.loc 1 62 5
 420 02ac 63CE2703 		blt	a5,s2,.L17
  63:test/buffer_CPP_API.cpp ****         ret = tail - head;
 421              		.loc 1 63 9 is_stmt 1
 422              		.loc 1 63 13 is_stmt 0
 423 02b0 3B892741 		subw	s2,a5,s2
 424              	.LVL45:
 425              	.L18:
  64:test/buffer_CPP_API.cpp ****     } else {
GAS LISTING /tmp/ccT1hiNb.s 			page 10


  65:test/buffer_CPP_API.cpp ****         ret = cap - head + tail;
  66:test/buffer_CPP_API.cpp ****     }
  67:test/buffer_CPP_API.cpp **** 
  68:test/buffer_CPP_API.cpp ****     mutexTail->signal();
 426              		.loc 1 68 5 is_stmt 1
 427              		.loc 1 68 22 is_stmt 0
 428 02b4 03B50403 		ld	a0,48(s1)
 429 02b8 97000000 		call	_ZN9Semaphore6signalEv
 429      E7800000 
 430              	.LVL46:
  69:test/buffer_CPP_API.cpp ****     mutexHead->signal();
 431              		.loc 1 69 5 is_stmt 1
 432              		.loc 1 69 22 is_stmt 0
 433 02c0 03B58402 		ld	a0,40(s1)
 434 02c4 97000000 		call	_ZN9Semaphore6signalEv
 434      E7800000 
 435              	.LVL47:
  70:test/buffer_CPP_API.cpp **** 
  71:test/buffer_CPP_API.cpp ****     return ret;
 436              		.loc 1 71 5 is_stmt 1
  72:test/buffer_CPP_API.cpp **** }
 437              		.loc 1 72 1 is_stmt 0
 438 02cc 13050900 		mv	a0,s2
 439 02d0 83308101 		ld	ra,24(sp)
 440              		.cfi_remember_state
 441              		.cfi_restore 1
 442 02d4 03340101 		ld	s0,16(sp)
 443              		.cfi_restore 8
 444 02d8 83348100 		ld	s1,8(sp)
 445              		.cfi_restore 9
 446              	.LVL48:
 447 02dc 03390100 		ld	s2,0(sp)
 448              		.cfi_restore 18
 449              	.LVL49:
 450 02e0 13010102 		addi	sp,sp,32
 451              		.cfi_def_cfa_register 2
 452 02e4 67800000 		jr	ra
 453              	.LVL50:
 454              	.L17:
 455              		.cfi_restore_state
  65:test/buffer_CPP_API.cpp ****     }
 456              		.loc 1 65 9 is_stmt 1
  65:test/buffer_CPP_API.cpp ****     }
 457              		.loc 1 65 15 is_stmt 0
 458 02e8 03A70400 		lw	a4,0(s1)
  65:test/buffer_CPP_API.cpp ****     }
 459              		.loc 1 65 19
 460 02ec 3B092741 		subw	s2,a4,s2
  65:test/buffer_CPP_API.cpp ****     }
 461              		.loc 1 65 13
 462 02f0 3B09F900 		addw	s2,s2,a5
 463 02f4 6FF01FFC 		j	.L18
 464              		.cfi_endproc
 465              	.LFE43:
 467              		.align	2
 468              		.globl	_ZN9BufferCPPD2Ev
 470              	_ZN9BufferCPPD2Ev:
GAS LISTING /tmp/ccT1hiNb.s 			page 11


 471              	.LFB39:
  11:test/buffer_CPP_API.cpp ****     Console::putc('\n');
 472              		.loc 1 11 1 is_stmt 1
 473              		.cfi_startproc
 474              		.cfi_personality 0x9b,DW.ref.__gxx_personality_v0
 475              		.cfi_lsda 0x1b,.LLSDA39
 476              	.LVL51:
 477 02f8 130101FE 		addi	sp,sp,-32
 478              		.cfi_def_cfa_offset 32
 479 02fc 233C1100 		sd	ra,24(sp)
 480 0300 23388100 		sd	s0,16(sp)
 481 0304 23349100 		sd	s1,8(sp)
 482              		.cfi_offset 1, -8
 483              		.cfi_offset 8, -16
 484              		.cfi_offset 9, -24
 485 0308 13040102 		addi	s0,sp,32
 486              		.cfi_def_cfa 8, 0
 487 030c 93040500 		mv	s1,a0
 488              	.LBB4:
  12:test/buffer_CPP_API.cpp ****     printString("Buffer deleted!\n");
 489              		.loc 1 12 5
  12:test/buffer_CPP_API.cpp ****     printString("Buffer deleted!\n");
 490              		.loc 1 12 18 is_stmt 0
 491 0310 1305A000 		li	a0,10
 492              	.LVL52:
 493 0314 97000000 		call	_ZN7Console4putcEc
 493      E7800000 
 494              	.LVL53:
  13:test/buffer_CPP_API.cpp ****     while (getCnt()) {
 495              		.loc 1 13 5 is_stmt 1
  13:test/buffer_CPP_API.cpp ****     while (getCnt()) {
 496              		.loc 1 13 16 is_stmt 0
 497 031c 17050000 		lla	a0,.LC0
 497      13050500 
 498 0324 97000000 		call	_Z11printStringPKc
 498      E7800000 
 499              	.LVL54:
 500              	.L22:
  14:test/buffer_CPP_API.cpp ****         char ch = buffer[head];
 501              		.loc 1 14 5 is_stmt 1
  14:test/buffer_CPP_API.cpp ****         char ch = buffer[head];
 502              		.loc 1 14 18 is_stmt 0
 503 032c 13850400 		mv	a0,s1
 504 0330 97000000 		call	_ZN9BufferCPP6getCntEv
 504      E7800000 
 505              	.LVL55:
  14:test/buffer_CPP_API.cpp ****         char ch = buffer[head];
 506              		.loc 1 14 19
 507 0338 630C0502 		beqz	a0,.L21
 508              	.LBB5:
  15:test/buffer_CPP_API.cpp ****         Console::putc(ch);
 509              		.loc 1 15 9 is_stmt 1
  15:test/buffer_CPP_API.cpp ****         Console::putc(ch);
 510              		.loc 1 15 19 is_stmt 0
 511 033c 83B78400 		ld	a5,8(s1)
  15:test/buffer_CPP_API.cpp ****         Console::putc(ch);
 512              		.loc 1 15 26
GAS LISTING /tmp/ccT1hiNb.s 			page 12


 513 0340 03A70401 		lw	a4,16(s1)
  15:test/buffer_CPP_API.cpp ****         Console::putc(ch);
 514              		.loc 1 15 30
 515 0344 13172700 		slli	a4,a4,2
 516 0348 B387E700 		add	a5,a5,a4
 517              	.LVL56:
  16:test/buffer_CPP_API.cpp ****         head = (head + 1) % cap;
 518              		.loc 1 16 9 is_stmt 1
  16:test/buffer_CPP_API.cpp ****         head = (head + 1) % cap;
 519              		.loc 1 16 22 is_stmt 0
 520 034c 03C50700 		lbu	a0,0(a5)
 521 0350 97000000 		call	_ZN7Console4putcEc
 521      E7800000 
 522              	.LVL57:
  17:test/buffer_CPP_API.cpp ****     }
 523              		.loc 1 17 9 is_stmt 1
  17:test/buffer_CPP_API.cpp ****     }
 524              		.loc 1 17 17 is_stmt 0
 525 0358 83A70401 		lw	a5,16(s1)
  17:test/buffer_CPP_API.cpp ****     }
 526              		.loc 1 17 22
 527 035c 9B871700 		addiw	a5,a5,1
  17:test/buffer_CPP_API.cpp ****     }
 528              		.loc 1 17 29
 529 0360 03A70400 		lw	a4,0(s1)
  17:test/buffer_CPP_API.cpp ****     }
 530              		.loc 1 17 27
 531 0364 BBE7E702 		remw	a5,a5,a4
  17:test/buffer_CPP_API.cpp ****     }
 532              		.loc 1 17 14
 533 0368 23A8F400 		sw	a5,16(s1)
 534              	.LBE5:
  14:test/buffer_CPP_API.cpp ****         char ch = buffer[head];
 535              		.loc 1 14 5
 536 036c 6FF01FFC 		j	.L22
 537              	.L21:
  19:test/buffer_CPP_API.cpp ****     Console::putc('\n');
 538              		.loc 1 19 5 is_stmt 1
  19:test/buffer_CPP_API.cpp ****     Console::putc('\n');
 539              		.loc 1 19 18 is_stmt 0
 540 0370 13051002 		li	a0,33
 541 0374 97000000 		call	_ZN7Console4putcEc
 541      E7800000 
 542              	.LVL58:
  20:test/buffer_CPP_API.cpp **** 
 543              		.loc 1 20 5 is_stmt 1
  20:test/buffer_CPP_API.cpp **** 
 544              		.loc 1 20 18 is_stmt 0
 545 037c 1305A000 		li	a0,10
 546 0380 97000000 		call	_ZN7Console4putcEc
 546      E7800000 
 547              	.LVL59:
  22:test/buffer_CPP_API.cpp ****     delete itemAvailable;
 548              		.loc 1 22 5 is_stmt 1
  22:test/buffer_CPP_API.cpp ****     delete itemAvailable;
 549              		.loc 1 22 13 is_stmt 0
 550 0388 03B58400 		ld	a0,8(s1)
GAS LISTING /tmp/ccT1hiNb.s 			page 13


 551 038c 97000000 		call	_Z8mem_freePv
 551      E7800000 
 552              	.LVL60:
  23:test/buffer_CPP_API.cpp ****     delete spaceAvailable;
 553              		.loc 1 23 5 is_stmt 1
  23:test/buffer_CPP_API.cpp ****     delete spaceAvailable;
 554              		.loc 1 23 12 is_stmt 0
 555 0394 03B50402 		ld	a0,32(s1)
  23:test/buffer_CPP_API.cpp ****     delete spaceAvailable;
 556              		.loc 1 23 25
 557 0398 63080500 		beqz	a0,.L23
  23:test/buffer_CPP_API.cpp ****     delete spaceAvailable;
 558              		.loc 1 23 12 discriminator 1
 559 039c 83370500 		ld	a5,0(a0)
 560 03a0 83B78700 		ld	a5,8(a5)
 561 03a4 E7800700 		jalr	a5
 562              	.LVL61:
 563              	.L23:
  24:test/buffer_CPP_API.cpp ****     delete mutexTail;
 564              		.loc 1 24 5 is_stmt 1
  24:test/buffer_CPP_API.cpp ****     delete mutexTail;
 565              		.loc 1 24 12 is_stmt 0
 566 03a8 03B58401 		ld	a0,24(s1)
  24:test/buffer_CPP_API.cpp ****     delete mutexTail;
 567              		.loc 1 24 26
 568 03ac 63080500 		beqz	a0,.L24
  24:test/buffer_CPP_API.cpp ****     delete mutexTail;
 569              		.loc 1 24 12 discriminator 1
 570 03b0 83370500 		ld	a5,0(a0)
 571 03b4 83B78700 		ld	a5,8(a5)
 572 03b8 E7800700 		jalr	a5
 573              	.LVL62:
 574              	.L24:
  25:test/buffer_CPP_API.cpp ****     delete mutexHead;
 575              		.loc 1 25 5 is_stmt 1
  25:test/buffer_CPP_API.cpp ****     delete mutexHead;
 576              		.loc 1 25 12 is_stmt 0
 577 03bc 03B50403 		ld	a0,48(s1)
  25:test/buffer_CPP_API.cpp ****     delete mutexHead;
 578              		.loc 1 25 21
 579 03c0 63080500 		beqz	a0,.L25
  25:test/buffer_CPP_API.cpp ****     delete mutexHead;
 580              		.loc 1 25 12 discriminator 1
 581 03c4 83370500 		ld	a5,0(a0)
 582 03c8 83B78700 		ld	a5,8(a5)
 583 03cc E7800700 		jalr	a5
 584              	.LVL63:
 585              	.L25:
  26:test/buffer_CPP_API.cpp **** 
 586              		.loc 1 26 5 is_stmt 1
  26:test/buffer_CPP_API.cpp **** 
 587              		.loc 1 26 12 is_stmt 0
 588 03d0 03B58402 		ld	a0,40(s1)
  26:test/buffer_CPP_API.cpp **** 
 589              		.loc 1 26 21
 590 03d4 63080500 		beqz	a0,.L20
  26:test/buffer_CPP_API.cpp **** 
GAS LISTING /tmp/ccT1hiNb.s 			page 14


 591              		.loc 1 26 12 discriminator 1
 592 03d8 83370500 		ld	a5,0(a0)
 593 03dc 83B78700 		ld	a5,8(a5)
 594 03e0 E7800700 		jalr	a5
 595              	.LVL64:
 596              	.L20:
 597              	.LBE4:
  28:test/buffer_CPP_API.cpp **** 
 598              		.loc 1 28 1
 599 03e4 83308101 		ld	ra,24(sp)
 600              		.cfi_restore 1
 601 03e8 03340101 		ld	s0,16(sp)
 602              		.cfi_restore 8
 603 03ec 83348100 		ld	s1,8(sp)
 604              		.cfi_restore 9
 605              	.LVL65:
 606 03f0 13010102 		addi	sp,sp,32
 607              		.cfi_def_cfa_register 2
 608 03f4 67800000 		jr	ra
 609              		.cfi_endproc
 610              	.LFE39:
 611              		.section	.gcc_except_table
 612              	.LLSDA39:
 613 0079 FF       		.byte	0xff
 614 007a FF       		.byte	0xff
 615 007b 03       		.byte	0x3
 616 007c 00       		.byte	0
 617              		.text
 619              		.globl	_ZN9BufferCPPD1Ev
 620              		.set	_ZN9BufferCPPD1Ev,_ZN9BufferCPPD2Ev
 621              		.section	.rodata.str1.8,"aMS",@progbits,1
 622              		.align	3
 623              	.LC0:
 624 0000 42756666 		.string	"Buffer deleted!\n"
 624      65722064 
 624      656C6574 
 624      6564210A 
 624      00
 625              		.text
 626              	.Letext0:
 627              		.file 2 "test/../h/../lib/hw.h"
 628              		.file 3 "test/../h/syscall_cpp.hpp"
 629              		.file 4 "test/buffer_CPP_API.hpp"
 630              		.file 5 "test/../h/syscall_c.hpp"
 631              		.file 6 "test/printing.hpp"
 2471              		.align	3
 2474              	DW.ref.__gxx_personality_v0:
 2475 0000 00000000 		.dword	__gxx_personality_v0
 2475      00000000 
 2476              		.ident	"GCC: (GNU) 8.3.0"
GAS LISTING /tmp/ccT1hiNb.s 			page 15


DEFINED SYMBOLS
                            *ABS*:0000000000000000 buffer_CPP_API.cpp
     /tmp/ccT1hiNb.s:9      .text:0000000000000000 _ZN9BufferCPPC2Ei
     /tmp/ccT1hiNb.s:13     .text:0000000000000000 .L0 
     /tmp/ccT1hiNb.s:2474   .sdata.DW.ref.__gxx_personality_v0:0000000000000000 DW.ref.__gxx_personality_v0
     /tmp/ccT1hiNb.s:17     .text:0000000000000000 .L0 
     /tmp/ccT1hiNb.s:18     .text:0000000000000004 .L0 
     /tmp/ccT1hiNb.s:24     .text:0000000000000018 .L0 
     /tmp/ccT1hiNb.s:25     .text:0000000000000018 .L0 
     /tmp/ccT1hiNb.s:26     .text:0000000000000018 .L0 
     /tmp/ccT1hiNb.s:27     .text:0000000000000018 .L0 
     /tmp/ccT1hiNb.s:28     .text:0000000000000018 .L0 
     /tmp/ccT1hiNb.s:30     .text:000000000000001c .L0 
     /tmp/ccT1hiNb.s:35     .text:0000000000000024 .L0 
     /tmp/ccT1hiNb.s:39     .text:000000000000002c .L0 
     /tmp/ccT1hiNb.s:43     .text:0000000000000038 .L0 
     /tmp/ccT1hiNb.s:44     .text:0000000000000038 .L0 
     /tmp/ccT1hiNb.s:49     .text:0000000000000044 .L0 
     /tmp/ccT1hiNb.s:51     .text:0000000000000048 .L0 
     /tmp/ccT1hiNb.s:52     .text:0000000000000048 .L0 
     /tmp/ccT1hiNb.s:63     .text:0000000000000064 .L0 
     /tmp/ccT1hiNb.s:65     .text:0000000000000068 .L0 
     /tmp/ccT1hiNb.s:66     .text:0000000000000068 .L0 
     /tmp/ccT1hiNb.s:78     .text:0000000000000084 .L0 
     /tmp/ccT1hiNb.s:80     .text:0000000000000088 .L0 
     /tmp/ccT1hiNb.s:81     .text:0000000000000088 .L0 
     /tmp/ccT1hiNb.s:93     .text:00000000000000a4 .L0 
     /tmp/ccT1hiNb.s:95     .text:00000000000000a8 .L0 
     /tmp/ccT1hiNb.s:96     .text:00000000000000a8 .L0 
     /tmp/ccT1hiNb.s:108    .text:00000000000000c4 .L0 
     /tmp/ccT1hiNb.s:111    .text:00000000000000c8 .L0 
     /tmp/ccT1hiNb.s:112    .text:00000000000000cc .L0 
     /tmp/ccT1hiNb.s:113    .text:00000000000000cc .L0 
     /tmp/ccT1hiNb.s:115    .text:00000000000000d0 .L0 
     /tmp/ccT1hiNb.s:117    .text:00000000000000d4 .L0 
     /tmp/ccT1hiNb.s:120    .text:00000000000000d8 .L0 
     /tmp/ccT1hiNb.s:122    .text:00000000000000dc .L0 
     /tmp/ccT1hiNb.s:124    .text:00000000000000e0 .L0 
     /tmp/ccT1hiNb.s:128    .text:00000000000000e4 .L0 
     /tmp/ccT1hiNb.s:133    .text:00000000000000e8 .L0 
     /tmp/ccT1hiNb.s:144    .text:0000000000000104 .L0 
     /tmp/ccT1hiNb.s:154    .text:0000000000000120 .L0 
     /tmp/ccT1hiNb.s:164    .text:000000000000013c .L0 
     /tmp/ccT1hiNb.s:172    .text:0000000000000154 .L0 
     /tmp/ccT1hiNb.s:9      .text:0000000000000000 _ZN9BufferCPPC1Ei
     /tmp/ccT1hiNb.s:224    .text:0000000000000154 _ZN9BufferCPP3putEi
     /tmp/ccT1hiNb.s:227    .text:0000000000000154 .L0 
     /tmp/ccT1hiNb.s:229    .text:0000000000000154 .L0 
     /tmp/ccT1hiNb.s:230    .text:0000000000000158 .L0 
     /tmp/ccT1hiNb.s:235    .text:0000000000000168 .L0 
     /tmp/ccT1hiNb.s:236    .text:0000000000000168 .L0 
     /tmp/ccT1hiNb.s:237    .text:0000000000000168 .L0 
     /tmp/ccT1hiNb.s:238    .text:0000000000000168 .L0 
     /tmp/ccT1hiNb.s:240    .text:000000000000016c .L0 
     /tmp/ccT1hiNb.s:244    .text:0000000000000174 .L0 
     /tmp/ccT1hiNb.s:245    .text:0000000000000174 .L0 
     /tmp/ccT1hiNb.s:250    .text:0000000000000180 .L0 
GAS LISTING /tmp/ccT1hiNb.s 			page 16


     /tmp/ccT1hiNb.s:251    .text:0000000000000180 .L0 
     /tmp/ccT1hiNb.s:255    .text:000000000000018c .L0 
     /tmp/ccT1hiNb.s:257    .text:0000000000000190 .L0 
     /tmp/ccT1hiNb.s:259    .text:0000000000000194 .L0 
     /tmp/ccT1hiNb.s:262    .text:000000000000019c .L0 
     /tmp/ccT1hiNb.s:264    .text:00000000000001a0 .L0 
     /tmp/ccT1hiNb.s:265    .text:00000000000001a0 .L0 
     /tmp/ccT1hiNb.s:267    .text:00000000000001a4 .L0 
     /tmp/ccT1hiNb.s:269    .text:00000000000001a8 .L0 
     /tmp/ccT1hiNb.s:271    .text:00000000000001ac .L0 
     /tmp/ccT1hiNb.s:273    .text:00000000000001b0 .L0 
     /tmp/ccT1hiNb.s:275    .text:00000000000001b4 .L0 
     /tmp/ccT1hiNb.s:276    .text:00000000000001b4 .L0 
     /tmp/ccT1hiNb.s:280    .text:00000000000001c0 .L0 
     /tmp/ccT1hiNb.s:281    .text:00000000000001c0 .L0 
     /tmp/ccT1hiNb.s:285    .text:00000000000001cc .L0 
     /tmp/ccT1hiNb.s:286    .text:00000000000001d0 .L0 
     /tmp/ccT1hiNb.s:288    .text:00000000000001d4 .L0 
     /tmp/ccT1hiNb.s:290    .text:00000000000001d8 .L0 
     /tmp/ccT1hiNb.s:293    .text:00000000000001dc .L0 
     /tmp/ccT1hiNb.s:295    .text:00000000000001e0 .L0 
     /tmp/ccT1hiNb.s:297    .text:00000000000001e4 .L0 
     /tmp/ccT1hiNb.s:303    .text:00000000000001e4 _ZN9BufferCPP3getEv
     /tmp/ccT1hiNb.s:306    .text:00000000000001e4 .L0 
     /tmp/ccT1hiNb.s:308    .text:00000000000001e4 .L0 
     /tmp/ccT1hiNb.s:309    .text:00000000000001e8 .L0 
     /tmp/ccT1hiNb.s:314    .text:00000000000001f8 .L0 
     /tmp/ccT1hiNb.s:315    .text:00000000000001f8 .L0 
     /tmp/ccT1hiNb.s:316    .text:00000000000001f8 .L0 
     /tmp/ccT1hiNb.s:317    .text:00000000000001f8 .L0 
     /tmp/ccT1hiNb.s:319    .text:00000000000001fc .L0 
     /tmp/ccT1hiNb.s:322    .text:0000000000000200 .L0 
     /tmp/ccT1hiNb.s:323    .text:0000000000000200 .L0 
     /tmp/ccT1hiNb.s:328    .text:000000000000020c .L0 
     /tmp/ccT1hiNb.s:329    .text:000000000000020c .L0 
     /tmp/ccT1hiNb.s:333    .text:0000000000000218 .L0 
     /tmp/ccT1hiNb.s:334    .text:0000000000000218 .L0 
     /tmp/ccT1hiNb.s:336    .text:000000000000021c .L0 
     /tmp/ccT1hiNb.s:338    .text:0000000000000220 .L0 
     /tmp/ccT1hiNb.s:341    .text:0000000000000228 .L0 
     /tmp/ccT1hiNb.s:344    .text:000000000000022c .L0 
     /tmp/ccT1hiNb.s:345    .text:000000000000022c .L0 
     /tmp/ccT1hiNb.s:347    .text:0000000000000230 .L0 
     /tmp/ccT1hiNb.s:349    .text:0000000000000234 .L0 
     /tmp/ccT1hiNb.s:351    .text:0000000000000238 .L0 
     /tmp/ccT1hiNb.s:353    .text:000000000000023c .L0 
     /tmp/ccT1hiNb.s:354    .text:000000000000023c .L0 
     /tmp/ccT1hiNb.s:358    .text:0000000000000248 .L0 
     /tmp/ccT1hiNb.s:359    .text:0000000000000248 .L0 
     /tmp/ccT1hiNb.s:363    .text:0000000000000254 .L0 
     /tmp/ccT1hiNb.s:364    .text:0000000000000254 .L0 
     /tmp/ccT1hiNb.s:366    .text:000000000000025c .L0 
     /tmp/ccT1hiNb.s:368    .text:0000000000000260 .L0 
     /tmp/ccT1hiNb.s:370    .text:0000000000000264 .L0 
     /tmp/ccT1hiNb.s:373    .text:0000000000000268 .L0 
     /tmp/ccT1hiNb.s:376    .text:000000000000026c .L0 
     /tmp/ccT1hiNb.s:378    .text:0000000000000270 .L0 
GAS LISTING /tmp/ccT1hiNb.s 			page 17


     /tmp/ccT1hiNb.s:384    .text:0000000000000270 _ZN9BufferCPP6getCntEv
     /tmp/ccT1hiNb.s:387    .text:0000000000000270 .L0 
     /tmp/ccT1hiNb.s:389    .text:0000000000000270 .L0 
     /tmp/ccT1hiNb.s:390    .text:0000000000000274 .L0 
     /tmp/ccT1hiNb.s:395    .text:0000000000000284 .L0 
     /tmp/ccT1hiNb.s:396    .text:0000000000000284 .L0 
     /tmp/ccT1hiNb.s:397    .text:0000000000000284 .L0 
     /tmp/ccT1hiNb.s:398    .text:0000000000000284 .L0 
     /tmp/ccT1hiNb.s:400    .text:0000000000000288 .L0 
     /tmp/ccT1hiNb.s:403    .text:000000000000028c .L0 
     /tmp/ccT1hiNb.s:404    .text:000000000000028c .L0 
     /tmp/ccT1hiNb.s:405    .text:000000000000028c .L0 
     /tmp/ccT1hiNb.s:410    .text:0000000000000298 .L0 
     /tmp/ccT1hiNb.s:411    .text:0000000000000298 .L0 
     /tmp/ccT1hiNb.s:415    .text:00000000000002a4 .L0 
     /tmp/ccT1hiNb.s:416    .text:00000000000002a4 .L0 
     /tmp/ccT1hiNb.s:418    .text:00000000000002a8 .L0 
     /tmp/ccT1hiNb.s:420    .text:00000000000002ac .L0 
     /tmp/ccT1hiNb.s:422    .text:00000000000002b0 .L0 
     /tmp/ccT1hiNb.s:423    .text:00000000000002b0 .L0 
     /tmp/ccT1hiNb.s:427    .text:00000000000002b4 .L0 
     /tmp/ccT1hiNb.s:428    .text:00000000000002b4 .L0 
     /tmp/ccT1hiNb.s:432    .text:00000000000002c0 .L0 
     /tmp/ccT1hiNb.s:433    .text:00000000000002c0 .L0 
     /tmp/ccT1hiNb.s:437    .text:00000000000002cc .L0 
     /tmp/ccT1hiNb.s:438    .text:00000000000002cc .L0 
     /tmp/ccT1hiNb.s:440    .text:00000000000002d4 .L0 
     /tmp/ccT1hiNb.s:441    .text:00000000000002d4 .L0 
     /tmp/ccT1hiNb.s:443    .text:00000000000002d8 .L0 
     /tmp/ccT1hiNb.s:445    .text:00000000000002dc .L0 
     /tmp/ccT1hiNb.s:448    .text:00000000000002e0 .L0 
     /tmp/ccT1hiNb.s:451    .text:00000000000002e4 .L0 
     /tmp/ccT1hiNb.s:455    .text:00000000000002e8 .L0 
     /tmp/ccT1hiNb.s:457    .text:00000000000002e8 .L0 
     /tmp/ccT1hiNb.s:458    .text:00000000000002e8 .L0 
     /tmp/ccT1hiNb.s:460    .text:00000000000002ec .L0 
     /tmp/ccT1hiNb.s:462    .text:00000000000002f0 .L0 
     /tmp/ccT1hiNb.s:464    .text:00000000000002f8 .L0 
     /tmp/ccT1hiNb.s:470    .text:00000000000002f8 _ZN9BufferCPPD2Ev
     /tmp/ccT1hiNb.s:473    .text:00000000000002f8 .L0 
     /tmp/ccT1hiNb.s:477    .text:00000000000002f8 .L0 
     /tmp/ccT1hiNb.s:478    .text:00000000000002fc .L0 
     /tmp/ccT1hiNb.s:482    .text:0000000000000308 .L0 
     /tmp/ccT1hiNb.s:483    .text:0000000000000308 .L0 
     /tmp/ccT1hiNb.s:484    .text:0000000000000308 .L0 
     /tmp/ccT1hiNb.s:486    .text:000000000000030c .L0 
     /tmp/ccT1hiNb.s:490    .text:0000000000000310 .L0 
     /tmp/ccT1hiNb.s:491    .text:0000000000000310 .L0 
     /tmp/ccT1hiNb.s:496    .text:000000000000031c .L0 
     /tmp/ccT1hiNb.s:497    .text:000000000000031c .L0 
     /tmp/ccT1hiNb.s:502    .text:000000000000032c .L0 
     /tmp/ccT1hiNb.s:503    .text:000000000000032c .L0 
     /tmp/ccT1hiNb.s:507    .text:0000000000000338 .L0 
     /tmp/ccT1hiNb.s:510    .text:000000000000033c .L0 
     /tmp/ccT1hiNb.s:511    .text:000000000000033c .L0 
     /tmp/ccT1hiNb.s:513    .text:0000000000000340 .L0 
     /tmp/ccT1hiNb.s:515    .text:0000000000000344 .L0 
GAS LISTING /tmp/ccT1hiNb.s 			page 18


     /tmp/ccT1hiNb.s:519    .text:000000000000034c .L0 
     /tmp/ccT1hiNb.s:520    .text:000000000000034c .L0 
     /tmp/ccT1hiNb.s:524    .text:0000000000000358 .L0 
     /tmp/ccT1hiNb.s:525    .text:0000000000000358 .L0 
     /tmp/ccT1hiNb.s:527    .text:000000000000035c .L0 
     /tmp/ccT1hiNb.s:529    .text:0000000000000360 .L0 
     /tmp/ccT1hiNb.s:531    .text:0000000000000364 .L0 
     /tmp/ccT1hiNb.s:533    .text:0000000000000368 .L0 
     /tmp/ccT1hiNb.s:536    .text:000000000000036c .L0 
     /tmp/ccT1hiNb.s:539    .text:0000000000000370 .L0 
     /tmp/ccT1hiNb.s:540    .text:0000000000000370 .L0 
     /tmp/ccT1hiNb.s:544    .text:000000000000037c .L0 
     /tmp/ccT1hiNb.s:545    .text:000000000000037c .L0 
     /tmp/ccT1hiNb.s:549    .text:0000000000000388 .L0 
     /tmp/ccT1hiNb.s:550    .text:0000000000000388 .L0 
     /tmp/ccT1hiNb.s:554    .text:0000000000000394 .L0 
     /tmp/ccT1hiNb.s:555    .text:0000000000000394 .L0 
     /tmp/ccT1hiNb.s:557    .text:0000000000000398 .L0 
     /tmp/ccT1hiNb.s:559    .text:000000000000039c .L0 
     /tmp/ccT1hiNb.s:565    .text:00000000000003a8 .L0 
     /tmp/ccT1hiNb.s:566    .text:00000000000003a8 .L0 
     /tmp/ccT1hiNb.s:568    .text:00000000000003ac .L0 
     /tmp/ccT1hiNb.s:570    .text:00000000000003b0 .L0 
     /tmp/ccT1hiNb.s:576    .text:00000000000003bc .L0 
     /tmp/ccT1hiNb.s:577    .text:00000000000003bc .L0 
     /tmp/ccT1hiNb.s:579    .text:00000000000003c0 .L0 
     /tmp/ccT1hiNb.s:581    .text:00000000000003c4 .L0 
     /tmp/ccT1hiNb.s:587    .text:00000000000003d0 .L0 
     /tmp/ccT1hiNb.s:588    .text:00000000000003d0 .L0 
     /tmp/ccT1hiNb.s:590    .text:00000000000003d4 .L0 
     /tmp/ccT1hiNb.s:592    .text:00000000000003d8 .L0 
     /tmp/ccT1hiNb.s:599    .text:00000000000003e4 .L0 
     /tmp/ccT1hiNb.s:600    .text:00000000000003e8 .L0 
     /tmp/ccT1hiNb.s:602    .text:00000000000003ec .L0 
     /tmp/ccT1hiNb.s:604    .text:00000000000003f0 .L0 
     /tmp/ccT1hiNb.s:607    .text:00000000000003f4 .L0 
     /tmp/ccT1hiNb.s:609    .text:00000000000003f8 .L0 
     /tmp/ccT1hiNb.s:470    .text:00000000000002f8 _ZN9BufferCPPD1Ev
     /tmp/ccT1hiNb.s:632    .text:00000000000003f8 .L0 
     /tmp/ccT1hiNb.s:623    .rodata.str1.8:0000000000000000 .LC0
     /tmp/ccT1hiNb.s:497    .text:000000000000031c .L0 
     /tmp/ccT1hiNb.s:454    .text:00000000000002e8 .L17
     /tmp/ccT1hiNb.s:425    .text:00000000000002b4 .L18
     /tmp/ccT1hiNb.s:537    .text:0000000000000370 .L21
     /tmp/ccT1hiNb.s:500    .text:000000000000032c .L22
     /tmp/ccT1hiNb.s:563    .text:00000000000003a8 .L23
     /tmp/ccT1hiNb.s:574    .text:00000000000003bc .L24
     /tmp/ccT1hiNb.s:585    .text:00000000000003d0 .L25
     /tmp/ccT1hiNb.s:596    .text:00000000000003e4 .L20
     /tmp/ccT1hiNb.s:45     .text:000000000000003c .LEHB0
     /tmp/ccT1hiNb.s:10     .text:0000000000000000 .LFB36
     /tmp/ccT1hiNb.s:55     .text:0000000000000054 .LEHE0
     /tmp/ccT1hiNb.s:58     .text:000000000000005c .LEHB1
     /tmp/ccT1hiNb.s:61     .text:0000000000000064 .LEHE1
     /tmp/ccT1hiNb.s:127    .text:00000000000000e4 .L6
     /tmp/ccT1hiNb.s:67     .text:000000000000006c .LEHB2
     /tmp/ccT1hiNb.s:70     .text:0000000000000074 .LEHE2
GAS LISTING /tmp/ccT1hiNb.s 			page 19


     /tmp/ccT1hiNb.s:73     .text:000000000000007c .LEHB3
     /tmp/ccT1hiNb.s:76     .text:0000000000000084 .LEHE3
     /tmp/ccT1hiNb.s:140    .text:0000000000000100 .L7
     /tmp/ccT1hiNb.s:82     .text:000000000000008c .LEHB4
     /tmp/ccT1hiNb.s:85     .text:0000000000000094 .LEHE4
     /tmp/ccT1hiNb.s:88     .text:000000000000009c .LEHB5
     /tmp/ccT1hiNb.s:91     .text:00000000000000a4 .LEHE5
     /tmp/ccT1hiNb.s:150    .text:000000000000011c .L8
     /tmp/ccT1hiNb.s:97     .text:00000000000000ac .LEHB6
     /tmp/ccT1hiNb.s:100    .text:00000000000000b4 .LEHE6
     /tmp/ccT1hiNb.s:103    .text:00000000000000bc .LEHB7
     /tmp/ccT1hiNb.s:106    .text:00000000000000c4 .LEHE7
     /tmp/ccT1hiNb.s:160    .text:0000000000000138 .L9
     /tmp/ccT1hiNb.s:137    .text:00000000000000f8 .LEHB8
     /tmp/ccT1hiNb.s:170    .text:0000000000000154 .LEHE8
     /tmp/ccT1hiNb.s:1453   .debug_abbrev:0000000000000000 .Ldebug_abbrev0
     /tmp/ccT1hiNb.s:2394   .debug_str:0000000000000187 .LASF51
     /tmp/ccT1hiNb.s:2402   .debug_str:0000000000000276 .LASF52
     /tmp/ccT1hiNb.s:2434   .debug_str:000000000000033a .LASF53
     /tmp/ccT1hiNb.s:5      .text:0000000000000000 .Ltext0
     /tmp/ccT1hiNb.s:626    .text:00000000000003f8 .Letext0
     /tmp/ccT1hiNb.s:2338   .debug_line:0000000000000000 .Ldebug_line0
     /tmp/ccT1hiNb.s:2386   .debug_str:0000000000000151 .LASF0
     /tmp/ccT1hiNb.s:2398   .debug_str:000000000000025e .LASF1
     /tmp/ccT1hiNb.s:2430   .debug_str:0000000000000325 .LASF2
     /tmp/ccT1hiNb.s:2432   .debug_str:0000000000000333 .LASF4
     /tmp/ccT1hiNb.s:2390   .debug_str:0000000000000163 .LASF3
     /tmp/ccT1hiNb.s:2346   .debug_str:0000000000000024 .LASF5
     /tmp/ccT1hiNb.s:2418   .debug_str:00000000000002c9 .LASF6
     /tmp/ccT1hiNb.s:2396   .debug_str:000000000000024b .LASF7
     /tmp/ccT1hiNb.s:2378   .debug_str:000000000000010d .LASF8
     /tmp/ccT1hiNb.s:2382   .debug_str:0000000000000135 .LASF9
     /tmp/ccT1hiNb.s:2354   .debug_str:0000000000000057 .LASF10
     /tmp/ccT1hiNb.s:2372   .debug_str:00000000000000e5 .LASF11
     /tmp/ccT1hiNb.s:2360   .debug_str:000000000000008e .LASF12
     /tmp/ccT1hiNb.s:2352   .debug_str:0000000000000047 .LASF13
     /tmp/ccT1hiNb.s:2444   .debug_str:0000000000000392 .LASF14
     /tmp/ccT1hiNb.s:2368   .debug_str:00000000000000c9 .LASF15
     /tmp/ccT1hiNb.s:2436   .debug_str:0000000000000351 .LASF16
     /tmp/ccT1hiNb.s:2400   .debug_str:0000000000000271 .LASF17
     /tmp/ccT1hiNb.s:2404   .debug_str:000000000000028e .LASF19
     /tmp/ccT1hiNb.s:2388   .debug_str:000000000000015e .LASF54
     /tmp/ccT1hiNb.s:2362   .debug_str:000000000000009e .LASF55
     /tmp/ccT1hiNb.s:2406   .debug_str:0000000000000296 .LASF56
     /tmp/ccT1hiNb.s:2366   .debug_str:00000000000000b6 .LASF57
     /tmp/ccT1hiNb.s:2450   .debug_str:00000000000003ae .LASF18
     /tmp/ccT1hiNb.s:2454   .debug_str:00000000000003ba .LASF20
     /tmp/ccT1hiNb.s:2452   .debug_str:00000000000003b3 .LASF21
     /tmp/ccT1hiNb.s:2438   .debug_str:0000000000000367 .LASF22
     /tmp/ccT1hiNb.s:2414   .debug_str:00000000000002bd .LASF23
     /tmp/ccT1hiNb.s:2456   .debug_str:00000000000003c4 .LASF24
     /tmp/ccT1hiNb.s:2408   .debug_str:000000000000029b .LASF25
     /tmp/ccT1hiNb.s:2340   .debug_str:0000000000000000 .LASF26
     /tmp/ccT1hiNb.s:2412   .debug_str:00000000000002b3 .LASF27
     /tmp/ccT1hiNb.s:2392   .debug_str:0000000000000175 .LASF29
     /tmp/ccT1hiNb.s:2420   .debug_str:00000000000002dc .LASF28
     /tmp/ccT1hiNb.s:2464   .debug_str:00000000000003f8 .LASF30
GAS LISTING /tmp/ccT1hiNb.s 			page 20


     /tmp/ccT1hiNb.s:2442   .debug_str:000000000000037e .LASF58
     /tmp/ccT1hiNb.s:2376   .debug_str:00000000000000f9 .LASF59
     /tmp/ccT1hiNb.s:2422   .debug_str:00000000000002e7 .LASF31
     /tmp/ccT1hiNb.s:2426   .debug_str:00000000000002fc .LASF32
     /tmp/ccT1hiNb.s:2458   .debug_str:00000000000003d3 .LASF60
     /tmp/ccT1hiNb.s:2356   .debug_str:0000000000000066 .LASF33
     /tmp/ccT1hiNb.s:2364   .debug_str:00000000000000b1 .LASF35
     /tmp/ccT1hiNb.s:2348   .debug_str:000000000000002b .LASF34
     /tmp/ccT1hiNb.s:2446   .debug_str:000000000000039e .LASF36
     /tmp/ccT1hiNb.s:385    .text:0000000000000270 .LFB43
     /tmp/ccT1hiNb.s:465    .text:00000000000002f8 .LFE43
     /tmp/ccT1hiNb.s:2374   .debug_str:00000000000000f4 .LASF37
     /tmp/ccT1hiNb.s:2133   .debug_loc:0000000000000000 .LLST6
     /tmp/ccT1hiNb.s:2155   .debug_loc:000000000000005f .LLST7
     /tmp/ccT1hiNb.s:408    .text:0000000000000298 .LVL43
     /tmp/ccT1hiNb.s:413    .text:00000000000002a4 .LVL44
     /tmp/ccT1hiNb.s:430    .text:00000000000002c0 .LVL46
     /tmp/ccT1hiNb.s:435    .text:00000000000002cc .LVL47
     /tmp/ccT1hiNb.s:304    .text:00000000000001e4 .LFB42
     /tmp/ccT1hiNb.s:379    .text:0000000000000270 .LFE42
     /tmp/ccT1hiNb.s:2162   .debug_loc:0000000000000082 .LLST4
     /tmp/ccT1hiNb.s:2180   .debug_loc:00000000000000ce .LLST5
     /tmp/ccT1hiNb.s:326    .text:000000000000020c .LVL34
     /tmp/ccT1hiNb.s:331    .text:0000000000000218 .LVL35
     /tmp/ccT1hiNb.s:356    .text:0000000000000248 .LVL37
     /tmp/ccT1hiNb.s:361    .text:0000000000000254 .LVL38
     /tmp/ccT1hiNb.s:225    .text:0000000000000154 .LFB41
     /tmp/ccT1hiNb.s:298    .text:00000000000001e4 .LFE41
     /tmp/ccT1hiNb.s:2191   .debug_loc:0000000000000104 .LLST2
     /tmp/ccT1hiNb.s:2209   .debug_loc:0000000000000150 .LLST3
     /tmp/ccT1hiNb.s:248    .text:0000000000000180 .LVL27
     /tmp/ccT1hiNb.s:253    .text:000000000000018c .LVL28
     /tmp/ccT1hiNb.s:278    .text:00000000000001c0 .LVL29
     /tmp/ccT1hiNb.s:283    .text:00000000000001cc .LVL30
     /tmp/ccT1hiNb.s:2344   .debug_str:000000000000001a .LASF38
     /tmp/ccT1hiNb.s:2428   .debug_str:0000000000000313 .LASF39
     /tmp/ccT1hiNb.s:471    .text:00000000000002f8 .LFB39
     /tmp/ccT1hiNb.s:610    .text:00000000000003f8 .LFE39
     /tmp/ccT1hiNb.s:2223   .debug_loc:0000000000000189 .LLST8
     /tmp/ccT1hiNb.s:508    .text:000000000000033c .LBB5
     /tmp/ccT1hiNb.s:534    .text:000000000000036c .LBE5
     /tmp/ccT1hiNb.s:2241   .debug_loc:00000000000001d5 .LLST9
     /tmp/ccT1hiNb.s:522    .text:0000000000000358 .LVL57
     /tmp/ccT1hiNb.s:494    .text:000000000000031c .LVL53
     /tmp/ccT1hiNb.s:499    .text:000000000000032c .LVL54
     /tmp/ccT1hiNb.s:505    .text:0000000000000338 .LVL55
     /tmp/ccT1hiNb.s:542    .text:000000000000037c .LVL58
     /tmp/ccT1hiNb.s:547    .text:0000000000000388 .LVL59
     /tmp/ccT1hiNb.s:552    .text:0000000000000394 .LVL60
     /tmp/ccT1hiNb.s:2350   .debug_str:0000000000000042 .LASF61
     /tmp/ccT1hiNb.s:2440   .debug_str:000000000000036c .LASF40
     /tmp/ccT1hiNb.s:173    .text:0000000000000154 .LFE36
     /tmp/ccT1hiNb.s:2249   .debug_loc:00000000000001f9 .LLST0
     /tmp/ccT1hiNb.s:2311   .debug_loc:00000000000002e9 .LLST1
     /tmp/ccT1hiNb.s:47     .text:0000000000000044 .LVL2
     /tmp/ccT1hiNb.s:54     .text:0000000000000054 .LVL3
     /tmp/ccT1hiNb.s:60     .text:0000000000000064 .LVL4
GAS LISTING /tmp/ccT1hiNb.s 			page 21


     /tmp/ccT1hiNb.s:69     .text:0000000000000074 .LVL5
     /tmp/ccT1hiNb.s:75     .text:0000000000000084 .LVL6
     /tmp/ccT1hiNb.s:84     .text:0000000000000094 .LVL7
     /tmp/ccT1hiNb.s:90     .text:00000000000000a4 .LVL8
     /tmp/ccT1hiNb.s:99     .text:00000000000000b4 .LVL9
     /tmp/ccT1hiNb.s:105    .text:00000000000000c4 .LVL10
     /tmp/ccT1hiNb.s:135    .text:00000000000000f4 .LVL14
     /tmp/ccT1hiNb.s:139    .text:0000000000000100 .LVL15
     /tmp/ccT1hiNb.s:146    .text:0000000000000110 .LVL17
     /tmp/ccT1hiNb.s:149    .text:000000000000011c .LVL18
     /tmp/ccT1hiNb.s:156    .text:000000000000012c .LVL20
     /tmp/ccT1hiNb.s:159    .text:0000000000000138 .LVL21
     /tmp/ccT1hiNb.s:166    .text:0000000000000148 .LVL23
     /tmp/ccT1hiNb.s:169    .text:0000000000000154 .LVL24
     /tmp/ccT1hiNb.s:2358   .debug_str:000000000000007b .LASF41
     /tmp/ccT1hiNb.s:2460   .debug_str:00000000000003dd .LASF42
     /tmp/ccT1hiNb.s:2424   .debug_str:00000000000002ee .LASF43
     /tmp/ccT1hiNb.s:2448   .debug_str:00000000000003a5 .LASF44
     /tmp/ccT1hiNb.s:2384   .debug_str:0000000000000143 .LASF45
     /tmp/ccT1hiNb.s:2410   .debug_str:00000000000002a9 .LASF46
     /tmp/ccT1hiNb.s:2370   .debug_str:00000000000000df .LASF47
     /tmp/ccT1hiNb.s:2466   .debug_str:000000000000040a .LASF48
     /tmp/ccT1hiNb.s:2416   .debug_str:00000000000002c2 .LASF49
     /tmp/ccT1hiNb.s:2342   .debug_str:000000000000000a .LASF50
     /tmp/ccT1hiNb.s:2462   .debug_str:00000000000003e9 .LASF62
     /tmp/ccT1hiNb.s:2380   .debug_str:000000000000011d .LASF63
     /tmp/ccT1hiNb.s:388    .text:0000000000000270 .LVL41
     /tmp/ccT1hiNb.s:406    .text:0000000000000290 .LVL42
     /tmp/ccT1hiNb.s:446    .text:00000000000002dc .LVL48
     /tmp/ccT1hiNb.s:453    .text:00000000000002e8 .LVL50
     /tmp/ccT1hiNb.s:424    .text:00000000000002b4 .LVL45
     /tmp/ccT1hiNb.s:449    .text:00000000000002e0 .LVL49
     /tmp/ccT1hiNb.s:307    .text:00000000000001e4 .LVL32
     /tmp/ccT1hiNb.s:324    .text:0000000000000204 .LVL33
     /tmp/ccT1hiNb.s:371    .text:0000000000000264 .LVL39
     /tmp/ccT1hiNb.s:342    .text:000000000000022c .LVL36
     /tmp/ccT1hiNb.s:374    .text:0000000000000268 .LVL40
     /tmp/ccT1hiNb.s:228    .text:0000000000000154 .LVL25
     /tmp/ccT1hiNb.s:246    .text:0000000000000178 .LVL26
     /tmp/ccT1hiNb.s:291    .text:00000000000001d8 .LVL31
     /tmp/ccT1hiNb.s:476    .text:00000000000002f8 .LVL51
     /tmp/ccT1hiNb.s:492    .text:0000000000000314 .LVL52
     /tmp/ccT1hiNb.s:605    .text:00000000000003f0 .LVL65
     /tmp/ccT1hiNb.s:517    .text:000000000000034c .LVL56
     /tmp/ccT1hiNb.s:16     .text:0000000000000000 .LVL0
     /tmp/ccT1hiNb.s:37     .text:000000000000002c .LVL1
     /tmp/ccT1hiNb.s:118    .text:00000000000000d4 .LVL11
     /tmp/ccT1hiNb.s:126    .text:00000000000000e4 .LVL12
     /tmp/ccT1hiNb.s:130    .text:00000000000000e8 .LVL13
     /tmp/ccT1hiNb.s:142    .text:0000000000000104 .LVL16
     /tmp/ccT1hiNb.s:152    .text:0000000000000120 .LVL19
     /tmp/ccT1hiNb.s:162    .text:000000000000013c .LVL22
     /tmp/ccT1hiNb.s:633    .debug_info:0000000000000000 .Ldebug_info0
     /tmp/ccT1hiNb.s:176    .gcc_except_table:0000000000000000 .LLSDA36
     /tmp/ccT1hiNb.s:612    .gcc_except_table:0000000000000079 .LLSDA39

UNDEFINED SYMBOLS
GAS LISTING /tmp/ccT1hiNb.s 			page 22


_Z9mem_allocm
_Znwm
_ZN9SemaphoreC1Ej
_ZdlPv
_Unwind_Resume
__gxx_personality_v0
_ZN9Semaphore4waitEv
_ZN9Semaphore6signalEv
_ZN7Console4putcEc
_Z11printStringPKc
_Z8mem_freePv
