GAS LISTING /tmp/ccy3jDNt.s 			page 1


   1              		.file	"ConsumerProducer_CPP_Sync_API_test.cpp"
   2              		.option nopic
   3              		.option norelax
   4              		.text
   5              	.Ltext0:
   6              		.section	.text._ZN12ConsumerSyncD2Ev,"axG",@progbits,_ZN12ConsumerSyncD5Ev,comdat
   7              		.align	2
   8              		.weak	_ZN12ConsumerSyncD2Ev
  10              	_ZN12ConsumerSyncD2Ev:
  11              	.LFB55:
  12              		.file 1 "test/ConsumerProducer_CPP_Sync_API_test.cpp"
   1:test/ConsumerProducer_CPP_Sync_API_test.cpp **** #include "../h/syscall_cpp.hpp"
   2:test/ConsumerProducer_CPP_Sync_API_test.cpp **** 
   3:test/ConsumerProducer_CPP_Sync_API_test.cpp **** #include "buffer_CPP_API.hpp"
   4:test/ConsumerProducer_CPP_Sync_API_test.cpp **** 
   5:test/ConsumerProducer_CPP_Sync_API_test.cpp **** static Semaphore* waitForAll;
   6:test/ConsumerProducer_CPP_Sync_API_test.cpp **** 
   7:test/ConsumerProducer_CPP_Sync_API_test.cpp **** struct thread_data {
   8:test/ConsumerProducer_CPP_Sync_API_test.cpp ****     int id;
   9:test/ConsumerProducer_CPP_Sync_API_test.cpp ****     BufferCPP *buffer;
  10:test/ConsumerProducer_CPP_Sync_API_test.cpp ****     Semaphore* wait;
  11:test/ConsumerProducer_CPP_Sync_API_test.cpp **** };
  12:test/ConsumerProducer_CPP_Sync_API_test.cpp **** 
  13:test/ConsumerProducer_CPP_Sync_API_test.cpp **** static volatile int threadEnd = 0;
  14:test/ConsumerProducer_CPP_Sync_API_test.cpp **** 
  15:test/ConsumerProducer_CPP_Sync_API_test.cpp **** class ProducerKeyboard:public Thread {
  16:test/ConsumerProducer_CPP_Sync_API_test.cpp ****     thread_data* td;
  17:test/ConsumerProducer_CPP_Sync_API_test.cpp ****     void producerKeyboard(void *arg);
  18:test/ConsumerProducer_CPP_Sync_API_test.cpp **** public:
  19:test/ConsumerProducer_CPP_Sync_API_test.cpp ****     ProducerKeyboard(thread_data* _td):Thread(), td(_td) {}
  20:test/ConsumerProducer_CPP_Sync_API_test.cpp **** 
  21:test/ConsumerProducer_CPP_Sync_API_test.cpp ****     void run() override {
  22:test/ConsumerProducer_CPP_Sync_API_test.cpp ****         producerKeyboard(td);
  23:test/ConsumerProducer_CPP_Sync_API_test.cpp ****     }
  24:test/ConsumerProducer_CPP_Sync_API_test.cpp **** };
  25:test/ConsumerProducer_CPP_Sync_API_test.cpp **** 
  26:test/ConsumerProducer_CPP_Sync_API_test.cpp **** void ProducerKeyboard::producerKeyboard(void *arg) {
  27:test/ConsumerProducer_CPP_Sync_API_test.cpp ****     struct thread_data *data = (struct thread_data *) arg;
  28:test/ConsumerProducer_CPP_Sync_API_test.cpp **** 
  29:test/ConsumerProducer_CPP_Sync_API_test.cpp ****     int key;
  30:test/ConsumerProducer_CPP_Sync_API_test.cpp ****     int i = 0;
  31:test/ConsumerProducer_CPP_Sync_API_test.cpp ****     while ((key = getc()) != 0x1b) {
  32:test/ConsumerProducer_CPP_Sync_API_test.cpp ****         data->buffer->put(key);
  33:test/ConsumerProducer_CPP_Sync_API_test.cpp ****         i++;
  34:test/ConsumerProducer_CPP_Sync_API_test.cpp **** 
  35:test/ConsumerProducer_CPP_Sync_API_test.cpp ****         if (i % (10 * data->id) == 0) {
  36:test/ConsumerProducer_CPP_Sync_API_test.cpp ****             Thread::dispatch();
  37:test/ConsumerProducer_CPP_Sync_API_test.cpp ****         }
  38:test/ConsumerProducer_CPP_Sync_API_test.cpp ****     }
  39:test/ConsumerProducer_CPP_Sync_API_test.cpp **** 
  40:test/ConsumerProducer_CPP_Sync_API_test.cpp ****     threadEnd = 1;
  41:test/ConsumerProducer_CPP_Sync_API_test.cpp ****     td->buffer->put('!');
  42:test/ConsumerProducer_CPP_Sync_API_test.cpp **** 
  43:test/ConsumerProducer_CPP_Sync_API_test.cpp ****     data->wait->signal();
  44:test/ConsumerProducer_CPP_Sync_API_test.cpp **** }
  45:test/ConsumerProducer_CPP_Sync_API_test.cpp **** 
  46:test/ConsumerProducer_CPP_Sync_API_test.cpp **** class ProducerSync:public Thread {
GAS LISTING /tmp/ccy3jDNt.s 			page 2


  47:test/ConsumerProducer_CPP_Sync_API_test.cpp ****     thread_data* td;
  48:test/ConsumerProducer_CPP_Sync_API_test.cpp ****     void producer(void *arg);
  49:test/ConsumerProducer_CPP_Sync_API_test.cpp **** public:
  50:test/ConsumerProducer_CPP_Sync_API_test.cpp ****     ProducerSync(thread_data* _td):Thread(), td(_td) {}
  51:test/ConsumerProducer_CPP_Sync_API_test.cpp **** 
  52:test/ConsumerProducer_CPP_Sync_API_test.cpp ****     void run() override {
  53:test/ConsumerProducer_CPP_Sync_API_test.cpp ****         producer(td);
  54:test/ConsumerProducer_CPP_Sync_API_test.cpp ****     }
  55:test/ConsumerProducer_CPP_Sync_API_test.cpp **** };
  56:test/ConsumerProducer_CPP_Sync_API_test.cpp **** 
  57:test/ConsumerProducer_CPP_Sync_API_test.cpp **** void ProducerSync::producer(void *arg) {
  58:test/ConsumerProducer_CPP_Sync_API_test.cpp ****     struct thread_data *data = (struct thread_data *) arg;
  59:test/ConsumerProducer_CPP_Sync_API_test.cpp **** 
  60:test/ConsumerProducer_CPP_Sync_API_test.cpp ****     int i = 0;
  61:test/ConsumerProducer_CPP_Sync_API_test.cpp ****     while (!threadEnd) {
  62:test/ConsumerProducer_CPP_Sync_API_test.cpp ****         data->buffer->put(data->id + '0');
  63:test/ConsumerProducer_CPP_Sync_API_test.cpp ****         i++;
  64:test/ConsumerProducer_CPP_Sync_API_test.cpp **** 
  65:test/ConsumerProducer_CPP_Sync_API_test.cpp ****         if (i % (10 * data->id) == 0) {
  66:test/ConsumerProducer_CPP_Sync_API_test.cpp ****             Thread::dispatch();
  67:test/ConsumerProducer_CPP_Sync_API_test.cpp ****         }
  68:test/ConsumerProducer_CPP_Sync_API_test.cpp ****     }
  69:test/ConsumerProducer_CPP_Sync_API_test.cpp **** 
  70:test/ConsumerProducer_CPP_Sync_API_test.cpp ****     data->wait->signal();
  71:test/ConsumerProducer_CPP_Sync_API_test.cpp **** }
  72:test/ConsumerProducer_CPP_Sync_API_test.cpp **** 
  73:test/ConsumerProducer_CPP_Sync_API_test.cpp **** class ConsumerSync:public Thread {
  13              		.loc 1 73 7
  14              		.cfi_startproc
  15              	.LVL0:
  16 0000 130101FF 		addi	sp,sp,-16
  17              		.cfi_def_cfa_offset 16
  18 0004 23341100 		sd	ra,8(sp)
  19 0008 23308100 		sd	s0,0(sp)
  20              		.cfi_offset 1, -8
  21              		.cfi_offset 8, -16
  22 000c 13040101 		addi	s0,sp,16
  23              		.cfi_def_cfa 8, 0
  24              	.LBB23:
  25              		.loc 1 73 7 is_stmt 0
  26 0010 97070000 		lla	a5,_ZTV12ConsumerSync+16
  26      93870700 
  27 0018 2330F500 		sd	a5,0(a0)
  28 001c 97000000 		call	_ZN6ThreadD2Ev
  28      E7800000 
  29              	.LVL1:
  30              	.LBE23:
  31 0024 83308100 		ld	ra,8(sp)
  32              		.cfi_restore 1
  33 0028 03340100 		ld	s0,0(sp)
  34              		.cfi_restore 8
  35 002c 13010101 		addi	sp,sp,16
  36              		.cfi_def_cfa_register 2
  37 0030 67800000 		jr	ra
  38              		.cfi_endproc
  39              	.LFE55:
  41              		.weak	_ZN12ConsumerSyncD1Ev
GAS LISTING /tmp/ccy3jDNt.s 			page 3


  42              		.set	_ZN12ConsumerSyncD1Ev,_ZN12ConsumerSyncD2Ev
  43              		.section	.text._ZN12ConsumerSyncD0Ev,"axG",@progbits,_ZN12ConsumerSyncD5Ev,comdat
  44              		.align	2
  45              		.weak	_ZN12ConsumerSyncD0Ev
  47              	_ZN12ConsumerSyncD0Ev:
  48              	.LFB57:
  49              		.loc 1 73 7 is_stmt 1
  50              		.cfi_startproc
  51              	.LVL2:
  52 0000 130101FE 		addi	sp,sp,-32
  53              		.cfi_def_cfa_offset 32
  54 0004 233C1100 		sd	ra,24(sp)
  55 0008 23388100 		sd	s0,16(sp)
  56 000c 23349100 		sd	s1,8(sp)
  57              		.cfi_offset 1, -8
  58              		.cfi_offset 8, -16
  59              		.cfi_offset 9, -24
  60 0010 13040102 		addi	s0,sp,32
  61              		.cfi_def_cfa 8, 0
  62 0014 93040500 		mv	s1,a0
  63              	.LVL3:
  64              	.LBB24:
  65              	.LBB25:
  66              		.loc 1 73 7 is_stmt 0
  67 0018 97070000 		lla	a5,_ZTV12ConsumerSync+16
  67      93870700 
  68 0020 2330F500 		sd	a5,0(a0)
  69 0024 97000000 		call	_ZN6ThreadD2Ev
  69      E7800000 
  70              	.LVL4:
  71              	.LBE25:
  72              	.LBE24:
  73 002c 13850400 		mv	a0,s1
  74 0030 97000000 		call	_ZdlPv
  74      E7800000 
  75              	.LVL5:
  76 0038 83308101 		ld	ra,24(sp)
  77              		.cfi_restore 1
  78 003c 03340101 		ld	s0,16(sp)
  79              		.cfi_restore 8
  80 0040 83348100 		ld	s1,8(sp)
  81              		.cfi_restore 9
  82              	.LVL6:
  83 0044 13010102 		addi	sp,sp,32
  84              		.cfi_def_cfa_register 2
  85 0048 67800000 		jr	ra
  86              		.cfi_endproc
  87              	.LFE57:
  89              		.section	.text._ZN12ProducerSyncD2Ev,"axG",@progbits,_ZN12ProducerSyncD5Ev,comdat
  90              		.align	2
  91              		.weak	_ZN12ProducerSyncD2Ev
  93              	_ZN12ProducerSyncD2Ev:
  94              	.LFB59:
  46:test/ConsumerProducer_CPP_Sync_API_test.cpp ****     thread_data* td;
  95              		.loc 1 46 7 is_stmt 1
  96              		.cfi_startproc
  97              	.LVL7:
GAS LISTING /tmp/ccy3jDNt.s 			page 4


  98 0000 130101FF 		addi	sp,sp,-16
  99              		.cfi_def_cfa_offset 16
 100 0004 23341100 		sd	ra,8(sp)
 101 0008 23308100 		sd	s0,0(sp)
 102              		.cfi_offset 1, -8
 103              		.cfi_offset 8, -16
 104 000c 13040101 		addi	s0,sp,16
 105              		.cfi_def_cfa 8, 0
 106              	.LBB26:
  46:test/ConsumerProducer_CPP_Sync_API_test.cpp ****     thread_data* td;
 107              		.loc 1 46 7 is_stmt 0
 108 0010 97070000 		lla	a5,_ZTV12ProducerSync+16
 108      93870700 
 109 0018 2330F500 		sd	a5,0(a0)
 110 001c 97000000 		call	_ZN6ThreadD2Ev
 110      E7800000 
 111              	.LVL8:
 112              	.LBE26:
 113 0024 83308100 		ld	ra,8(sp)
 114              		.cfi_restore 1
 115 0028 03340100 		ld	s0,0(sp)
 116              		.cfi_restore 8
 117 002c 13010101 		addi	sp,sp,16
 118              		.cfi_def_cfa_register 2
 119 0030 67800000 		jr	ra
 120              		.cfi_endproc
 121              	.LFE59:
 123              		.weak	_ZN12ProducerSyncD1Ev
 124              		.set	_ZN12ProducerSyncD1Ev,_ZN12ProducerSyncD2Ev
 125              		.section	.text._ZN12ProducerSyncD0Ev,"axG",@progbits,_ZN12ProducerSyncD5Ev,comdat
 126              		.align	2
 127              		.weak	_ZN12ProducerSyncD0Ev
 129              	_ZN12ProducerSyncD0Ev:
 130              	.LFB61:
  46:test/ConsumerProducer_CPP_Sync_API_test.cpp ****     thread_data* td;
 131              		.loc 1 46 7 is_stmt 1
 132              		.cfi_startproc
 133              	.LVL9:
 134 0000 130101FE 		addi	sp,sp,-32
 135              		.cfi_def_cfa_offset 32
 136 0004 233C1100 		sd	ra,24(sp)
 137 0008 23388100 		sd	s0,16(sp)
 138 000c 23349100 		sd	s1,8(sp)
 139              		.cfi_offset 1, -8
 140              		.cfi_offset 8, -16
 141              		.cfi_offset 9, -24
 142 0010 13040102 		addi	s0,sp,32
 143              		.cfi_def_cfa 8, 0
 144 0014 93040500 		mv	s1,a0
 145              	.LVL10:
 146              	.LBB27:
 147              	.LBB28:
  46:test/ConsumerProducer_CPP_Sync_API_test.cpp ****     thread_data* td;
 148              		.loc 1 46 7 is_stmt 0
 149 0018 97070000 		lla	a5,_ZTV12ProducerSync+16
 149      93870700 
 150 0020 2330F500 		sd	a5,0(a0)
GAS LISTING /tmp/ccy3jDNt.s 			page 5


 151 0024 97000000 		call	_ZN6ThreadD2Ev
 151      E7800000 
 152              	.LVL11:
 153              	.LBE28:
 154              	.LBE27:
 155 002c 13850400 		mv	a0,s1
 156 0030 97000000 		call	_ZdlPv
 156      E7800000 
 157              	.LVL12:
 158 0038 83308101 		ld	ra,24(sp)
 159              		.cfi_restore 1
 160 003c 03340101 		ld	s0,16(sp)
 161              		.cfi_restore 8
 162 0040 83348100 		ld	s1,8(sp)
 163              		.cfi_restore 9
 164              	.LVL13:
 165 0044 13010102 		addi	sp,sp,32
 166              		.cfi_def_cfa_register 2
 167 0048 67800000 		jr	ra
 168              		.cfi_endproc
 169              	.LFE61:
 171              		.section	.text._ZN16ProducerKeyboardD2Ev,"axG",@progbits,_ZN16ProducerKeyboardD5Ev,comdat
 172              		.align	2
 173              		.weak	_ZN16ProducerKeyboardD2Ev
 175              	_ZN16ProducerKeyboardD2Ev:
 176              	.LFB63:
  15:test/ConsumerProducer_CPP_Sync_API_test.cpp ****     thread_data* td;
 177              		.loc 1 15 7 is_stmt 1
 178              		.cfi_startproc
 179              	.LVL14:
 180 0000 130101FF 		addi	sp,sp,-16
 181              		.cfi_def_cfa_offset 16
 182 0004 23341100 		sd	ra,8(sp)
 183 0008 23308100 		sd	s0,0(sp)
 184              		.cfi_offset 1, -8
 185              		.cfi_offset 8, -16
 186 000c 13040101 		addi	s0,sp,16
 187              		.cfi_def_cfa 8, 0
 188              	.LBB29:
  15:test/ConsumerProducer_CPP_Sync_API_test.cpp ****     thread_data* td;
 189              		.loc 1 15 7 is_stmt 0
 190 0010 97070000 		lla	a5,_ZTV16ProducerKeyboard+16
 190      93870700 
 191 0018 2330F500 		sd	a5,0(a0)
 192 001c 97000000 		call	_ZN6ThreadD2Ev
 192      E7800000 
 193              	.LVL15:
 194              	.LBE29:
 195 0024 83308100 		ld	ra,8(sp)
 196              		.cfi_restore 1
 197 0028 03340100 		ld	s0,0(sp)
 198              		.cfi_restore 8
 199 002c 13010101 		addi	sp,sp,16
 200              		.cfi_def_cfa_register 2
 201 0030 67800000 		jr	ra
 202              		.cfi_endproc
 203              	.LFE63:
GAS LISTING /tmp/ccy3jDNt.s 			page 6


 205              		.weak	_ZN16ProducerKeyboardD1Ev
 206              		.set	_ZN16ProducerKeyboardD1Ev,_ZN16ProducerKeyboardD2Ev
 207              		.section	.text._ZN16ProducerKeyboardD0Ev,"axG",@progbits,_ZN16ProducerKeyboardD5Ev,comdat
 208              		.align	2
 209              		.weak	_ZN16ProducerKeyboardD0Ev
 211              	_ZN16ProducerKeyboardD0Ev:
 212              	.LFB65:
  15:test/ConsumerProducer_CPP_Sync_API_test.cpp ****     thread_data* td;
 213              		.loc 1 15 7 is_stmt 1
 214              		.cfi_startproc
 215              	.LVL16:
 216 0000 130101FE 		addi	sp,sp,-32
 217              		.cfi_def_cfa_offset 32
 218 0004 233C1100 		sd	ra,24(sp)
 219 0008 23388100 		sd	s0,16(sp)
 220 000c 23349100 		sd	s1,8(sp)
 221              		.cfi_offset 1, -8
 222              		.cfi_offset 8, -16
 223              		.cfi_offset 9, -24
 224 0010 13040102 		addi	s0,sp,32
 225              		.cfi_def_cfa 8, 0
 226 0014 93040500 		mv	s1,a0
 227              	.LVL17:
 228              	.LBB30:
 229              	.LBB31:
  15:test/ConsumerProducer_CPP_Sync_API_test.cpp ****     thread_data* td;
 230              		.loc 1 15 7 is_stmt 0
 231 0018 97070000 		lla	a5,_ZTV16ProducerKeyboard+16
 231      93870700 
 232 0020 2330F500 		sd	a5,0(a0)
 233 0024 97000000 		call	_ZN6ThreadD2Ev
 233      E7800000 
 234              	.LVL18:
 235              	.LBE31:
 236              	.LBE30:
 237 002c 13850400 		mv	a0,s1
 238 0030 97000000 		call	_ZdlPv
 238      E7800000 
 239              	.LVL19:
 240 0038 83308101 		ld	ra,24(sp)
 241              		.cfi_restore 1
 242 003c 03340101 		ld	s0,16(sp)
 243              		.cfi_restore 8
 244 0040 83348100 		ld	s1,8(sp)
 245              		.cfi_restore 9
 246              	.LVL20:
 247 0044 13010102 		addi	sp,sp,32
 248              		.cfi_def_cfa_register 2
 249 0048 67800000 		jr	ra
 250              		.cfi_endproc
 251              	.LFE65:
 253              		.text
 254              		.align	2
 255              		.globl	_ZN16ProducerKeyboard16producerKeyboardEPv
 257              	_ZN16ProducerKeyboard16producerKeyboardEPv:
 258              	.LFB39:
  26:test/ConsumerProducer_CPP_Sync_API_test.cpp ****     struct thread_data *data = (struct thread_data *) arg;
GAS LISTING /tmp/ccy3jDNt.s 			page 7


 259              		.loc 1 26 52 is_stmt 1
 260              		.cfi_startproc
 261              	.LVL21:
 262 0000 130101FD 		addi	sp,sp,-48
 263              		.cfi_def_cfa_offset 48
 264 0004 23341102 		sd	ra,40(sp)
 265 0008 23308102 		sd	s0,32(sp)
 266 000c 233C9100 		sd	s1,24(sp)
 267 0010 23382101 		sd	s2,16(sp)
 268 0014 23343101 		sd	s3,8(sp)
 269              		.cfi_offset 1, -8
 270              		.cfi_offset 8, -16
 271              		.cfi_offset 9, -24
 272              		.cfi_offset 18, -32
 273              		.cfi_offset 19, -40
 274 0018 13040103 		addi	s0,sp,48
 275              		.cfi_def_cfa 8, 0
 276 001c 93090500 		mv	s3,a0
 277 0020 93840500 		mv	s1,a1
  27:test/ConsumerProducer_CPP_Sync_API_test.cpp **** 
 278              		.loc 1 27 5
 279              	.LVL22:
  29:test/ConsumerProducer_CPP_Sync_API_test.cpp ****     int i = 0;
 280              		.loc 1 29 5
  30:test/ConsumerProducer_CPP_Sync_API_test.cpp ****     while ((key = getc()) != 0x1b) {
 281              		.loc 1 30 5
  30:test/ConsumerProducer_CPP_Sync_API_test.cpp ****     while ((key = getc()) != 0x1b) {
 282              		.loc 1 30 9 is_stmt 0
 283 0024 13090000 		li	s2,0
 284 0028 6F00C000 		j	.L14
 285              	.LVL23:
 286              	.L18:
  36:test/ConsumerProducer_CPP_Sync_API_test.cpp ****         }
 287              		.loc 1 36 13 is_stmt 1
  36:test/ConsumerProducer_CPP_Sync_API_test.cpp ****         }
 288              		.loc 1 36 29 is_stmt 0
 289 002c 97000000 		call	_ZN6Thread8dispatchEv
 289      E7800000 
 290              	.LVL24:
 291              	.L14:
  31:test/ConsumerProducer_CPP_Sync_API_test.cpp ****         data->buffer->put(key);
 292              		.loc 1 31 5 is_stmt 1
  31:test/ConsumerProducer_CPP_Sync_API_test.cpp ****         data->buffer->put(key);
 293              		.loc 1 31 23 is_stmt 0
 294 0034 97000000 		call	_Z4getcv
 294      E7800000 
 295              	.LVL25:
  31:test/ConsumerProducer_CPP_Sync_API_test.cpp ****         data->buffer->put(key);
 296              		.loc 1 31 17
 297 003c 9B050500 		sext.w	a1,a0
 298              	.LVL26:
  31:test/ConsumerProducer_CPP_Sync_API_test.cpp ****         data->buffer->put(key);
 299              		.loc 1 31 27
 300 0040 9307B001 		li	a5,27
 301 0044 638AF502 		beq	a1,a5,.L15
  32:test/ConsumerProducer_CPP_Sync_API_test.cpp ****         i++;
 302              		.loc 1 32 9 is_stmt 1
GAS LISTING /tmp/ccy3jDNt.s 			page 8


  32:test/ConsumerProducer_CPP_Sync_API_test.cpp ****         i++;
 303              		.loc 1 32 26 is_stmt 0
 304 0048 03B58400 		ld	a0,8(s1)
 305 004c 97000000 		call	_ZN9BufferCPP3putEi
 305      E7800000 
 306              	.LVL27:
  33:test/ConsumerProducer_CPP_Sync_API_test.cpp **** 
 307              		.loc 1 33 9 is_stmt 1
  33:test/ConsumerProducer_CPP_Sync_API_test.cpp **** 
 308              		.loc 1 33 10 is_stmt 0
 309 0054 9B071900 		addiw	a5,s2,1
 310 0058 1B890700 		sext.w	s2,a5
 311              	.LVL28:
  35:test/ConsumerProducer_CPP_Sync_API_test.cpp ****             Thread::dispatch();
 312              		.loc 1 35 9 is_stmt 1
  35:test/ConsumerProducer_CPP_Sync_API_test.cpp ****             Thread::dispatch();
 313              		.loc 1 35 29 is_stmt 0
 314 005c 83A60400 		lw	a3,0(s1)
  35:test/ConsumerProducer_CPP_Sync_API_test.cpp ****             Thread::dispatch();
 315              		.loc 1 35 21
 316 0060 1B972600 		slliw	a4,a3,2
 317 0064 3B07D700 		addw	a4,a4,a3
 318 0068 9B161700 		slliw	a3,a4,1
  35:test/ConsumerProducer_CPP_Sync_API_test.cpp ****             Thread::dispatch();
 319              		.loc 1 35 15
 320 006c BBE7D702 		remw	a5,a5,a3
 321              	.LVL29:
  35:test/ConsumerProducer_CPP_Sync_API_test.cpp ****             Thread::dispatch();
 322              		.loc 1 35 9
 323 0070 E39207FC 		bnez	a5,.L14
 324 0074 6FF09FFB 		j	.L18
 325              	.LVL30:
 326              	.L15:
  40:test/ConsumerProducer_CPP_Sync_API_test.cpp ****     td->buffer->put('!');
 327              		.loc 1 40 5 is_stmt 1
  40:test/ConsumerProducer_CPP_Sync_API_test.cpp ****     td->buffer->put('!');
 328              		.loc 1 40 15 is_stmt 0
 329 0078 93071000 		li	a5,1
 330 007c 17070000 		sw	a5,_ZL9threadEnd,a4
 330      2320F700 
  41:test/ConsumerProducer_CPP_Sync_API_test.cpp **** 
 331              		.loc 1 41 5 is_stmt 1
 332 0084 83B70902 		ld	a5,32(s3)
  41:test/ConsumerProducer_CPP_Sync_API_test.cpp **** 
 333              		.loc 1 41 20 is_stmt 0
 334 0088 93051002 		li	a1,33
 335              	.LVL31:
 336 008c 03B58700 		ld	a0,8(a5)
 337              	.LVL32:
 338 0090 97000000 		call	_ZN9BufferCPP3putEi
 338      E7800000 
 339              	.LVL33:
  43:test/ConsumerProducer_CPP_Sync_API_test.cpp **** }
 340              		.loc 1 43 5 is_stmt 1
  43:test/ConsumerProducer_CPP_Sync_API_test.cpp **** }
 341              		.loc 1 43 23 is_stmt 0
 342 0098 03B50401 		ld	a0,16(s1)
GAS LISTING /tmp/ccy3jDNt.s 			page 9


 343 009c 97000000 		call	_ZN9Semaphore6signalEv
 343      E7800000 
 344              	.LVL34:
  44:test/ConsumerProducer_CPP_Sync_API_test.cpp **** 
 345              		.loc 1 44 1
 346 00a4 83308102 		ld	ra,40(sp)
 347              		.cfi_restore 1
 348 00a8 03340102 		ld	s0,32(sp)
 349              		.cfi_restore 8
 350 00ac 83348101 		ld	s1,24(sp)
 351              		.cfi_restore 9
 352              	.LVL35:
 353 00b0 03390101 		ld	s2,16(sp)
 354              		.cfi_restore 18
 355              	.LVL36:
 356 00b4 83398100 		ld	s3,8(sp)
 357              		.cfi_restore 19
 358              	.LVL37:
 359 00b8 13010103 		addi	sp,sp,48
 360              		.cfi_def_cfa_register 2
 361 00bc 67800000 		jr	ra
 362              		.cfi_endproc
 363              	.LFE39:
 365              		.section	.text._ZN16ProducerKeyboard3runEv,"axG",@progbits,_ZN16ProducerKeyboard3runEv,comdat
 366              		.align	2
 367              		.weak	_ZN16ProducerKeyboard3runEv
 369              	_ZN16ProducerKeyboard3runEv:
 370              	.LFB38:
  21:test/ConsumerProducer_CPP_Sync_API_test.cpp ****         producerKeyboard(td);
 371              		.loc 1 21 10 is_stmt 1
 372              		.cfi_startproc
 373              	.LVL38:
 374 0000 130101FF 		addi	sp,sp,-16
 375              		.cfi_def_cfa_offset 16
 376 0004 23341100 		sd	ra,8(sp)
 377 0008 23308100 		sd	s0,0(sp)
 378              		.cfi_offset 1, -8
 379              		.cfi_offset 8, -16
 380 000c 13040101 		addi	s0,sp,16
 381              		.cfi_def_cfa 8, 0
  22:test/ConsumerProducer_CPP_Sync_API_test.cpp ****     }
 382              		.loc 1 22 9
  22:test/ConsumerProducer_CPP_Sync_API_test.cpp ****     }
 383              		.loc 1 22 25 is_stmt 0
 384 0010 83350502 		ld	a1,32(a0)
 385 0014 97000000 		call	_ZN16ProducerKeyboard16producerKeyboardEPv
 385      E7800000 
 386              	.LVL39:
  23:test/ConsumerProducer_CPP_Sync_API_test.cpp **** };
 387              		.loc 1 23 5
 388 001c 83308100 		ld	ra,8(sp)
 389              		.cfi_restore 1
 390 0020 03340100 		ld	s0,0(sp)
 391              		.cfi_restore 8
 392 0024 13010101 		addi	sp,sp,16
 393              		.cfi_def_cfa_register 2
 394 0028 67800000 		jr	ra
GAS LISTING /tmp/ccy3jDNt.s 			page 10


 395              		.cfi_endproc
 396              	.LFE38:
 398              		.text
 399              		.align	2
 400              		.globl	_ZN12ProducerSync8producerEPv
 402              	_ZN12ProducerSync8producerEPv:
 403              	.LFB44:
  57:test/ConsumerProducer_CPP_Sync_API_test.cpp ****     struct thread_data *data = (struct thread_data *) arg;
 404              		.loc 1 57 40 is_stmt 1
 405              		.cfi_startproc
 406              	.LVL40:
 407 00c0 130101FE 		addi	sp,sp,-32
 408              		.cfi_def_cfa_offset 32
 409 00c4 233C1100 		sd	ra,24(sp)
 410 00c8 23388100 		sd	s0,16(sp)
 411 00cc 23349100 		sd	s1,8(sp)
 412 00d0 23302101 		sd	s2,0(sp)
 413              		.cfi_offset 1, -8
 414              		.cfi_offset 8, -16
 415              		.cfi_offset 9, -24
 416              		.cfi_offset 18, -32
 417 00d4 13040102 		addi	s0,sp,32
 418              		.cfi_def_cfa 8, 0
 419 00d8 93840500 		mv	s1,a1
  58:test/ConsumerProducer_CPP_Sync_API_test.cpp **** 
 420              		.loc 1 58 5
 421              	.LVL41:
  60:test/ConsumerProducer_CPP_Sync_API_test.cpp ****     while (!threadEnd) {
 422              		.loc 1 60 5
  60:test/ConsumerProducer_CPP_Sync_API_test.cpp ****     while (!threadEnd) {
 423              		.loc 1 60 9 is_stmt 0
 424 00dc 13090000 		li	s2,0
 425 00e0 6F00C000 		j	.L22
 426              	.LVL42:
 427              	.L26:
  66:test/ConsumerProducer_CPP_Sync_API_test.cpp ****         }
 428              		.loc 1 66 13 is_stmt 1
  66:test/ConsumerProducer_CPP_Sync_API_test.cpp ****         }
 429              		.loc 1 66 29 is_stmt 0
 430 00e4 97000000 		call	_ZN6Thread8dispatchEv
 430      E7800000 
 431              	.LVL43:
 432              	.L22:
  61:test/ConsumerProducer_CPP_Sync_API_test.cpp ****         data->buffer->put(data->id + '0');
 433              		.loc 1 61 5 is_stmt 1
  61:test/ConsumerProducer_CPP_Sync_API_test.cpp ****         data->buffer->put(data->id + '0');
 434              		.loc 1 61 12 is_stmt 0
 435 00ec 97070000 		lla	a5,_ZL9threadEnd
 435      93870700 
 436 00f4 83A70700 		lw	a5,0(a5)
 437 00f8 9B870700 		sext.w	a5,a5
 438 00fc 639E0702 		bnez	a5,.L23
  62:test/ConsumerProducer_CPP_Sync_API_test.cpp ****         i++;
 439              		.loc 1 62 9 is_stmt 1
  62:test/ConsumerProducer_CPP_Sync_API_test.cpp ****         i++;
 440              		.loc 1 62 33 is_stmt 0
 441 0100 83A50400 		lw	a1,0(s1)
GAS LISTING /tmp/ccy3jDNt.s 			page 11


  62:test/ConsumerProducer_CPP_Sync_API_test.cpp ****         i++;
 442              		.loc 1 62 26
 443 0104 9B850503 		addiw	a1,a1,48
 444 0108 03B58400 		ld	a0,8(s1)
 445 010c 97000000 		call	_ZN9BufferCPP3putEi
 445      E7800000 
 446              	.LVL44:
  63:test/ConsumerProducer_CPP_Sync_API_test.cpp **** 
 447              		.loc 1 63 9 is_stmt 1
  63:test/ConsumerProducer_CPP_Sync_API_test.cpp **** 
 448              		.loc 1 63 10 is_stmt 0
 449 0114 9B071900 		addiw	a5,s2,1
 450 0118 1B890700 		sext.w	s2,a5
 451              	.LVL45:
  65:test/ConsumerProducer_CPP_Sync_API_test.cpp ****             Thread::dispatch();
 452              		.loc 1 65 9 is_stmt 1
  65:test/ConsumerProducer_CPP_Sync_API_test.cpp ****             Thread::dispatch();
 453              		.loc 1 65 29 is_stmt 0
 454 011c 83A60400 		lw	a3,0(s1)
  65:test/ConsumerProducer_CPP_Sync_API_test.cpp ****             Thread::dispatch();
 455              		.loc 1 65 21
 456 0120 1B972600 		slliw	a4,a3,2
 457 0124 3B07D700 		addw	a4,a4,a3
 458 0128 9B161700 		slliw	a3,a4,1
  65:test/ConsumerProducer_CPP_Sync_API_test.cpp ****             Thread::dispatch();
 459              		.loc 1 65 15
 460 012c BBE7D702 		remw	a5,a5,a3
 461              	.LVL46:
  65:test/ConsumerProducer_CPP_Sync_API_test.cpp ****             Thread::dispatch();
 462              		.loc 1 65 9
 463 0130 E39E07FA 		bnez	a5,.L22
 464 0134 6FF01FFB 		j	.L26
 465              	.L23:
  70:test/ConsumerProducer_CPP_Sync_API_test.cpp **** }
 466              		.loc 1 70 5 is_stmt 1
  70:test/ConsumerProducer_CPP_Sync_API_test.cpp **** }
 467              		.loc 1 70 23 is_stmt 0
 468 0138 03B50401 		ld	a0,16(s1)
 469 013c 97000000 		call	_ZN9Semaphore6signalEv
 469      E7800000 
 470              	.LVL47:
  71:test/ConsumerProducer_CPP_Sync_API_test.cpp **** 
 471              		.loc 1 71 1
 472 0144 83308101 		ld	ra,24(sp)
 473              		.cfi_restore 1
 474 0148 03340101 		ld	s0,16(sp)
 475              		.cfi_restore 8
 476 014c 83348100 		ld	s1,8(sp)
 477              		.cfi_restore 9
 478              	.LVL48:
 479 0150 03390100 		ld	s2,0(sp)
 480              		.cfi_restore 18
 481              	.LVL49:
 482 0154 13010102 		addi	sp,sp,32
 483              		.cfi_def_cfa_register 2
 484 0158 67800000 		jr	ra
 485              		.cfi_endproc
GAS LISTING /tmp/ccy3jDNt.s 			page 12


 486              	.LFE44:
 488              		.section	.text._ZN12ProducerSync3runEv,"axG",@progbits,_ZN12ProducerSync3runEv,comdat
 489              		.align	2
 490              		.weak	_ZN12ProducerSync3runEv
 492              	_ZN12ProducerSync3runEv:
 493              	.LFB43:
  52:test/ConsumerProducer_CPP_Sync_API_test.cpp ****         producer(td);
 494              		.loc 1 52 10 is_stmt 1
 495              		.cfi_startproc
 496              	.LVL50:
 497 0000 130101FF 		addi	sp,sp,-16
 498              		.cfi_def_cfa_offset 16
 499 0004 23341100 		sd	ra,8(sp)
 500 0008 23308100 		sd	s0,0(sp)
 501              		.cfi_offset 1, -8
 502              		.cfi_offset 8, -16
 503 000c 13040101 		addi	s0,sp,16
 504              		.cfi_def_cfa 8, 0
  53:test/ConsumerProducer_CPP_Sync_API_test.cpp ****     }
 505              		.loc 1 53 9
  53:test/ConsumerProducer_CPP_Sync_API_test.cpp ****     }
 506              		.loc 1 53 17 is_stmt 0
 507 0010 83350502 		ld	a1,32(a0)
 508 0014 97000000 		call	_ZN12ProducerSync8producerEPv
 508      E7800000 
 509              	.LVL51:
  54:test/ConsumerProducer_CPP_Sync_API_test.cpp **** };
 510              		.loc 1 54 5
 511 001c 83308100 		ld	ra,8(sp)
 512              		.cfi_restore 1
 513 0020 03340100 		ld	s0,0(sp)
 514              		.cfi_restore 8
 515 0024 13010101 		addi	sp,sp,16
 516              		.cfi_def_cfa_register 2
 517 0028 67800000 		jr	ra
 518              		.cfi_endproc
 519              	.LFE43:
 521              		.text
 522              		.align	2
 523              		.globl	_ZN12ConsumerSync8consumerEPv
 525              	_ZN12ConsumerSync8consumerEPv:
 526              	.LFB49:
  74:test/ConsumerProducer_CPP_Sync_API_test.cpp ****     thread_data* td;
  75:test/ConsumerProducer_CPP_Sync_API_test.cpp ****     void consumer(void *arg);
  76:test/ConsumerProducer_CPP_Sync_API_test.cpp **** public:
  77:test/ConsumerProducer_CPP_Sync_API_test.cpp ****     ConsumerSync(thread_data* _td):Thread(), td(_td) {}
  78:test/ConsumerProducer_CPP_Sync_API_test.cpp **** 
  79:test/ConsumerProducer_CPP_Sync_API_test.cpp ****     void run() override {
  80:test/ConsumerProducer_CPP_Sync_API_test.cpp ****         consumer(td);
  81:test/ConsumerProducer_CPP_Sync_API_test.cpp ****     }
  82:test/ConsumerProducer_CPP_Sync_API_test.cpp **** };
  83:test/ConsumerProducer_CPP_Sync_API_test.cpp **** 
  84:test/ConsumerProducer_CPP_Sync_API_test.cpp **** void ConsumerSync::consumer(void *arg) {
 527              		.loc 1 84 40 is_stmt 1
 528              		.cfi_startproc
 529              	.LVL52:
 530 015c 130101FD 		addi	sp,sp,-48
GAS LISTING /tmp/ccy3jDNt.s 			page 13


 531              		.cfi_def_cfa_offset 48
 532 0160 23341102 		sd	ra,40(sp)
 533 0164 23308102 		sd	s0,32(sp)
 534 0168 233C9100 		sd	s1,24(sp)
 535 016c 23382101 		sd	s2,16(sp)
 536 0170 23343101 		sd	s3,8(sp)
 537 0174 23304101 		sd	s4,0(sp)
 538              		.cfi_offset 1, -8
 539              		.cfi_offset 8, -16
 540              		.cfi_offset 9, -24
 541              		.cfi_offset 18, -32
 542              		.cfi_offset 19, -40
 543              		.cfi_offset 20, -48
 544 0178 13040103 		addi	s0,sp,48
 545              		.cfi_def_cfa 8, 0
 546 017c 93090500 		mv	s3,a0
 547 0180 13890500 		mv	s2,a1
  85:test/ConsumerProducer_CPP_Sync_API_test.cpp ****     struct thread_data *data = (struct thread_data *) arg;
 548              		.loc 1 85 5
 549              	.LVL53:
  86:test/ConsumerProducer_CPP_Sync_API_test.cpp **** 
  87:test/ConsumerProducer_CPP_Sync_API_test.cpp ****     int i = 0;
 550              		.loc 1 87 5
 551              		.loc 1 87 9 is_stmt 0
 552 0184 130A0000 		li	s4,0
 553 0188 6F00C001 		j	.L30
 554              	.LVL54:
 555              	.L36:
 556              	.LBB32:
  88:test/ConsumerProducer_CPP_Sync_API_test.cpp ****     while (!threadEnd) {
  89:test/ConsumerProducer_CPP_Sync_API_test.cpp ****         int key = data->buffer->get();
  90:test/ConsumerProducer_CPP_Sync_API_test.cpp ****         i++;
  91:test/ConsumerProducer_CPP_Sync_API_test.cpp **** 
  92:test/ConsumerProducer_CPP_Sync_API_test.cpp ****         putc(key);
  93:test/ConsumerProducer_CPP_Sync_API_test.cpp **** 
  94:test/ConsumerProducer_CPP_Sync_API_test.cpp ****         if (i % (5 * data->id) == 0) {
  95:test/ConsumerProducer_CPP_Sync_API_test.cpp ****             Thread::dispatch();
 557              		.loc 1 95 13 is_stmt 1
 558              		.loc 1 95 29 is_stmt 0
 559 018c 97000000 		call	_ZN6Thread8dispatchEv
 559      E7800000 
 560              	.LVL55:
 561 0194 6F008005 		j	.L32
 562              	.LVL56:
 563              	.L37:
  96:test/ConsumerProducer_CPP_Sync_API_test.cpp ****         }
  97:test/ConsumerProducer_CPP_Sync_API_test.cpp **** 
  98:test/ConsumerProducer_CPP_Sync_API_test.cpp ****         if (i % 80 == 0) {
  99:test/ConsumerProducer_CPP_Sync_API_test.cpp ****             putc('\n');
 564              		.loc 1 99 13 is_stmt 1
 565              		.loc 1 99 17 is_stmt 0
 566 0198 1305A000 		li	a0,10
 567 019c 97000000 		call	_Z4putcc
 567      E7800000 
 568              	.LVL57:
 569              	.L30:
 570              	.LBE32:
GAS LISTING /tmp/ccy3jDNt.s 			page 14


  88:test/ConsumerProducer_CPP_Sync_API_test.cpp ****     while (!threadEnd) {
 571              		.loc 1 88 5 is_stmt 1
  88:test/ConsumerProducer_CPP_Sync_API_test.cpp ****     while (!threadEnd) {
 572              		.loc 1 88 12 is_stmt 0
 573 01a4 97070000 		lla	a5,_ZL9threadEnd
 573      93870700 
 574 01ac 83A70700 		lw	a5,0(a5)
 575 01b0 9B870700 		sext.w	a5,a5
 576 01b4 63940704 		bnez	a5,.L31
 577              	.LBB33:
  89:test/ConsumerProducer_CPP_Sync_API_test.cpp ****         i++;
 578              		.loc 1 89 9 is_stmt 1
  89:test/ConsumerProducer_CPP_Sync_API_test.cpp ****         i++;
 579              		.loc 1 89 36 is_stmt 0
 580 01b8 03358900 		ld	a0,8(s2)
 581 01bc 97000000 		call	_ZN9BufferCPP3getEv
 581      E7800000 
 582              	.LVL58:
  90:test/ConsumerProducer_CPP_Sync_API_test.cpp **** 
 583              		.loc 1 90 9 is_stmt 1
  90:test/ConsumerProducer_CPP_Sync_API_test.cpp **** 
 584              		.loc 1 90 10 is_stmt 0
 585 01c4 9B041A00 		addiw	s1,s4,1
 586 01c8 1B8A0400 		sext.w	s4,s1
 587              	.LVL59:
  92:test/ConsumerProducer_CPP_Sync_API_test.cpp **** 
 588              		.loc 1 92 9 is_stmt 1
  92:test/ConsumerProducer_CPP_Sync_API_test.cpp **** 
 589              		.loc 1 92 13 is_stmt 0
 590 01cc 1375F50F 		andi	a0,a0,0xff
 591              	.LVL60:
 592 01d0 97000000 		call	_Z4putcc
 592      E7800000 
 593              	.LVL61:
  94:test/ConsumerProducer_CPP_Sync_API_test.cpp ****             Thread::dispatch();
 594              		.loc 1 94 9 is_stmt 1
  94:test/ConsumerProducer_CPP_Sync_API_test.cpp ****             Thread::dispatch();
 595              		.loc 1 94 28 is_stmt 0
 596 01d8 03270900 		lw	a4,0(s2)
  94:test/ConsumerProducer_CPP_Sync_API_test.cpp ****             Thread::dispatch();
 597              		.loc 1 94 20
 598 01dc 9B172700 		slliw	a5,a4,2
 599 01e0 BB87E700 		addw	a5,a5,a4
  94:test/ConsumerProducer_CPP_Sync_API_test.cpp ****             Thread::dispatch();
 600              		.loc 1 94 15
 601 01e4 BBE7F402 		remw	a5,s1,a5
  94:test/ConsumerProducer_CPP_Sync_API_test.cpp ****             Thread::dispatch();
 602              		.loc 1 94 9
 603 01e8 E38207FA 		beqz	a5,.L36
 604              	.L32:
  98:test/ConsumerProducer_CPP_Sync_API_test.cpp ****             putc('\n');
 605              		.loc 1 98 9 is_stmt 1
  98:test/ConsumerProducer_CPP_Sync_API_test.cpp ****             putc('\n');
 606              		.loc 1 98 15 is_stmt 0
 607 01ec 93070005 		li	a5,80
 608 01f0 BBE4F402 		remw	s1,s1,a5
 609              	.LVL62:
GAS LISTING /tmp/ccy3jDNt.s 			page 15


  98:test/ConsumerProducer_CPP_Sync_API_test.cpp ****             putc('\n');
 610              		.loc 1 98 9
 611 01f4 E39804FA 		bnez	s1,.L30
 612 01f8 6FF01FFA 		j	.L37
 613              	.L31:
 614              	.LBE33:
 100:test/ConsumerProducer_CPP_Sync_API_test.cpp ****         }
 101:test/ConsumerProducer_CPP_Sync_API_test.cpp ****     }
 102:test/ConsumerProducer_CPP_Sync_API_test.cpp **** 
 103:test/ConsumerProducer_CPP_Sync_API_test.cpp **** 
 104:test/ConsumerProducer_CPP_Sync_API_test.cpp ****     while (td->buffer->getCnt() > 0) {
 615              		.loc 1 104 5 is_stmt 1
 616              		.loc 1 104 12 is_stmt 0
 617 01fc 83B70902 		ld	a5,32(s3)
 618              		.loc 1 104 30
 619 0200 03B58700 		ld	a0,8(a5)
 620 0204 97000000 		call	_ZN9BufferCPP6getCntEv
 620      E7800000 
 621              	.LVL63:
 622              		.loc 1 104 33
 623 020c 6352A002 		blez	a0,.L34
 624              	.LBB34:
 105:test/ConsumerProducer_CPP_Sync_API_test.cpp ****         int key = td->buffer->get();
 625              		.loc 1 105 9 is_stmt 1
 626              		.loc 1 105 19 is_stmt 0
 627 0210 83B70902 		ld	a5,32(s3)
 628              		.loc 1 105 34
 629 0214 03B58700 		ld	a0,8(a5)
 630 0218 97000000 		call	_ZN9BufferCPP3getEv
 630      E7800000 
 631              	.LVL64:
 106:test/ConsumerProducer_CPP_Sync_API_test.cpp ****         Console::putc(key);
 632              		.loc 1 106 9 is_stmt 1
 633              		.loc 1 106 22 is_stmt 0
 634 0220 1375F50F 		andi	a0,a0,0xff
 635              	.LVL65:
 636 0224 97000000 		call	_ZN7Console4putcEc
 636      E7800000 
 637              	.LVL66:
 638              	.LBE34:
 104:test/ConsumerProducer_CPP_Sync_API_test.cpp ****         int key = td->buffer->get();
 639              		.loc 1 104 5
 640 022c 6FF01FFD 		j	.L31
 641              	.L34:
 107:test/ConsumerProducer_CPP_Sync_API_test.cpp ****     }
 108:test/ConsumerProducer_CPP_Sync_API_test.cpp **** 
 109:test/ConsumerProducer_CPP_Sync_API_test.cpp ****     data->wait->signal();
 642              		.loc 1 109 5 is_stmt 1
 643              		.loc 1 109 23 is_stmt 0
 644 0230 03350901 		ld	a0,16(s2)
 645 0234 97000000 		call	_ZN9Semaphore6signalEv
 645      E7800000 
 646              	.LVL67:
 110:test/ConsumerProducer_CPP_Sync_API_test.cpp **** }
 647              		.loc 1 110 1
 648 023c 83308102 		ld	ra,40(sp)
 649              		.cfi_restore 1
GAS LISTING /tmp/ccy3jDNt.s 			page 16


 650 0240 03340102 		ld	s0,32(sp)
 651              		.cfi_restore 8
 652 0244 83348101 		ld	s1,24(sp)
 653              		.cfi_restore 9
 654 0248 03390101 		ld	s2,16(sp)
 655              		.cfi_restore 18
 656              	.LVL68:
 657 024c 83398100 		ld	s3,8(sp)
 658              		.cfi_restore 19
 659              	.LVL69:
 660 0250 033A0100 		ld	s4,0(sp)
 661              		.cfi_restore 20
 662              	.LVL70:
 663 0254 13010103 		addi	sp,sp,48
 664              		.cfi_def_cfa_register 2
 665 0258 67800000 		jr	ra
 666              		.cfi_endproc
 667              	.LFE49:
 669              		.section	.text._ZN12ConsumerSync3runEv,"axG",@progbits,_ZN12ConsumerSync3runEv,comdat
 670              		.align	2
 671              		.weak	_ZN12ConsumerSync3runEv
 673              	_ZN12ConsumerSync3runEv:
 674              	.LFB48:
  79:test/ConsumerProducer_CPP_Sync_API_test.cpp ****         consumer(td);
 675              		.loc 1 79 10 is_stmt 1
 676              		.cfi_startproc
 677              	.LVL71:
 678 0000 130101FF 		addi	sp,sp,-16
 679              		.cfi_def_cfa_offset 16
 680 0004 23341100 		sd	ra,8(sp)
 681 0008 23308100 		sd	s0,0(sp)
 682              		.cfi_offset 1, -8
 683              		.cfi_offset 8, -16
 684 000c 13040101 		addi	s0,sp,16
 685              		.cfi_def_cfa 8, 0
  80:test/ConsumerProducer_CPP_Sync_API_test.cpp ****     }
 686              		.loc 1 80 9
  80:test/ConsumerProducer_CPP_Sync_API_test.cpp ****     }
 687              		.loc 1 80 17 is_stmt 0
 688 0010 83350502 		ld	a1,32(a0)
 689 0014 97000000 		call	_ZN12ConsumerSync8consumerEPv
 689      E7800000 
 690              	.LVL72:
  81:test/ConsumerProducer_CPP_Sync_API_test.cpp **** };
 691              		.loc 1 81 5
 692 001c 83308100 		ld	ra,8(sp)
 693              		.cfi_restore 1
 694 0020 03340100 		ld	s0,0(sp)
 695              		.cfi_restore 8
 696 0024 13010101 		addi	sp,sp,16
 697              		.cfi_def_cfa_register 2
 698 0028 67800000 		jr	ra
 699              		.cfi_endproc
 700              	.LFE48:
 702              		.text
 703              		.align	2
 704              		.globl	_Z29producerConsumer_CPP_Sync_APIv
GAS LISTING /tmp/ccy3jDNt.s 			page 17


 706              	_Z29producerConsumer_CPP_Sync_APIv:
 707              	.LFB50:
 111:test/ConsumerProducer_CPP_Sync_API_test.cpp **** 
 112:test/ConsumerProducer_CPP_Sync_API_test.cpp **** void producerConsumer_CPP_Sync_API() {
 708              		.loc 1 112 38 is_stmt 1
 709              		.cfi_startproc
 710              		.cfi_personality 0x9b,DW.ref.__gxx_personality_v0
 711              		.cfi_lsda 0x1b,.LLSDA50
 712 025c 130101F8 		addi	sp,sp,-128
 713              		.cfi_def_cfa_offset 128
 714 0260 233C1106 		sd	ra,120(sp)
 715 0264 23388106 		sd	s0,112(sp)
 716 0268 23349106 		sd	s1,104(sp)
 717 026c 23302107 		sd	s2,96(sp)
 718 0270 233C3105 		sd	s3,88(sp)
 719 0274 23384105 		sd	s4,80(sp)
 720 0278 23345105 		sd	s5,72(sp)
 721 027c 23306105 		sd	s6,64(sp)
 722 0280 233C7103 		sd	s7,56(sp)
 723 0284 23388103 		sd	s8,48(sp)
 724 0288 23349103 		sd	s9,40(sp)
 725              		.cfi_offset 1, -8
 726              		.cfi_offset 8, -16
 727              		.cfi_offset 9, -24
 728              		.cfi_offset 18, -32
 729              		.cfi_offset 19, -40
 730              		.cfi_offset 20, -48
 731              		.cfi_offset 21, -56
 732              		.cfi_offset 22, -64
 733              		.cfi_offset 23, -72
 734              		.cfi_offset 24, -80
 735              		.cfi_offset 25, -88
 736 028c 13040108 		addi	s0,sp,128
 737              		.cfi_def_cfa 8, 0
 113:test/ConsumerProducer_CPP_Sync_API_test.cpp ****     char input[30];
 114:test/ConsumerProducer_CPP_Sync_API_test.cpp ****     int n, threadNum;
 115:test/ConsumerProducer_CPP_Sync_API_test.cpp **** 
 116:test/ConsumerProducer_CPP_Sync_API_test.cpp ****     printString("Unesite broj proizvodjaca?\n");
 117:test/ConsumerProducer_CPP_Sync_API_test.cpp ****     getString(input, 30);
 118:test/ConsumerProducer_CPP_Sync_API_test.cpp ****     threadNum = stringToInt(input);
 119:test/ConsumerProducer_CPP_Sync_API_test.cpp **** 
 120:test/ConsumerProducer_CPP_Sync_API_test.cpp ****     printString("Unesite velicinu bafera?\n");
 121:test/ConsumerProducer_CPP_Sync_API_test.cpp ****     getString(input, 30);
 122:test/ConsumerProducer_CPP_Sync_API_test.cpp ****     n = stringToInt(input);
 123:test/ConsumerProducer_CPP_Sync_API_test.cpp **** 
 124:test/ConsumerProducer_CPP_Sync_API_test.cpp ****     printString("Broj proizvodjaca "); printInt(threadNum);
 125:test/ConsumerProducer_CPP_Sync_API_test.cpp ****     printString(" i velicina bafera "); printInt(n);
 126:test/ConsumerProducer_CPP_Sync_API_test.cpp ****     printString(".\n");
 127:test/ConsumerProducer_CPP_Sync_API_test.cpp **** 
 128:test/ConsumerProducer_CPP_Sync_API_test.cpp ****     if(threadNum > n) {
 129:test/ConsumerProducer_CPP_Sync_API_test.cpp ****         printString("Broj proizvodjaca ne sme biti manji od velicine bafera!\n");
 130:test/ConsumerProducer_CPP_Sync_API_test.cpp ****         return;
 131:test/ConsumerProducer_CPP_Sync_API_test.cpp ****     } else if (threadNum < 1) {
 132:test/ConsumerProducer_CPP_Sync_API_test.cpp ****         printString("Broj proizvodjaca mora biti veci od nula!\n");
 133:test/ConsumerProducer_CPP_Sync_API_test.cpp ****         return;
 134:test/ConsumerProducer_CPP_Sync_API_test.cpp ****     }
 135:test/ConsumerProducer_CPP_Sync_API_test.cpp **** 
GAS LISTING /tmp/ccy3jDNt.s 			page 18


 136:test/ConsumerProducer_CPP_Sync_API_test.cpp ****     BufferCPP *buffer = new BufferCPP(n);
 137:test/ConsumerProducer_CPP_Sync_API_test.cpp **** 
 138:test/ConsumerProducer_CPP_Sync_API_test.cpp ****     waitForAll = new Semaphore(0);
 139:test/ConsumerProducer_CPP_Sync_API_test.cpp **** 
 140:test/ConsumerProducer_CPP_Sync_API_test.cpp ****     Thread* threads[threadNum];
 141:test/ConsumerProducer_CPP_Sync_API_test.cpp ****     Thread* consumerThread;
 142:test/ConsumerProducer_CPP_Sync_API_test.cpp **** 
 143:test/ConsumerProducer_CPP_Sync_API_test.cpp ****     struct thread_data data[threadNum + 1];
 144:test/ConsumerProducer_CPP_Sync_API_test.cpp **** 
 145:test/ConsumerProducer_CPP_Sync_API_test.cpp ****     data[threadNum].id = threadNum;
 146:test/ConsumerProducer_CPP_Sync_API_test.cpp ****     data[threadNum].buffer = buffer;
 147:test/ConsumerProducer_CPP_Sync_API_test.cpp ****     data[threadNum].wait = waitForAll;
 148:test/ConsumerProducer_CPP_Sync_API_test.cpp ****     consumerThread = new ConsumerSync(data+threadNum);
 149:test/ConsumerProducer_CPP_Sync_API_test.cpp ****     consumerThread->start();
 150:test/ConsumerProducer_CPP_Sync_API_test.cpp **** 
 151:test/ConsumerProducer_CPP_Sync_API_test.cpp ****     for (int i = 0; i < threadNum; i++) {
 152:test/ConsumerProducer_CPP_Sync_API_test.cpp ****         data[i].id = i;
 153:test/ConsumerProducer_CPP_Sync_API_test.cpp ****         data[i].buffer = buffer;
 154:test/ConsumerProducer_CPP_Sync_API_test.cpp ****         data[i].wait = waitForAll;
 155:test/ConsumerProducer_CPP_Sync_API_test.cpp **** 
 156:test/ConsumerProducer_CPP_Sync_API_test.cpp ****         if(i>0) {
 157:test/ConsumerProducer_CPP_Sync_API_test.cpp ****             threads[i] = new ProducerSync(data+i);
 158:test/ConsumerProducer_CPP_Sync_API_test.cpp ****         } else {
 159:test/ConsumerProducer_CPP_Sync_API_test.cpp ****             threads[i] = new ProducerKeyboard(data+i);
 160:test/ConsumerProducer_CPP_Sync_API_test.cpp ****         }
 161:test/ConsumerProducer_CPP_Sync_API_test.cpp **** 
 162:test/ConsumerProducer_CPP_Sync_API_test.cpp ****         threads[i]->start();
 163:test/ConsumerProducer_CPP_Sync_API_test.cpp ****     }
 164:test/ConsumerProducer_CPP_Sync_API_test.cpp **** 
 165:test/ConsumerProducer_CPP_Sync_API_test.cpp ****     Thread::dispatch();
 166:test/ConsumerProducer_CPP_Sync_API_test.cpp **** 
 167:test/ConsumerProducer_CPP_Sync_API_test.cpp ****     for (int i = 0; i <= threadNum; i++) {
 168:test/ConsumerProducer_CPP_Sync_API_test.cpp ****         waitForAll->wait();
 169:test/ConsumerProducer_CPP_Sync_API_test.cpp ****     }
 170:test/ConsumerProducer_CPP_Sync_API_test.cpp **** 
 171:test/ConsumerProducer_CPP_Sync_API_test.cpp ****     for (int i = 0; i < threadNum; i++) {
 172:test/ConsumerProducer_CPP_Sync_API_test.cpp ****         delete threads[i];
 173:test/ConsumerProducer_CPP_Sync_API_test.cpp ****     }
 174:test/ConsumerProducer_CPP_Sync_API_test.cpp ****     delete consumerThread;
 175:test/ConsumerProducer_CPP_Sync_API_test.cpp ****     delete waitForAll;
 176:test/ConsumerProducer_CPP_Sync_API_test.cpp ****     delete buffer;
 738              		.loc 1 176 18 is_stmt 0
 739 0290 130B0100 		mv	s6,sp
 113:test/ConsumerProducer_CPP_Sync_API_test.cpp ****     char input[30];
 740              		.loc 1 113 5 is_stmt 1
 114:test/ConsumerProducer_CPP_Sync_API_test.cpp **** 
 741              		.loc 1 114 5
 116:test/ConsumerProducer_CPP_Sync_API_test.cpp ****     getString(input, 30);
 742              		.loc 1 116 5
 116:test/ConsumerProducer_CPP_Sync_API_test.cpp ****     getString(input, 30);
 743              		.loc 1 116 16 is_stmt 0
 744 0294 17050000 		lla	a0,.LC0
 744      13050500 
 745              	.LEHB0:
 746 029c 97000000 		call	_Z11printStringPKc
 746      E7800000 
 747              	.LVL73:
GAS LISTING /tmp/ccy3jDNt.s 			page 19


 117:test/ConsumerProducer_CPP_Sync_API_test.cpp ****     threadNum = stringToInt(input);
 748              		.loc 1 117 5 is_stmt 1
 117:test/ConsumerProducer_CPP_Sync_API_test.cpp ****     threadNum = stringToInt(input);
 749              		.loc 1 117 14 is_stmt 0
 750 02a4 9305E001 		li	a1,30
 751 02a8 130504F8 		addi	a0,s0,-128
 752 02ac 97000000 		call	_Z9getStringPci
 752      E7800000 
 753              	.LVL74:
 118:test/ConsumerProducer_CPP_Sync_API_test.cpp **** 
 754              		.loc 1 118 5 is_stmt 1
 118:test/ConsumerProducer_CPP_Sync_API_test.cpp **** 
 755              		.loc 1 118 28 is_stmt 0
 756 02b4 130504F8 		addi	a0,s0,-128
 757 02b8 97000000 		call	_Z11stringToIntPKc
 757      E7800000 
 758              	.LVL75:
 759 02c0 13090500 		mv	s2,a0
 760              	.LVL76:
 120:test/ConsumerProducer_CPP_Sync_API_test.cpp ****     getString(input, 30);
 761              		.loc 1 120 5 is_stmt 1
 120:test/ConsumerProducer_CPP_Sync_API_test.cpp ****     getString(input, 30);
 762              		.loc 1 120 16 is_stmt 0
 763 02c4 17050000 		lla	a0,.LC1
 763      13050500 
 764 02cc 97000000 		call	_Z11printStringPKc
 764      E7800000 
 765              	.LVL77:
 121:test/ConsumerProducer_CPP_Sync_API_test.cpp ****     n = stringToInt(input);
 766              		.loc 1 121 5 is_stmt 1
 121:test/ConsumerProducer_CPP_Sync_API_test.cpp ****     n = stringToInt(input);
 767              		.loc 1 121 14 is_stmt 0
 768 02d4 9305E001 		li	a1,30
 769 02d8 130504F8 		addi	a0,s0,-128
 770 02dc 97000000 		call	_Z9getStringPci
 770      E7800000 
 771              	.LVL78:
 122:test/ConsumerProducer_CPP_Sync_API_test.cpp **** 
 772              		.loc 1 122 5 is_stmt 1
 122:test/ConsumerProducer_CPP_Sync_API_test.cpp **** 
 773              		.loc 1 122 20 is_stmt 0
 774 02e4 130504F8 		addi	a0,s0,-128
 775 02e8 97000000 		call	_Z11stringToIntPKc
 775      E7800000 
 776              	.LVL79:
 777 02f0 93040500 		mv	s1,a0
 778              	.LVL80:
 124:test/ConsumerProducer_CPP_Sync_API_test.cpp ****     printString(" i velicina bafera "); printInt(n);
 779              		.loc 1 124 5 is_stmt 1
 124:test/ConsumerProducer_CPP_Sync_API_test.cpp ****     printString(" i velicina bafera "); printInt(n);
 780              		.loc 1 124 16 is_stmt 0
 781 02f4 17050000 		lla	a0,.LC2
 781      13050500 
 782 02fc 97000000 		call	_Z11printStringPKc
 782      E7800000 
 783              	.LVL81:
 124:test/ConsumerProducer_CPP_Sync_API_test.cpp ****     printString(" i velicina bafera "); printInt(n);
GAS LISTING /tmp/ccy3jDNt.s 			page 20


 784              		.loc 1 124 40 is_stmt 1
 124:test/ConsumerProducer_CPP_Sync_API_test.cpp ****     printString(" i velicina bafera "); printInt(n);
 785              		.loc 1 124 48 is_stmt 0
 786 0304 13060000 		li	a2,0
 787 0308 9305A000 		li	a1,10
 788 030c 13050900 		mv	a0,s2
 789 0310 97000000 		call	_Z8printIntiii
 789      E7800000 
 790              	.LVL82:
 125:test/ConsumerProducer_CPP_Sync_API_test.cpp ****     printString(".\n");
 791              		.loc 1 125 5 is_stmt 1
 125:test/ConsumerProducer_CPP_Sync_API_test.cpp ****     printString(".\n");
 792              		.loc 1 125 16 is_stmt 0
 793 0318 17050000 		lla	a0,.LC3
 793      13050500 
 794 0320 97000000 		call	_Z11printStringPKc
 794      E7800000 
 795              	.LVL83:
 125:test/ConsumerProducer_CPP_Sync_API_test.cpp ****     printString(".\n");
 796              		.loc 1 125 41 is_stmt 1
 125:test/ConsumerProducer_CPP_Sync_API_test.cpp ****     printString(".\n");
 797              		.loc 1 125 49 is_stmt 0
 798 0328 13060000 		li	a2,0
 799 032c 9305A000 		li	a1,10
 800 0330 13850400 		mv	a0,s1
 801 0334 97000000 		call	_Z8printIntiii
 801      E7800000 
 802              	.LVL84:
 126:test/ConsumerProducer_CPP_Sync_API_test.cpp **** 
 803              		.loc 1 126 5 is_stmt 1
 126:test/ConsumerProducer_CPP_Sync_API_test.cpp **** 
 804              		.loc 1 126 16 is_stmt 0
 805 033c 17050000 		lla	a0,.LC4
 805      13050500 
 806 0344 97000000 		call	_Z11printStringPKc
 806      E7800000 
 807              	.LVL85:
 128:test/ConsumerProducer_CPP_Sync_API_test.cpp ****         printString("Broj proizvodjaca ne sme biti manji od velicine bafera!\n");
 808              		.loc 1 128 5 is_stmt 1
 809 034c 63C42403 		bgt	s2,s1,.L68
 131:test/ConsumerProducer_CPP_Sync_API_test.cpp ****         printString("Broj proizvodjaca mora biti veci od nula!\n");
 810              		.loc 1 131 12
 811 0350 635C2003 		blez	s2,.L69
 136:test/ConsumerProducer_CPP_Sync_API_test.cpp **** 
 812              		.loc 1 136 5
 136:test/ConsumerProducer_CPP_Sync_API_test.cpp **** 
 813              		.loc 1 136 40 is_stmt 0
 814 0354 13058003 		li	a0,56
 815 0358 97000000 		call	_Znwm
 815      E7800000 
 816              	.LVL86:
 817              	.LEHE0:
 818 0360 130A0500 		mv	s4,a0
 819 0364 93850400 		mv	a1,s1
 820              	.LEHB1:
 821 0368 97000000 		call	_ZN9BufferCPPC1Ei
 821      E7800000 
GAS LISTING /tmp/ccy3jDNt.s 			page 21


 822              	.LVL87:
 823              	.LEHE1:
 824 0370 6F000003 		j	.L70
 825              	.L68:
 129:test/ConsumerProducer_CPP_Sync_API_test.cpp ****         return;
 826              		.loc 1 129 9 is_stmt 1
 129:test/ConsumerProducer_CPP_Sync_API_test.cpp ****         return;
 827              		.loc 1 129 20 is_stmt 0
 828 0374 17050000 		lla	a0,.LC5
 828      13050500 
 829              	.LEHB2:
 830 037c 97000000 		call	_Z11printStringPKc
 830      E7800000 
 831              	.LVL88:
 130:test/ConsumerProducer_CPP_Sync_API_test.cpp ****     } else if (threadNum < 1) {
 832              		.loc 1 130 9 is_stmt 1
 833 0384 6F004001 		j	.L42
 834              	.L69:
 132:test/ConsumerProducer_CPP_Sync_API_test.cpp ****         return;
 835              		.loc 1 132 9
 132:test/ConsumerProducer_CPP_Sync_API_test.cpp ****         return;
 836              		.loc 1 132 20 is_stmt 0
 837 0388 17050000 		lla	a0,.LC6
 837      13050500 
 838 0390 97000000 		call	_Z11printStringPKc
 838      E7800000 
 839              	.LVL89:
 133:test/ConsumerProducer_CPP_Sync_API_test.cpp ****     }
 840              		.loc 1 133 9 is_stmt 1
 841              	.L42:
 842 0398 13010B00 		mv	sp,s6
 843 039c 6F004024 		j	.L40
 844              	.L70:
 845              	.LVL90:
 138:test/ConsumerProducer_CPP_Sync_API_test.cpp **** 
 846              		.loc 1 138 5 discriminator 3
 138:test/ConsumerProducer_CPP_Sync_API_test.cpp **** 
 847              		.loc 1 138 33 is_stmt 0 discriminator 3
 848 03a0 13050001 		li	a0,16
 849 03a4 97000000 		call	_Znwm
 849      E7800000 
 850              	.LVL91:
 851              	.LEHE2:
 852 03ac 93040500 		mv	s1,a0
 853              	.LVL92:
 854 03b0 93050000 		li	a1,0
 855              	.LEHB3:
 856 03b4 97000000 		call	_ZN9SemaphoreC1Ej
 856      E7800000 
 857              	.LVL93:
 858              	.LEHE3:
 138:test/ConsumerProducer_CPP_Sync_API_test.cpp **** 
 859              		.loc 1 138 16 discriminator 3
 860 03bc 97070000 		sd	s1,_ZL10waitForAll,a5
 860      23B09700 
 140:test/ConsumerProducer_CPP_Sync_API_test.cpp ****     Thread* consumerThread;
 861              		.loc 1 140 5 is_stmt 1 discriminator 3
GAS LISTING /tmp/ccy3jDNt.s 			page 22


 862              	.LVL94:
 140:test/ConsumerProducer_CPP_Sync_API_test.cpp ****     Thread* consumerThread;
 863              		.loc 1 140 13 is_stmt 0 discriminator 3
 864 03c4 93173900 		slli	a5,s2,3
 865 03c8 9387F700 		addi	a5,a5,15
 866 03cc 93F707FF 		andi	a5,a5,-16
 867 03d0 3301F140 		sub	sp,sp,a5
 868 03d4 93090100 		mv	s3,sp
 869              	.LVL95:
 141:test/ConsumerProducer_CPP_Sync_API_test.cpp **** 
 870              		.loc 1 141 5 is_stmt 1 discriminator 3
 143:test/ConsumerProducer_CPP_Sync_API_test.cpp **** 
 871              		.loc 1 143 5 discriminator 3
 143:test/ConsumerProducer_CPP_Sync_API_test.cpp **** 
 872              		.loc 1 143 39 is_stmt 0 discriminator 3
 873 03d8 9B071900 		addiw	a5,s2,1
 874              	.LVL96:
 143:test/ConsumerProducer_CPP_Sync_API_test.cpp **** 
 875              		.loc 1 143 24 discriminator 3
 876 03dc 13971700 		slli	a4,a5,1
 877 03e0 3307F700 		add	a4,a4,a5
 878 03e4 93173700 		slli	a5,a4,3
 879 03e8 9387F700 		addi	a5,a5,15
 880 03ec 93F707FF 		andi	a5,a5,-16
 881 03f0 3301F140 		sub	sp,sp,a5
 882              	.LVL97:
 883 03f4 930B0100 		mv	s7,sp
 884              	.LVL98:
 145:test/ConsumerProducer_CPP_Sync_API_test.cpp ****     data[threadNum].buffer = buffer;
 885              		.loc 1 145 5 is_stmt 1 discriminator 3
 145:test/ConsumerProducer_CPP_Sync_API_test.cpp ****     data[threadNum].buffer = buffer;
 886              		.loc 1 145 24 is_stmt 0 discriminator 3
 887 03f8 131C1900 		slli	s8,s2,1
 888 03fc 33072C01 		add	a4,s8,s2
 889 0400 93173700 		slli	a5,a4,3
 890 0404 B387FB00 		add	a5,s7,a5
 891 0408 23A02701 		sw	s2,0(a5)
 146:test/ConsumerProducer_CPP_Sync_API_test.cpp ****     data[threadNum].wait = waitForAll;
 892              		.loc 1 146 5 is_stmt 1 discriminator 3
 146:test/ConsumerProducer_CPP_Sync_API_test.cpp ****     data[threadNum].wait = waitForAll;
 893              		.loc 1 146 28 is_stmt 0 discriminator 3
 894 040c 23B44701 		sd	s4,8(a5)
 147:test/ConsumerProducer_CPP_Sync_API_test.cpp ****     consumerThread = new ConsumerSync(data+threadNum);
 895              		.loc 1 147 5 is_stmt 1 discriminator 3
 147:test/ConsumerProducer_CPP_Sync_API_test.cpp ****     consumerThread = new ConsumerSync(data+threadNum);
 896              		.loc 1 147 26 is_stmt 0 discriminator 3
 897 0410 23B89700 		sd	s1,16(a5)
 148:test/ConsumerProducer_CPP_Sync_API_test.cpp ****     consumerThread->start();
 898              		.loc 1 148 5 is_stmt 1 discriminator 3
 148:test/ConsumerProducer_CPP_Sync_API_test.cpp ****     consumerThread->start();
 899              		.loc 1 148 53 is_stmt 0 discriminator 3
 900 0414 13058002 		li	a0,40
 901              	.LEHB4:
 902 0418 97000000 		call	_Znwm
 902      E7800000 
 903              	.LVL99:
 904              	.LEHE4:
GAS LISTING /tmp/ccy3jDNt.s 			page 23


 905 0420 930A0500 		mv	s5,a0
 148:test/ConsumerProducer_CPP_Sync_API_test.cpp ****     consumerThread->start();
 906              		.loc 1 148 43 discriminator 3
 907 0424 330C2C01 		add	s8,s8,s2
 908 0428 93173C00 		slli	a5,s8,3
 148:test/ConsumerProducer_CPP_Sync_API_test.cpp ****     consumerThread->start();
 909              		.loc 1 148 53 discriminator 3
 910 042c B384FB00 		add	s1,s7,a5
 911              	.LVL100:
 912              	.LEHB5:
 913              	.LBB35:
 914              	.LBB36:
  77:test/ConsumerProducer_CPP_Sync_API_test.cpp **** 
 915              		.loc 1 77 52 discriminator 3
 916 0430 97000000 		call	_ZN6ThreadC2Ev
 916      E7800000 
 917              	.LVL101:
 918              	.LEHE5:
  77:test/ConsumerProducer_CPP_Sync_API_test.cpp **** 
 919              		.loc 1 77 52
 920 0438 97070000 		lla	a5,_ZTV12ConsumerSync+16
 920      93870700 
 921 0440 23B0FA00 		sd	a5,0(s5)
 922 0444 23B09A02 		sd	s1,32(s5)
 923              	.LVL102:
 924              	.LBE36:
 925              	.LBE35:
 149:test/ConsumerProducer_CPP_Sync_API_test.cpp **** 
 926              		.loc 1 149 5 is_stmt 1
 149:test/ConsumerProducer_CPP_Sync_API_test.cpp **** 
 927              		.loc 1 149 26 is_stmt 0
 928 0448 13850A00 		mv	a0,s5
 929              	.LEHB6:
 930 044c 97000000 		call	_ZN6Thread5startEv
 930      E7800000 
 931              	.LVL103:
 932              	.LBB37:
 151:test/ConsumerProducer_CPP_Sync_API_test.cpp ****         data[i].id = i;
 933              		.loc 1 151 14
 934 0454 93040000 		li	s1,0
 935 0458 6F008003 		j	.L47
 936              	.LVL104:
 937              	.L71:
 938              	.LBB38:
 939              	.LBB39:
  50:test/ConsumerProducer_CPP_Sync_API_test.cpp **** 
 940              		.loc 1 50 52
 941 045c 97070000 		lla	a5,_ZTV12ProducerSync+16
 941      93870700 
 942 0464 23B0FC00 		sd	a5,0(s9)
 943 0468 23B08C03 		sd	s8,32(s9)
 944              	.LVL105:
 945              	.LBE39:
 946              	.LBE38:
 157:test/ConsumerProducer_CPP_Sync_API_test.cpp ****         } else {
 947              		.loc 1 157 24
 948 046c 93973400 		slli	a5,s1,3
GAS LISTING /tmp/ccy3jDNt.s 			page 24


 949 0470 B387F900 		add	a5,s3,a5
 950 0474 23B09701 		sd	s9,0(a5)
 951              	.L46:
 162:test/ConsumerProducer_CPP_Sync_API_test.cpp ****     }
 952              		.loc 1 162 9 is_stmt 1
 162:test/ConsumerProducer_CPP_Sync_API_test.cpp ****     }
 953              		.loc 1 162 18 is_stmt 0
 954 0478 93973400 		slli	a5,s1,3
 955 047c B387F900 		add	a5,s3,a5
 162:test/ConsumerProducer_CPP_Sync_API_test.cpp ****     }
 956              		.loc 1 162 26
 957 0480 03B50700 		ld	a0,0(a5)
 958 0484 97000000 		call	_ZN6Thread5startEv
 958      E7800000 
 959              	.LVL106:
 151:test/ConsumerProducer_CPP_Sync_API_test.cpp ****         data[i].id = i;
 960              		.loc 1 151 5
 961 048c 9B841400 		addiw	s1,s1,1
 962              	.LVL107:
 963              	.L47:
 151:test/ConsumerProducer_CPP_Sync_API_test.cpp ****         data[i].id = i;
 964              		.loc 1 151 23 discriminator 1
 965 0490 63D2240B 		bge	s1,s2,.L44
 152:test/ConsumerProducer_CPP_Sync_API_test.cpp ****         data[i].buffer = buffer;
 966              		.loc 1 152 9 is_stmt 1
 152:test/ConsumerProducer_CPP_Sync_API_test.cpp ****         data[i].buffer = buffer;
 967              		.loc 1 152 20 is_stmt 0
 968 0494 13971400 		slli	a4,s1,1
 969 0498 33079700 		add	a4,a4,s1
 970 049c 93173700 		slli	a5,a4,3
 971 04a0 B387FB00 		add	a5,s7,a5
 972 04a4 23A09700 		sw	s1,0(a5)
 153:test/ConsumerProducer_CPP_Sync_API_test.cpp ****         data[i].wait = waitForAll;
 973              		.loc 1 153 9 is_stmt 1
 153:test/ConsumerProducer_CPP_Sync_API_test.cpp ****         data[i].wait = waitForAll;
 974              		.loc 1 153 24 is_stmt 0
 975 04a8 23B44701 		sd	s4,8(a5)
 154:test/ConsumerProducer_CPP_Sync_API_test.cpp **** 
 976              		.loc 1 154 9 is_stmt 1
 154:test/ConsumerProducer_CPP_Sync_API_test.cpp **** 
 977              		.loc 1 154 22 is_stmt 0
 978 04ac 17070000 		lla	a4,_ZL10waitForAll
 978      13070700 
 979 04b4 03370700 		ld	a4,0(a4)
 980 04b8 23B8E700 		sd	a4,16(a5)
 156:test/ConsumerProducer_CPP_Sync_API_test.cpp ****             threads[i] = new ProducerSync(data+i);
 981              		.loc 1 156 9 is_stmt 1
 982 04bc 63589002 		blez	s1,.L45
 157:test/ConsumerProducer_CPP_Sync_API_test.cpp ****         } else {
 983              		.loc 1 157 13
 157:test/ConsumerProducer_CPP_Sync_API_test.cpp ****         } else {
 984              		.loc 1 157 49 is_stmt 0
 985 04c0 13058002 		li	a0,40
 986 04c4 97000000 		call	_Znwm
 986      E7800000 
 987              	.LVL108:
 988              	.LEHE6:
GAS LISTING /tmp/ccy3jDNt.s 			page 25


 989 04cc 930C0500 		mv	s9,a0
 157:test/ConsumerProducer_CPP_Sync_API_test.cpp ****         } else {
 990              		.loc 1 157 47
 991 04d0 13971400 		slli	a4,s1,1
 992 04d4 33079700 		add	a4,a4,s1
 993 04d8 93173700 		slli	a5,a4,3
 157:test/ConsumerProducer_CPP_Sync_API_test.cpp ****         } else {
 994              		.loc 1 157 49
 995 04dc 338CFB00 		add	s8,s7,a5
 996              	.LVL109:
 997              	.LEHB7:
 998              	.LBB41:
 999              	.LBB40:
  50:test/ConsumerProducer_CPP_Sync_API_test.cpp **** 
 1000              		.loc 1 50 52
 1001 04e0 97000000 		call	_ZN6ThreadC2Ev
 1001      E7800000 
 1002              	.LVL110:
 1003              	.LEHE7:
 1004 04e8 6FF05FF7 		j	.L71
 1005              	.LVL111:
 1006              	.L45:
 1007              	.LBE40:
 1008              	.LBE41:
 159:test/ConsumerProducer_CPP_Sync_API_test.cpp ****         }
 1009              		.loc 1 159 13 is_stmt 1
 159:test/ConsumerProducer_CPP_Sync_API_test.cpp ****         }
 1010              		.loc 1 159 53 is_stmt 0
 1011 04ec 13058002 		li	a0,40
 1012              	.LEHB8:
 1013 04f0 97000000 		call	_Znwm
 1013      E7800000 
 1014              	.LVL112:
 1015              	.LEHE8:
 1016 04f8 930C0500 		mv	s9,a0
 159:test/ConsumerProducer_CPP_Sync_API_test.cpp ****         }
 1017              		.loc 1 159 51
 1018 04fc 13971400 		slli	a4,s1,1
 1019 0500 33079700 		add	a4,a4,s1
 1020 0504 93173700 		slli	a5,a4,3
 159:test/ConsumerProducer_CPP_Sync_API_test.cpp ****         }
 1021              		.loc 1 159 53
 1022 0508 338CFB00 		add	s8,s7,a5
 1023              	.LVL113:
 1024              	.LEHB9:
 1025              	.LBB42:
 1026              	.LBB43:
  19:test/ConsumerProducer_CPP_Sync_API_test.cpp **** 
 1027              		.loc 1 19 56
 1028 050c 97000000 		call	_ZN6ThreadC2Ev
 1028      E7800000 
 1029              	.LVL114:
 1030              	.LEHE9:
 1031 0514 97070000 		lla	a5,_ZTV16ProducerKeyboard+16
 1031      93870700 
 1032 051c 23B0FC00 		sd	a5,0(s9)
 1033 0520 23B08C03 		sd	s8,32(s9)
GAS LISTING /tmp/ccy3jDNt.s 			page 26


 1034              	.LVL115:
 1035              	.LBE43:
 1036              	.LBE42:
 159:test/ConsumerProducer_CPP_Sync_API_test.cpp ****         }
 1037              		.loc 1 159 24
 1038 0524 93973400 		slli	a5,s1,3
 1039 0528 B387F900 		add	a5,s3,a5
 1040 052c 23B09701 		sd	s9,0(a5)
 1041 0530 6FF09FF4 		j	.L46
 1042              	.L44:
 1043              	.LBE37:
 165:test/ConsumerProducer_CPP_Sync_API_test.cpp **** 
 1044              		.loc 1 165 5 is_stmt 1
 1045              	.LEHB10:
 165:test/ConsumerProducer_CPP_Sync_API_test.cpp **** 
 1046              		.loc 1 165 21 is_stmt 0
 1047 0534 97000000 		call	_ZN6Thread8dispatchEv
 1047      E7800000 
 1048              	.LVL116:
 1049              	.LBB44:
 167:test/ConsumerProducer_CPP_Sync_API_test.cpp ****         waitForAll->wait();
 1050              		.loc 1 167 14
 1051 053c 93040000 		li	s1,0
 1052              	.LVL117:
 1053              	.L49:
 167:test/ConsumerProducer_CPP_Sync_API_test.cpp ****         waitForAll->wait();
 1054              		.loc 1 167 23 discriminator 1
 1055 0540 63409902 		bgt	s1,s2,.L61
 168:test/ConsumerProducer_CPP_Sync_API_test.cpp ****     }
 1056              		.loc 1 168 9 is_stmt 1
 168:test/ConsumerProducer_CPP_Sync_API_test.cpp ****     }
 1057              		.loc 1 168 25 is_stmt 0
 1058 0544 97070000 		lla	a5,_ZL10waitForAll
 1058      93870700 
 1059 054c 03B50700 		ld	a0,0(a5)
 1060 0550 97000000 		call	_ZN9Semaphore4waitEv
 1060      E7800000 
 1061              	.LVL118:
 167:test/ConsumerProducer_CPP_Sync_API_test.cpp ****         waitForAll->wait();
 1062              		.loc 1 167 5
 1063 0558 9B841400 		addiw	s1,s1,1
 1064              	.LVL119:
 1065 055c 6FF05FFE 		j	.L49
 1066              	.LVL120:
 1067              	.L61:
 1068              	.LBE44:
 1069              	.LBB45:
 171:test/ConsumerProducer_CPP_Sync_API_test.cpp ****         delete threads[i];
 1070              		.loc 1 171 14
 1071 0560 93040000 		li	s1,0
 1072              	.LVL121:
 1073 0564 6F008000 		j	.L48
 1074              	.LVL122:
 1075              	.L51:
 171:test/ConsumerProducer_CPP_Sync_API_test.cpp ****         delete threads[i];
 1076              		.loc 1 171 5 discriminator 2
 1077 0568 9B841400 		addiw	s1,s1,1
GAS LISTING /tmp/ccy3jDNt.s 			page 27


 1078              	.LVL123:
 1079              	.L48:
 171:test/ConsumerProducer_CPP_Sync_API_test.cpp ****         delete threads[i];
 1080              		.loc 1 171 23 discriminator 1
 1081 056c 63D22403 		bge	s1,s2,.L50
 172:test/ConsumerProducer_CPP_Sync_API_test.cpp ****     }
 1082              		.loc 1 172 9 is_stmt 1
 172:test/ConsumerProducer_CPP_Sync_API_test.cpp ****     }
 1083              		.loc 1 172 25 is_stmt 0
 1084 0570 93973400 		slli	a5,s1,3
 1085 0574 B387F900 		add	a5,s3,a5
 1086 0578 03B50700 		ld	a0,0(a5)
 172:test/ConsumerProducer_CPP_Sync_API_test.cpp ****     }
 1087              		.loc 1 172 26
 1088 057c E30605FE 		beqz	a0,.L51
 172:test/ConsumerProducer_CPP_Sync_API_test.cpp ****     }
 1089              		.loc 1 172 25 discriminator 1
 1090 0580 83370500 		ld	a5,0(a0)
 1091 0584 83B78700 		ld	a5,8(a5)
 1092 0588 E7800700 		jalr	a5
 1093              	.LVL124:
 1094 058c 6FF0DFFD 		j	.L51
 1095              	.L50:
 1096              	.LBE45:
 174:test/ConsumerProducer_CPP_Sync_API_test.cpp ****     delete waitForAll;
 1097              		.loc 1 174 5 is_stmt 1
 174:test/ConsumerProducer_CPP_Sync_API_test.cpp ****     delete waitForAll;
 1098              		.loc 1 174 26 is_stmt 0
 1099 0590 638A0A00 		beqz	s5,.L52
 174:test/ConsumerProducer_CPP_Sync_API_test.cpp ****     delete waitForAll;
 1100              		.loc 1 174 12 discriminator 1
 1101 0594 83B70A00 		ld	a5,0(s5)
 1102 0598 83B78700 		ld	a5,8(a5)
 1103 059c 13850A00 		mv	a0,s5
 1104 05a0 E7800700 		jalr	a5
 1105              	.LVL125:
 1106              	.L52:
 175:test/ConsumerProducer_CPP_Sync_API_test.cpp ****     delete buffer;
 1107              		.loc 1 175 5 is_stmt 1
 175:test/ConsumerProducer_CPP_Sync_API_test.cpp ****     delete buffer;
 1108              		.loc 1 175 12 is_stmt 0
 1109 05a4 97070000 		lla	a5,_ZL10waitForAll
 1109      93870700 
 1110 05ac 03B50700 		ld	a0,0(a5)
 175:test/ConsumerProducer_CPP_Sync_API_test.cpp ****     delete buffer;
 1111              		.loc 1 175 22
 1112 05b0 63080500 		beqz	a0,.L53
 175:test/ConsumerProducer_CPP_Sync_API_test.cpp ****     delete buffer;
 1113              		.loc 1 175 12 discriminator 1
 1114 05b4 83370500 		ld	a5,0(a0)
 1115 05b8 83B78700 		ld	a5,8(a5)
 1116 05bc E7800700 		jalr	a5
 1117              	.LVL126:
 1118              	.L53:
 1119              		.loc 1 176 5 is_stmt 1
 1120              		.loc 1 176 18 is_stmt 0
 1121 05c0 630E0A00 		beqz	s4,.L54
GAS LISTING /tmp/ccy3jDNt.s 			page 28


 1122              		.loc 1 176 12 discriminator 1
 1123 05c4 13050A00 		mv	a0,s4
 1124 05c8 97000000 		call	_ZN9BufferCPPD1Ev
 1124      E7800000 
 1125              	.LVL127:
 1126 05d0 13050A00 		mv	a0,s4
 1127 05d4 97000000 		call	_ZdlPv
 1127      E7800000 
 1128              	.LVL128:
 1129              	.L54:
 1130 05dc 13010B00 		mv	sp,s6
 1131              	.LVL129:
 1132              	.L40:
 177:test/ConsumerProducer_CPP_Sync_API_test.cpp **** 
 178:test/ConsumerProducer_CPP_Sync_API_test.cpp **** }
 1133              		.loc 1 178 1
 1134 05e0 130104F8 		addi	sp,s0,-128
 1135              		.cfi_remember_state
 1136              		.cfi_def_cfa 2, 128
 1137 05e4 83308107 		ld	ra,120(sp)
 1138              		.cfi_restore 1
 1139 05e8 03340107 		ld	s0,112(sp)
 1140              		.cfi_restore 8
 1141 05ec 83348106 		ld	s1,104(sp)
 1142              		.cfi_restore 9
 1143 05f0 03390106 		ld	s2,96(sp)
 1144              		.cfi_restore 18
 1145              	.LVL130:
 1146 05f4 83398105 		ld	s3,88(sp)
 1147              		.cfi_restore 19
 1148 05f8 033A0105 		ld	s4,80(sp)
 1149              		.cfi_restore 20
 1150 05fc 833A8104 		ld	s5,72(sp)
 1151              		.cfi_restore 21
 1152 0600 033B0104 		ld	s6,64(sp)
 1153              		.cfi_restore 22
 1154 0604 833B8103 		ld	s7,56(sp)
 1155              		.cfi_restore 23
 1156 0608 033C0103 		ld	s8,48(sp)
 1157              		.cfi_restore 24
 1158 060c 833C8102 		ld	s9,40(sp)
 1159              		.cfi_restore 25
 1160 0610 13010108 		addi	sp,sp,128
 1161              		.cfi_def_cfa_offset 0
 1162 0614 67800000 		jr	ra
 1163              	.LVL131:
 1164              	.L62:
 1165              		.cfi_restore_state
 1166 0618 93040500 		mv	s1,a0
 1167              	.LVL132:
 136:test/ConsumerProducer_CPP_Sync_API_test.cpp **** 
 1168              		.loc 1 136 40
 1169 061c 13050A00 		mv	a0,s4
 1170 0620 97000000 		call	_ZdlPv
 1170      E7800000 
 1171              	.LVL133:
 1172 0628 13850400 		mv	a0,s1
GAS LISTING /tmp/ccy3jDNt.s 			page 29


 1173 062c 97000000 		call	_Unwind_Resume
 1173      E7800000 
 1174              	.LVL134:
 1175              	.L63:
 1176 0634 13090500 		mv	s2,a0
 1177              	.LVL135:
 138:test/ConsumerProducer_CPP_Sync_API_test.cpp **** 
 1178              		.loc 1 138 33
 1179 0638 13850400 		mv	a0,s1
 1180 063c 97000000 		call	_ZdlPv
 1180      E7800000 
 1181              	.LVL136:
 1182 0644 13050900 		mv	a0,s2
 1183 0648 97000000 		call	_Unwind_Resume
 1183      E7800000 
 1184              	.LVL137:
 1185              	.L64:
 1186 0650 93040500 		mv	s1,a0
 1187              	.LVL138:
 148:test/ConsumerProducer_CPP_Sync_API_test.cpp ****     consumerThread->start();
 1188              		.loc 1 148 53
 1189 0654 13850A00 		mv	a0,s5
 1190 0658 97000000 		call	_ZdlPv
 1190      E7800000 
 1191              	.LVL139:
 1192 0660 13850400 		mv	a0,s1
 1193 0664 97000000 		call	_Unwind_Resume
 1193      E7800000 
 1194              	.LVL140:
 1195              	.L65:
 1196 066c 93040500 		mv	s1,a0
 1197              	.LVL141:
 1198              	.LBB46:
 157:test/ConsumerProducer_CPP_Sync_API_test.cpp ****         } else {
 1199              		.loc 1 157 49
 1200 0670 13850C00 		mv	a0,s9
 1201 0674 97000000 		call	_ZdlPv
 1201      E7800000 
 1202              	.LVL142:
 1203 067c 13850400 		mv	a0,s1
 1204 0680 97000000 		call	_Unwind_Resume
 1204      E7800000 
 1205              	.LVL143:
 1206              	.L66:
 1207 0688 93040500 		mv	s1,a0
 1208              	.LVL144:
 159:test/ConsumerProducer_CPP_Sync_API_test.cpp ****         }
 1209              		.loc 1 159 53
 1210 068c 13850C00 		mv	a0,s9
 1211 0690 97000000 		call	_ZdlPv
 1211      E7800000 
 1212              	.LVL145:
 1213 0698 13850400 		mv	a0,s1
 1214 069c 97000000 		call	_Unwind_Resume
 1214      E7800000 
 1215              	.LVL146:
 1216              	.LEHE10:
GAS LISTING /tmp/ccy3jDNt.s 			page 30


 1217              	.LBE46:
 1218              		.cfi_endproc
 1219              	.LFE50:
 1220              		.globl	__gxx_personality_v0
 1221              		.section	.gcc_except_table,"a",@progbits
 1222              	.LLSDA50:
 1223 0000 FF       		.byte	0xff
 1224 0001 FF       		.byte	0xff
 1225 0002 03       		.byte	0x3
 1226 0003 8F01     		.byte	0x8f,0x1
 1227 0005 00000000 		.4byte	.LEHB0-.LFB50
 1228 0009 00000000 		.4byte	.LEHE0-.LEHB0
 1229 000d 00000000 		.4byte	0
 1230 0011 00       		.byte	0
 1231 0012 00000000 		.4byte	.LEHB1-.LFB50
 1232 0016 00000000 		.4byte	.LEHE1-.LEHB1
 1233 001a 00000000 		.4byte	.L62-.LFB50
 1234 001e 00       		.byte	0
 1235 001f 00000000 		.4byte	.LEHB2-.LFB50
 1236 0023 00000000 		.4byte	.LEHE2-.LEHB2
 1237 0027 00000000 		.4byte	0
 1238 002b 00       		.byte	0
 1239 002c 00000000 		.4byte	.LEHB3-.LFB50
 1240 0030 00000000 		.4byte	.LEHE3-.LEHB3
 1241 0034 00000000 		.4byte	.L63-.LFB50
 1242 0038 00       		.byte	0
 1243 0039 00000000 		.4byte	.LEHB4-.LFB50
 1244 003d 00000000 		.4byte	.LEHE4-.LEHB4
 1245 0041 00000000 		.4byte	0
 1246 0045 00       		.byte	0
 1247 0046 00000000 		.4byte	.LEHB5-.LFB50
 1248 004a 00000000 		.4byte	.LEHE5-.LEHB5
 1249 004e 00000000 		.4byte	.L64-.LFB50
 1250 0052 00       		.byte	0
 1251 0053 00000000 		.4byte	.LEHB6-.LFB50
 1252 0057 00000000 		.4byte	.LEHE6-.LEHB6
 1253 005b 00000000 		.4byte	0
 1254 005f 00       		.byte	0
 1255 0060 00000000 		.4byte	.LEHB7-.LFB50
 1256 0064 00000000 		.4byte	.LEHE7-.LEHB7
 1257 0068 00000000 		.4byte	.L65-.LFB50
 1258 006c 00       		.byte	0
 1259 006d 00000000 		.4byte	.LEHB8-.LFB50
 1260 0071 00000000 		.4byte	.LEHE8-.LEHB8
 1261 0075 00000000 		.4byte	0
 1262 0079 00       		.byte	0
 1263 007a 00000000 		.4byte	.LEHB9-.LFB50
 1264 007e 00000000 		.4byte	.LEHE9-.LEHB9
 1265 0082 00000000 		.4byte	.L66-.LFB50
 1266 0086 00       		.byte	0
 1267 0087 00000000 		.4byte	.LEHB10-.LFB50
 1268 008b 00000000 		.4byte	.LEHE10-.LEHB10
 1269 008f 00000000 		.4byte	0
 1270 0093 00       		.byte	0
 1271              		.text
 1273              		.weak	_ZTV16ProducerKeyboard
 1274              		.section	.rodata._ZTV16ProducerKeyboard,"aG",@progbits,_ZTV16ProducerKeyboard,comdat
GAS LISTING /tmp/ccy3jDNt.s 			page 31


 1275              		.align	3
 1278              	_ZTV16ProducerKeyboard:
 1279 0000 00000000 		.dword	0
 1279      00000000 
 1280 0008 00000000 		.dword	0
 1280      00000000 
 1281 0010 00000000 		.dword	_ZN16ProducerKeyboardD1Ev
 1281      00000000 
 1282 0018 00000000 		.dword	_ZN16ProducerKeyboardD0Ev
 1282      00000000 
 1283 0020 00000000 		.dword	_ZN16ProducerKeyboard3runEv
 1283      00000000 
 1284              		.weak	_ZTV12ProducerSync
 1285              		.section	.rodata._ZTV12ProducerSync,"aG",@progbits,_ZTV12ProducerSync,comdat
 1286              		.align	3
 1289              	_ZTV12ProducerSync:
 1290 0000 00000000 		.dword	0
 1290      00000000 
 1291 0008 00000000 		.dword	0
 1291      00000000 
 1292 0010 00000000 		.dword	_ZN12ProducerSyncD1Ev
 1292      00000000 
 1293 0018 00000000 		.dword	_ZN12ProducerSyncD0Ev
 1293      00000000 
 1294 0020 00000000 		.dword	_ZN12ProducerSync3runEv
 1294      00000000 
 1295              		.weak	_ZTV12ConsumerSync
 1296              		.section	.rodata._ZTV12ConsumerSync,"aG",@progbits,_ZTV12ConsumerSync,comdat
 1297              		.align	3
 1300              	_ZTV12ConsumerSync:
 1301 0000 00000000 		.dword	0
 1301      00000000 
 1302 0008 00000000 		.dword	0
 1302      00000000 
 1303 0010 00000000 		.dword	_ZN12ConsumerSyncD1Ev
 1303      00000000 
 1304 0018 00000000 		.dword	_ZN12ConsumerSyncD0Ev
 1304      00000000 
 1305 0020 00000000 		.dword	_ZN12ConsumerSync3runEv
 1305      00000000 
 1306              		.section	.rodata.str1.8,"aMS",@progbits,1
 1307              		.align	3
 1308              	.LC0:
 1309 0000 556E6573 		.string	"Unesite broj proizvodjaca?\n"
 1309      69746520 
 1309      62726F6A 
 1309      2070726F 
 1309      697A766F 
 1310 001c 00000000 		.zero	4
 1311              	.LC1:
 1312 0020 556E6573 		.string	"Unesite velicinu bafera?\n"
 1312      69746520 
 1312      76656C69 
 1312      63696E75 
 1312      20626166 
 1313 003a 00000000 		.zero	6
 1313      0000
GAS LISTING /tmp/ccy3jDNt.s 			page 32


 1314              	.LC2:
 1315 0040 42726F6A 		.string	"Broj proizvodjaca "
 1315      2070726F 
 1315      697A766F 
 1315      646A6163 
 1315      612000
 1316 0053 00000000 		.zero	5
 1316      00
 1317              	.LC3:
 1318 0058 20692076 		.string	" i velicina bafera "
 1318      656C6963 
 1318      696E6120 
 1318      62616665 
 1318      72612000 
 1319 006c 00000000 		.zero	4
 1320              	.LC4:
 1321 0070 2E0A00   		.string	".\n"
 1322 0073 00000000 		.zero	5
 1322      00
 1323              	.LC5:
 1324 0078 42726F6A 		.string	"Broj proizvodjaca ne sme biti manji od velicine bafera!\n"
 1324      2070726F 
 1324      697A766F 
 1324      646A6163 
 1324      61206E65 
 1325 00b1 00000000 		.zero	7
 1325      000000
 1326              	.LC6:
 1327 00b8 42726F6A 		.string	"Broj proizvodjaca mora biti veci od nula!\n"
 1327      2070726F 
 1327      697A766F 
 1327      646A6163 
 1327      61206D6F 
 1328              		.section	.sbss,"aw",@nobits
 1329              		.align	3
 1332              	_ZL9threadEnd:
 1333 0000 00000000 		.zero	4
 1334 0004 00000000 		.zero	4
 1337              	_ZL10waitForAll:
 1338 0008 00000000 		.zero	8
 1338      00000000 
 1339              		.text
 1340              	.Letext0:
 1341              		.file 2 "test/../h/../lib/hw.h"
 1342              		.file 3 "test/../h/syscall_cpp.hpp"
 1343              		.file 4 "test/buffer_CPP_API.hpp"
 1344              		.file 5 "test/../h/syscall_c.hpp"
 1345              		.file 6 "test/printing.hpp"
 5304              		.align	3
 5307              	DW.ref.__gxx_personality_v0:
 5308 0000 00000000 		.dword	__gxx_personality_v0
 5308      00000000 
 5309              		.ident	"GCC: (GNU) 8.3.0"
GAS LISTING /tmp/ccy3jDNt.s 			page 33

