GAS LISTING /tmp/ccbrmvuT.s 			page 1


   1              		.file	"ConsumerProducer_C_API_test.cpp"
   2              		.option nopic
   3              		.option norelax
   4              		.text
   5              	.Ltext0:
   6              		.align	2
   8              	_ZL16producerKeyboardPv:
   9              	.LFB32:
  10              		.file 1 "test/ConsumerProducer_C_API_test.cpp"
   1:test/ConsumerProducer_C_API_test.cpp **** 
   2:test/ConsumerProducer_C_API_test.cpp **** #include "../h/syscall_c.hpp"
   3:test/ConsumerProducer_C_API_test.cpp **** 
   4:test/ConsumerProducer_C_API_test.cpp **** #include "buffer.hpp"
   5:test/ConsumerProducer_C_API_test.cpp **** 
   6:test/ConsumerProducer_C_API_test.cpp **** static sem_t waitForAll;
   7:test/ConsumerProducer_C_API_test.cpp **** 
   8:test/ConsumerProducer_C_API_test.cpp **** struct thread_data {
   9:test/ConsumerProducer_C_API_test.cpp ****     int id;
  10:test/ConsumerProducer_C_API_test.cpp ****     Buffer *buffer;
  11:test/ConsumerProducer_C_API_test.cpp ****     sem_t wait;
  12:test/ConsumerProducer_C_API_test.cpp **** };
  13:test/ConsumerProducer_C_API_test.cpp **** 
  14:test/ConsumerProducer_C_API_test.cpp **** static volatile int threadEnd = 0;
  15:test/ConsumerProducer_C_API_test.cpp **** 
  16:test/ConsumerProducer_C_API_test.cpp **** static void producerKeyboard(void *arg) {
  11              		.loc 1 16 41
  12              		.cfi_startproc
  13              	.LVL0:
  14 0000 130101FE 		addi	sp,sp,-32
  15              		.cfi_def_cfa_offset 32
  16 0004 233C1100 		sd	ra,24(sp)
  17 0008 23388100 		sd	s0,16(sp)
  18 000c 23349100 		sd	s1,8(sp)
  19 0010 23302101 		sd	s2,0(sp)
  20              		.cfi_offset 1, -8
  21              		.cfi_offset 8, -16
  22              		.cfi_offset 9, -24
  23              		.cfi_offset 18, -32
  24 0014 13040102 		addi	s0,sp,32
  25              		.cfi_def_cfa 8, 0
  26 0018 93040500 		mv	s1,a0
  17:test/ConsumerProducer_C_API_test.cpp ****     struct thread_data *data = (struct thread_data *) arg;
  27              		.loc 1 17 5
  28              	.LVL1:
  18:test/ConsumerProducer_C_API_test.cpp **** 
  19:test/ConsumerProducer_C_API_test.cpp ****     int key;
  29              		.loc 1 19 5
  20:test/ConsumerProducer_C_API_test.cpp ****     int i = 0;
  30              		.loc 1 20 5
  31              		.loc 1 20 9 is_stmt 0
  32 001c 13090000 		li	s2,0
  33 0020 6F00C000 		j	.L2
  34              	.LVL2:
  35              	.L6:
  21:test/ConsumerProducer_C_API_test.cpp ****     while ((key = getc()) != 0x1b) {
  22:test/ConsumerProducer_C_API_test.cpp ****         data->buffer->put(key);
  23:test/ConsumerProducer_C_API_test.cpp ****         i++;
GAS LISTING /tmp/ccbrmvuT.s 			page 2


  24:test/ConsumerProducer_C_API_test.cpp **** 
  25:test/ConsumerProducer_C_API_test.cpp ****         if (i % (10 * data->id) == 0) {
  26:test/ConsumerProducer_C_API_test.cpp ****             thread_dispatch();
  36              		.loc 1 26 13 is_stmt 1
  37              		.loc 1 26 28 is_stmt 0
  38 0024 97000000 		call	_Z15thread_dispatchv
  38      E7800000 
  39              	.LVL3:
  40              	.L2:
  21:test/ConsumerProducer_C_API_test.cpp ****     while ((key = getc()) != 0x1b) {
  41              		.loc 1 21 5 is_stmt 1
  21:test/ConsumerProducer_C_API_test.cpp ****     while ((key = getc()) != 0x1b) {
  42              		.loc 1 21 23 is_stmt 0
  43 002c 97000000 		call	_Z4getcv
  43      E7800000 
  44              	.LVL4:
  21:test/ConsumerProducer_C_API_test.cpp ****     while ((key = getc()) != 0x1b) {
  45              		.loc 1 21 17
  46 0034 9B050500 		sext.w	a1,a0
  47              	.LVL5:
  21:test/ConsumerProducer_C_API_test.cpp ****     while ((key = getc()) != 0x1b) {
  48              		.loc 1 21 27
  49 0038 9307B001 		li	a5,27
  50 003c 638AF502 		beq	a1,a5,.L3
  22:test/ConsumerProducer_C_API_test.cpp ****         i++;
  51              		.loc 1 22 9 is_stmt 1
  22:test/ConsumerProducer_C_API_test.cpp ****         i++;
  52              		.loc 1 22 26 is_stmt 0
  53 0040 03B58400 		ld	a0,8(s1)
  54 0044 97000000 		call	_ZN6Buffer3putEi
  54      E7800000 
  55              	.LVL6:
  23:test/ConsumerProducer_C_API_test.cpp **** 
  56              		.loc 1 23 9 is_stmt 1
  23:test/ConsumerProducer_C_API_test.cpp **** 
  57              		.loc 1 23 10 is_stmt 0
  58 004c 9B071900 		addiw	a5,s2,1
  59 0050 1B890700 		sext.w	s2,a5
  60              	.LVL7:
  25:test/ConsumerProducer_C_API_test.cpp ****             thread_dispatch();
  61              		.loc 1 25 9 is_stmt 1
  25:test/ConsumerProducer_C_API_test.cpp ****             thread_dispatch();
  62              		.loc 1 25 29 is_stmt 0
  63 0054 83A60400 		lw	a3,0(s1)
  25:test/ConsumerProducer_C_API_test.cpp ****             thread_dispatch();
  64              		.loc 1 25 21
  65 0058 1B972600 		slliw	a4,a3,2
  66 005c 3B07D700 		addw	a4,a4,a3
  67 0060 9B161700 		slliw	a3,a4,1
  25:test/ConsumerProducer_C_API_test.cpp ****             thread_dispatch();
  68              		.loc 1 25 15
  69 0064 BBE7D702 		remw	a5,a5,a3
  70              	.LVL8:
  25:test/ConsumerProducer_C_API_test.cpp ****             thread_dispatch();
  71              		.loc 1 25 9
  72 0068 E39207FC 		bnez	a5,.L2
  73 006c 6FF09FFB 		j	.L6
GAS LISTING /tmp/ccbrmvuT.s 			page 3


  74              	.LVL9:
  75              	.L3:
  27:test/ConsumerProducer_C_API_test.cpp ****         }
  28:test/ConsumerProducer_C_API_test.cpp ****     }
  29:test/ConsumerProducer_C_API_test.cpp **** 
  30:test/ConsumerProducer_C_API_test.cpp ****     threadEnd = 1;
  76              		.loc 1 30 5 is_stmt 1
  77              		.loc 1 30 15 is_stmt 0
  78 0070 93071000 		li	a5,1
  79 0074 17070000 		sw	a5,_ZL9threadEnd,a4
  79      2320F700 
  31:test/ConsumerProducer_C_API_test.cpp ****     data->buffer->put('!');
  80              		.loc 1 31 5 is_stmt 1
  81              		.loc 1 31 22 is_stmt 0
  82 007c 93051002 		li	a1,33
  83              	.LVL10:
  84 0080 03B58400 		ld	a0,8(s1)
  85              	.LVL11:
  86 0084 97000000 		call	_ZN6Buffer3putEi
  86      E7800000 
  87              	.LVL12:
  32:test/ConsumerProducer_C_API_test.cpp **** 
  33:test/ConsumerProducer_C_API_test.cpp ****     sem_signal(data->wait);
  88              		.loc 1 33 5 is_stmt 1
  89              		.loc 1 33 15 is_stmt 0
  90 008c 03B50401 		ld	a0,16(s1)
  91 0090 97000000 		call	_Z10sem_signalP5mySem
  91      E7800000 
  92              	.LVL13:
  34:test/ConsumerProducer_C_API_test.cpp **** }
  93              		.loc 1 34 1
  94 0098 83308101 		ld	ra,24(sp)
  95              		.cfi_restore 1
  96 009c 03340101 		ld	s0,16(sp)
  97              		.cfi_restore 8
  98 00a0 83348100 		ld	s1,8(sp)
  99              		.cfi_restore 9
 100              	.LVL14:
 101 00a4 03390100 		ld	s2,0(sp)
 102              		.cfi_restore 18
 103              	.LVL15:
 104 00a8 13010102 		addi	sp,sp,32
 105              		.cfi_def_cfa_register 2
 106 00ac 67800000 		jr	ra
 107              		.cfi_endproc
 108              	.LFE32:
 110              		.align	2
 112              	_ZL8producerPv:
 113              	.LFB33:
  35:test/ConsumerProducer_C_API_test.cpp **** 
  36:test/ConsumerProducer_C_API_test.cpp **** static void producer(void *arg) {
 114              		.loc 1 36 33 is_stmt 1
 115              		.cfi_startproc
 116              	.LVL16:
 117 00b0 130101FE 		addi	sp,sp,-32
 118              		.cfi_def_cfa_offset 32
 119 00b4 233C1100 		sd	ra,24(sp)
GAS LISTING /tmp/ccbrmvuT.s 			page 4


 120 00b8 23388100 		sd	s0,16(sp)
 121 00bc 23349100 		sd	s1,8(sp)
 122 00c0 23302101 		sd	s2,0(sp)
 123              		.cfi_offset 1, -8
 124              		.cfi_offset 8, -16
 125              		.cfi_offset 9, -24
 126              		.cfi_offset 18, -32
 127 00c4 13040102 		addi	s0,sp,32
 128              		.cfi_def_cfa 8, 0
 129 00c8 93040500 		mv	s1,a0
  37:test/ConsumerProducer_C_API_test.cpp ****     struct thread_data *data = (struct thread_data *) arg;
 130              		.loc 1 37 5
 131              	.LVL17:
  38:test/ConsumerProducer_C_API_test.cpp **** 
  39:test/ConsumerProducer_C_API_test.cpp ****     int i = 0;
 132              		.loc 1 39 5
 133              		.loc 1 39 9 is_stmt 0
 134 00cc 13090000 		li	s2,0
 135 00d0 6F00C000 		j	.L8
 136              	.LVL18:
 137              	.L12:
  40:test/ConsumerProducer_C_API_test.cpp ****     while (!threadEnd) {
  41:test/ConsumerProducer_C_API_test.cpp ****         data->buffer->put(data->id + '0');
  42:test/ConsumerProducer_C_API_test.cpp ****         i++;
  43:test/ConsumerProducer_C_API_test.cpp **** 
  44:test/ConsumerProducer_C_API_test.cpp ****         if (i % (10 * data->id) == 0) {
  45:test/ConsumerProducer_C_API_test.cpp ****             thread_dispatch();
 138              		.loc 1 45 13 is_stmt 1
 139              		.loc 1 45 28 is_stmt 0
 140 00d4 97000000 		call	_Z15thread_dispatchv
 140      E7800000 
 141              	.LVL19:
 142              	.L8:
  40:test/ConsumerProducer_C_API_test.cpp ****     while (!threadEnd) {
 143              		.loc 1 40 5 is_stmt 1
  40:test/ConsumerProducer_C_API_test.cpp ****     while (!threadEnd) {
 144              		.loc 1 40 12 is_stmt 0
 145 00dc 97070000 		lla	a5,_ZL9threadEnd
 145      93870700 
 146 00e4 83A70700 		lw	a5,0(a5)
 147 00e8 9B870700 		sext.w	a5,a5
 148 00ec 639E0702 		bnez	a5,.L9
  41:test/ConsumerProducer_C_API_test.cpp ****         i++;
 149              		.loc 1 41 9 is_stmt 1
  41:test/ConsumerProducer_C_API_test.cpp ****         i++;
 150              		.loc 1 41 33 is_stmt 0
 151 00f0 83A50400 		lw	a1,0(s1)
  41:test/ConsumerProducer_C_API_test.cpp ****         i++;
 152              		.loc 1 41 26
 153 00f4 9B850503 		addiw	a1,a1,48
 154 00f8 03B58400 		ld	a0,8(s1)
 155 00fc 97000000 		call	_ZN6Buffer3putEi
 155      E7800000 
 156              	.LVL20:
  42:test/ConsumerProducer_C_API_test.cpp **** 
 157              		.loc 1 42 9 is_stmt 1
  42:test/ConsumerProducer_C_API_test.cpp **** 
GAS LISTING /tmp/ccbrmvuT.s 			page 5


 158              		.loc 1 42 10 is_stmt 0
 159 0104 9B071900 		addiw	a5,s2,1
 160 0108 1B890700 		sext.w	s2,a5
 161              	.LVL21:
  44:test/ConsumerProducer_C_API_test.cpp ****             thread_dispatch();
 162              		.loc 1 44 9 is_stmt 1
  44:test/ConsumerProducer_C_API_test.cpp ****             thread_dispatch();
 163              		.loc 1 44 29 is_stmt 0
 164 010c 83A60400 		lw	a3,0(s1)
  44:test/ConsumerProducer_C_API_test.cpp ****             thread_dispatch();
 165              		.loc 1 44 21
 166 0110 1B972600 		slliw	a4,a3,2
 167 0114 3B07D700 		addw	a4,a4,a3
 168 0118 9B161700 		slliw	a3,a4,1
  44:test/ConsumerProducer_C_API_test.cpp ****             thread_dispatch();
 169              		.loc 1 44 15
 170 011c BBE7D702 		remw	a5,a5,a3
 171              	.LVL22:
  44:test/ConsumerProducer_C_API_test.cpp ****             thread_dispatch();
 172              		.loc 1 44 9
 173 0120 E39E07FA 		bnez	a5,.L8
 174 0124 6FF01FFB 		j	.L12
 175              	.L9:
  46:test/ConsumerProducer_C_API_test.cpp ****         }
  47:test/ConsumerProducer_C_API_test.cpp ****     }
  48:test/ConsumerProducer_C_API_test.cpp **** 
  49:test/ConsumerProducer_C_API_test.cpp ****     sem_signal(data->wait);
 176              		.loc 1 49 5 is_stmt 1
 177              		.loc 1 49 15 is_stmt 0
 178 0128 03B50401 		ld	a0,16(s1)
 179 012c 97000000 		call	_Z10sem_signalP5mySem
 179      E7800000 
 180              	.LVL23:
  50:test/ConsumerProducer_C_API_test.cpp **** }
 181              		.loc 1 50 1
 182 0134 83308101 		ld	ra,24(sp)
 183              		.cfi_restore 1
 184 0138 03340101 		ld	s0,16(sp)
 185              		.cfi_restore 8
 186 013c 83348100 		ld	s1,8(sp)
 187              		.cfi_restore 9
 188              	.LVL24:
 189 0140 03390100 		ld	s2,0(sp)
 190              		.cfi_restore 18
 191              	.LVL25:
 192 0144 13010102 		addi	sp,sp,32
 193              		.cfi_def_cfa_register 2
 194 0148 67800000 		jr	ra
 195              		.cfi_endproc
 196              	.LFE33:
 198              		.align	2
 200              	_ZL8consumerPv:
 201              	.LFB34:
  51:test/ConsumerProducer_C_API_test.cpp **** 
  52:test/ConsumerProducer_C_API_test.cpp **** static void consumer(void *arg) {
 202              		.loc 1 52 33 is_stmt 1
 203              		.cfi_startproc
GAS LISTING /tmp/ccbrmvuT.s 			page 6


 204              	.LVL26:
 205 014c 130101FD 		addi	sp,sp,-48
 206              		.cfi_def_cfa_offset 48
 207 0150 23341102 		sd	ra,40(sp)
 208 0154 23308102 		sd	s0,32(sp)
 209 0158 233C9100 		sd	s1,24(sp)
 210 015c 23382101 		sd	s2,16(sp)
 211 0160 23343101 		sd	s3,8(sp)
 212              		.cfi_offset 1, -8
 213              		.cfi_offset 8, -16
 214              		.cfi_offset 9, -24
 215              		.cfi_offset 18, -32
 216              		.cfi_offset 19, -40
 217 0164 13040103 		addi	s0,sp,48
 218              		.cfi_def_cfa 8, 0
 219 0168 13090500 		mv	s2,a0
  53:test/ConsumerProducer_C_API_test.cpp ****     struct thread_data *data = (struct thread_data *) arg;
 220              		.loc 1 53 5
 221              	.LVL27:
  54:test/ConsumerProducer_C_API_test.cpp **** 
  55:test/ConsumerProducer_C_API_test.cpp ****     int i = 0;
 222              		.loc 1 55 5
 223              		.loc 1 55 9 is_stmt 0
 224 016c 93090000 		li	s3,0
 225 0170 6F00C001 		j	.L14
 226              	.LVL28:
 227              	.L20:
 228              	.LBB2:
  56:test/ConsumerProducer_C_API_test.cpp ****     while (!threadEnd) {
  57:test/ConsumerProducer_C_API_test.cpp ****         int key = data->buffer->get();
  58:test/ConsumerProducer_C_API_test.cpp ****         i++;
  59:test/ConsumerProducer_C_API_test.cpp **** 
  60:test/ConsumerProducer_C_API_test.cpp ****         putc(key);
  61:test/ConsumerProducer_C_API_test.cpp **** 
  62:test/ConsumerProducer_C_API_test.cpp ****         if (i % (5 * data->id) == 0) {
  63:test/ConsumerProducer_C_API_test.cpp ****             thread_dispatch();
 229              		.loc 1 63 13 is_stmt 1
 230              		.loc 1 63 28 is_stmt 0
 231 0174 97000000 		call	_Z15thread_dispatchv
 231      E7800000 
 232              	.LVL29:
 233 017c 6F008005 		j	.L16
 234              	.LVL30:
 235              	.L21:
  64:test/ConsumerProducer_C_API_test.cpp ****         }
  65:test/ConsumerProducer_C_API_test.cpp **** 
  66:test/ConsumerProducer_C_API_test.cpp ****         if (i % 80 == 0) {
  67:test/ConsumerProducer_C_API_test.cpp ****             putc('\n');
 236              		.loc 1 67 13 is_stmt 1
 237              		.loc 1 67 17 is_stmt 0
 238 0180 1305A000 		li	a0,10
 239 0184 97000000 		call	_Z4putcc
 239      E7800000 
 240              	.LVL31:
 241              	.L14:
 242              	.LBE2:
  56:test/ConsumerProducer_C_API_test.cpp ****     while (!threadEnd) {
GAS LISTING /tmp/ccbrmvuT.s 			page 7


 243              		.loc 1 56 5 is_stmt 1
  56:test/ConsumerProducer_C_API_test.cpp ****     while (!threadEnd) {
 244              		.loc 1 56 12 is_stmt 0
 245 018c 97070000 		lla	a5,_ZL9threadEnd
 245      93870700 
 246 0194 83A70700 		lw	a5,0(a5)
 247 0198 9B870700 		sext.w	a5,a5
 248 019c 63940704 		bnez	a5,.L15
 249              	.LBB3:
  57:test/ConsumerProducer_C_API_test.cpp ****         i++;
 250              		.loc 1 57 9 is_stmt 1
  57:test/ConsumerProducer_C_API_test.cpp ****         i++;
 251              		.loc 1 57 36 is_stmt 0
 252 01a0 03358900 		ld	a0,8(s2)
 253 01a4 97000000 		call	_ZN6Buffer3getEv
 253      E7800000 
 254              	.LVL32:
  58:test/ConsumerProducer_C_API_test.cpp **** 
 255              		.loc 1 58 9 is_stmt 1
  58:test/ConsumerProducer_C_API_test.cpp **** 
 256              		.loc 1 58 10 is_stmt 0
 257 01ac 9B841900 		addiw	s1,s3,1
 258 01b0 9B890400 		sext.w	s3,s1
 259              	.LVL33:
  60:test/ConsumerProducer_C_API_test.cpp **** 
 260              		.loc 1 60 9 is_stmt 1
  60:test/ConsumerProducer_C_API_test.cpp **** 
 261              		.loc 1 60 13 is_stmt 0
 262 01b4 1375F50F 		andi	a0,a0,0xff
 263              	.LVL34:
 264 01b8 97000000 		call	_Z4putcc
 264      E7800000 
 265              	.LVL35:
  62:test/ConsumerProducer_C_API_test.cpp ****             thread_dispatch();
 266              		.loc 1 62 9 is_stmt 1
  62:test/ConsumerProducer_C_API_test.cpp ****             thread_dispatch();
 267              		.loc 1 62 28 is_stmt 0
 268 01c0 03270900 		lw	a4,0(s2)
  62:test/ConsumerProducer_C_API_test.cpp ****             thread_dispatch();
 269              		.loc 1 62 20
 270 01c4 9B172700 		slliw	a5,a4,2
 271 01c8 BB87E700 		addw	a5,a5,a4
  62:test/ConsumerProducer_C_API_test.cpp ****             thread_dispatch();
 272              		.loc 1 62 15
 273 01cc BBE7F402 		remw	a5,s1,a5
  62:test/ConsumerProducer_C_API_test.cpp ****             thread_dispatch();
 274              		.loc 1 62 9
 275 01d0 E38207FA 		beqz	a5,.L20
 276              	.L16:
  66:test/ConsumerProducer_C_API_test.cpp ****             putc('\n');
 277              		.loc 1 66 9 is_stmt 1
  66:test/ConsumerProducer_C_API_test.cpp ****             putc('\n');
 278              		.loc 1 66 15 is_stmt 0
 279 01d4 93070005 		li	a5,80
 280 01d8 BBE4F402 		remw	s1,s1,a5
 281              	.LVL36:
  66:test/ConsumerProducer_C_API_test.cpp ****             putc('\n');
GAS LISTING /tmp/ccbrmvuT.s 			page 8


 282              		.loc 1 66 9
 283 01dc E39804FA 		bnez	s1,.L14
 284 01e0 6FF01FFA 		j	.L21
 285              	.L15:
 286              	.LBE3:
  68:test/ConsumerProducer_C_API_test.cpp ****         }
  69:test/ConsumerProducer_C_API_test.cpp ****     }
  70:test/ConsumerProducer_C_API_test.cpp **** 
  71:test/ConsumerProducer_C_API_test.cpp ****     while (data->buffer->getCnt() > 0) {
 287              		.loc 1 71 5 is_stmt 1
 288              		.loc 1 71 32 is_stmt 0
 289 01e4 03358900 		ld	a0,8(s2)
 290 01e8 97000000 		call	_ZN6Buffer6getCntEv
 290      E7800000 
 291              	.LVL37:
 292              		.loc 1 71 35
 293 01f0 6350A002 		blez	a0,.L18
 294              	.LBB4:
  72:test/ConsumerProducer_C_API_test.cpp ****         int key = data->buffer->get();
 295              		.loc 1 72 9 is_stmt 1
 296              		.loc 1 72 36 is_stmt 0
 297 01f4 03358900 		ld	a0,8(s2)
 298 01f8 97000000 		call	_ZN6Buffer3getEv
 298      E7800000 
 299              	.LVL38:
  73:test/ConsumerProducer_C_API_test.cpp ****         putc(key);
 300              		.loc 1 73 9 is_stmt 1
 301              		.loc 1 73 13 is_stmt 0
 302 0200 1375F50F 		andi	a0,a0,0xff
 303              	.LVL39:
 304 0204 97000000 		call	_Z4putcc
 304      E7800000 
 305              	.LVL40:
 306              	.LBE4:
  71:test/ConsumerProducer_C_API_test.cpp ****         int key = data->buffer->get();
 307              		.loc 1 71 5
 308 020c 6FF09FFD 		j	.L15
 309              	.L18:
  74:test/ConsumerProducer_C_API_test.cpp ****     }
  75:test/ConsumerProducer_C_API_test.cpp **** 
  76:test/ConsumerProducer_C_API_test.cpp ****     sem_signal(data->wait);
 310              		.loc 1 76 5 is_stmt 1
 311              		.loc 1 76 15 is_stmt 0
 312 0210 03350901 		ld	a0,16(s2)
 313 0214 97000000 		call	_Z10sem_signalP5mySem
 313      E7800000 
 314              	.LVL41:
  77:test/ConsumerProducer_C_API_test.cpp **** }
 315              		.loc 1 77 1
 316 021c 83308102 		ld	ra,40(sp)
 317              		.cfi_restore 1
 318 0220 03340102 		ld	s0,32(sp)
 319              		.cfi_restore 8
 320 0224 83348101 		ld	s1,24(sp)
 321              		.cfi_restore 9
 322 0228 03390101 		ld	s2,16(sp)
 323              		.cfi_restore 18
GAS LISTING /tmp/ccbrmvuT.s 			page 9


 324              	.LVL42:
 325 022c 83398100 		ld	s3,8(sp)
 326              		.cfi_restore 19
 327              	.LVL43:
 328 0230 13010103 		addi	sp,sp,48
 329              		.cfi_def_cfa_register 2
 330 0234 67800000 		jr	ra
 331              		.cfi_endproc
 332              	.LFE34:
 334              		.align	2
 335              		.globl	_Z22producerConsumer_C_APIv
 337              	_Z22producerConsumer_C_APIv:
 338              	.LFB35:
  78:test/ConsumerProducer_C_API_test.cpp **** 
  79:test/ConsumerProducer_C_API_test.cpp **** void producerConsumer_C_API() {
 339              		.loc 1 79 31 is_stmt 1
 340              		.cfi_startproc
 341              		.cfi_personality 0x9b,DW.ref.__gxx_personality_v0
 342              		.cfi_lsda 0x1b,.LLSDA35
 343 0238 130101F9 		addi	sp,sp,-112
 344              		.cfi_def_cfa_offset 112
 345 023c 23341106 		sd	ra,104(sp)
 346 0240 23308106 		sd	s0,96(sp)
 347 0244 233C9104 		sd	s1,88(sp)
 348 0248 23382105 		sd	s2,80(sp)
 349 024c 23343105 		sd	s3,72(sp)
 350 0250 23304105 		sd	s4,64(sp)
 351 0254 233C5103 		sd	s5,56(sp)
 352 0258 23386103 		sd	s6,48(sp)
 353              		.cfi_offset 1, -8
 354              		.cfi_offset 8, -16
 355              		.cfi_offset 9, -24
 356              		.cfi_offset 18, -32
 357              		.cfi_offset 19, -40
 358              		.cfi_offset 20, -48
 359              		.cfi_offset 21, -56
 360              		.cfi_offset 22, -64
 361 025c 13040107 		addi	s0,sp,112
 362              		.cfi_def_cfa 8, 0
  80:test/ConsumerProducer_C_API_test.cpp ****     char input[30];
  81:test/ConsumerProducer_C_API_test.cpp ****     int n, threadNum;
  82:test/ConsumerProducer_C_API_test.cpp **** 
  83:test/ConsumerProducer_C_API_test.cpp ****     printString("Unesite broj proizvodjaca?\n");
  84:test/ConsumerProducer_C_API_test.cpp ****     getString(input, 30);
  85:test/ConsumerProducer_C_API_test.cpp ****     threadNum = stringToInt(input);
  86:test/ConsumerProducer_C_API_test.cpp **** 
  87:test/ConsumerProducer_C_API_test.cpp ****     printString("Unesite velicinu bafera?\n");
  88:test/ConsumerProducer_C_API_test.cpp ****     getString(input, 30);
  89:test/ConsumerProducer_C_API_test.cpp ****     n = stringToInt(input);
  90:test/ConsumerProducer_C_API_test.cpp **** 
  91:test/ConsumerProducer_C_API_test.cpp ****     printString("Broj proizvodjaca "); printInt(threadNum);
  92:test/ConsumerProducer_C_API_test.cpp ****     printString(" i velicina bafera "); printInt(n);
  93:test/ConsumerProducer_C_API_test.cpp ****     printString(".\n");
  94:test/ConsumerProducer_C_API_test.cpp **** 
  95:test/ConsumerProducer_C_API_test.cpp ****     if(threadNum > n) {
  96:test/ConsumerProducer_C_API_test.cpp ****         printString("Broj proizvodjaca ne sme biti manji od velicine bafera!\n");
  97:test/ConsumerProducer_C_API_test.cpp ****         return;
GAS LISTING /tmp/ccbrmvuT.s 			page 10


  98:test/ConsumerProducer_C_API_test.cpp ****     } else if (threadNum < 1) {
  99:test/ConsumerProducer_C_API_test.cpp ****         printString("Broj proizvodjaca mora biti veci od nula!\n");
 100:test/ConsumerProducer_C_API_test.cpp ****         return;
 101:test/ConsumerProducer_C_API_test.cpp ****     }
 102:test/ConsumerProducer_C_API_test.cpp **** 
 103:test/ConsumerProducer_C_API_test.cpp ****     Buffer *buffer = new Buffer(n);
 104:test/ConsumerProducer_C_API_test.cpp **** 
 105:test/ConsumerProducer_C_API_test.cpp ****     sem_open(&waitForAll, 0);
 106:test/ConsumerProducer_C_API_test.cpp **** 
 107:test/ConsumerProducer_C_API_test.cpp ****     thread_t threads[threadNum];
 108:test/ConsumerProducer_C_API_test.cpp ****     thread_t consumerThread;
 109:test/ConsumerProducer_C_API_test.cpp **** 
 110:test/ConsumerProducer_C_API_test.cpp ****     struct thread_data data[threadNum + 1];
 111:test/ConsumerProducer_C_API_test.cpp **** 
 112:test/ConsumerProducer_C_API_test.cpp ****     data[threadNum].id = threadNum;
 113:test/ConsumerProducer_C_API_test.cpp ****     data[threadNum].buffer = buffer;
 114:test/ConsumerProducer_C_API_test.cpp ****     data[threadNum].wait = waitForAll;
 115:test/ConsumerProducer_C_API_test.cpp ****     thread_create(&consumerThread, consumer, data + threadNum);
 116:test/ConsumerProducer_C_API_test.cpp **** 
 117:test/ConsumerProducer_C_API_test.cpp ****     for (int i = 0; i < threadNum; i++) {
 118:test/ConsumerProducer_C_API_test.cpp ****         data[i].id = i;
 119:test/ConsumerProducer_C_API_test.cpp ****         data[i].buffer = buffer;
 120:test/ConsumerProducer_C_API_test.cpp ****         data[i].wait = waitForAll;
 121:test/ConsumerProducer_C_API_test.cpp **** 
 122:test/ConsumerProducer_C_API_test.cpp ****         thread_create(threads + i,
 123:test/ConsumerProducer_C_API_test.cpp ****                       i > 0 ? producer : producerKeyboard,
 124:test/ConsumerProducer_C_API_test.cpp ****                       data + i);
 125:test/ConsumerProducer_C_API_test.cpp ****     }
 126:test/ConsumerProducer_C_API_test.cpp **** 
 127:test/ConsumerProducer_C_API_test.cpp ****     thread_dispatch();
 128:test/ConsumerProducer_C_API_test.cpp **** 
 129:test/ConsumerProducer_C_API_test.cpp ****     for (int i = 0; i <= threadNum; i++) {
 130:test/ConsumerProducer_C_API_test.cpp ****         sem_wait(waitForAll);
 131:test/ConsumerProducer_C_API_test.cpp ****     }
 132:test/ConsumerProducer_C_API_test.cpp **** 
 133:test/ConsumerProducer_C_API_test.cpp ****     sem_close(waitForAll);
 134:test/ConsumerProducer_C_API_test.cpp **** 
 135:test/ConsumerProducer_C_API_test.cpp ****     delete buffer;
 363              		.loc 1 135 18 is_stmt 0
 364 0260 130B0100 		mv	s6,sp
  80:test/ConsumerProducer_C_API_test.cpp ****     char input[30];
 365              		.loc 1 80 5 is_stmt 1
  81:test/ConsumerProducer_C_API_test.cpp **** 
 366              		.loc 1 81 5
  83:test/ConsumerProducer_C_API_test.cpp ****     getString(input, 30);
 367              		.loc 1 83 5
  83:test/ConsumerProducer_C_API_test.cpp ****     getString(input, 30);
 368              		.loc 1 83 16 is_stmt 0
 369 0264 17050000 		lla	a0,.LC0
 369      13050500 
 370              	.LEHB0:
 371 026c 97000000 		call	_Z11printStringPKc
 371      E7800000 
 372              	.LVL44:
  84:test/ConsumerProducer_C_API_test.cpp ****     threadNum = stringToInt(input);
 373              		.loc 1 84 5 is_stmt 1
  84:test/ConsumerProducer_C_API_test.cpp ****     threadNum = stringToInt(input);
GAS LISTING /tmp/ccbrmvuT.s 			page 11


 374              		.loc 1 84 14 is_stmt 0
 375 0274 9305E001 		li	a1,30
 376 0278 130504FA 		addi	a0,s0,-96
 377 027c 97000000 		call	_Z9getStringPci
 377      E7800000 
 378              	.LVL45:
  85:test/ConsumerProducer_C_API_test.cpp **** 
 379              		.loc 1 85 5 is_stmt 1
  85:test/ConsumerProducer_C_API_test.cpp **** 
 380              		.loc 1 85 28 is_stmt 0
 381 0284 130504FA 		addi	a0,s0,-96
 382 0288 97000000 		call	_Z11stringToIntPKc
 382      E7800000 
 383              	.LVL46:
 384 0290 13090500 		mv	s2,a0
 385              	.LVL47:
  87:test/ConsumerProducer_C_API_test.cpp ****     getString(input, 30);
 386              		.loc 1 87 5 is_stmt 1
  87:test/ConsumerProducer_C_API_test.cpp ****     getString(input, 30);
 387              		.loc 1 87 16 is_stmt 0
 388 0294 17050000 		lla	a0,.LC1
 388      13050500 
 389 029c 97000000 		call	_Z11printStringPKc
 389      E7800000 
 390              	.LVL48:
  88:test/ConsumerProducer_C_API_test.cpp ****     n = stringToInt(input);
 391              		.loc 1 88 5 is_stmt 1
  88:test/ConsumerProducer_C_API_test.cpp ****     n = stringToInt(input);
 392              		.loc 1 88 14 is_stmt 0
 393 02a4 9305E001 		li	a1,30
 394 02a8 130504FA 		addi	a0,s0,-96
 395 02ac 97000000 		call	_Z9getStringPci
 395      E7800000 
 396              	.LVL49:
  89:test/ConsumerProducer_C_API_test.cpp **** 
 397              		.loc 1 89 5 is_stmt 1
  89:test/ConsumerProducer_C_API_test.cpp **** 
 398              		.loc 1 89 20 is_stmt 0
 399 02b4 130504FA 		addi	a0,s0,-96
 400 02b8 97000000 		call	_Z11stringToIntPKc
 400      E7800000 
 401              	.LVL50:
 402 02c0 93040500 		mv	s1,a0
 403              	.LVL51:
  91:test/ConsumerProducer_C_API_test.cpp ****     printString(" i velicina bafera "); printInt(n);
 404              		.loc 1 91 5 is_stmt 1
  91:test/ConsumerProducer_C_API_test.cpp ****     printString(" i velicina bafera "); printInt(n);
 405              		.loc 1 91 16 is_stmt 0
 406 02c4 17050000 		lla	a0,.LC2
 406      13050500 
 407 02cc 97000000 		call	_Z11printStringPKc
 407      E7800000 
 408              	.LVL52:
  91:test/ConsumerProducer_C_API_test.cpp ****     printString(" i velicina bafera "); printInt(n);
 409              		.loc 1 91 40 is_stmt 1
  91:test/ConsumerProducer_C_API_test.cpp ****     printString(" i velicina bafera "); printInt(n);
 410              		.loc 1 91 48 is_stmt 0
GAS LISTING /tmp/ccbrmvuT.s 			page 12


 411 02d4 13060000 		li	a2,0
 412 02d8 9305A000 		li	a1,10
 413 02dc 13050900 		mv	a0,s2
 414 02e0 97000000 		call	_Z8printIntiii
 414      E7800000 
 415              	.LVL53:
  92:test/ConsumerProducer_C_API_test.cpp ****     printString(".\n");
 416              		.loc 1 92 5 is_stmt 1
  92:test/ConsumerProducer_C_API_test.cpp ****     printString(".\n");
 417              		.loc 1 92 16 is_stmt 0
 418 02e8 17050000 		lla	a0,.LC3
 418      13050500 
 419 02f0 97000000 		call	_Z11printStringPKc
 419      E7800000 
 420              	.LVL54:
  92:test/ConsumerProducer_C_API_test.cpp ****     printString(".\n");
 421              		.loc 1 92 41 is_stmt 1
  92:test/ConsumerProducer_C_API_test.cpp ****     printString(".\n");
 422              		.loc 1 92 49 is_stmt 0
 423 02f8 13060000 		li	a2,0
 424 02fc 9305A000 		li	a1,10
 425 0300 13850400 		mv	a0,s1
 426 0304 97000000 		call	_Z8printIntiii
 426      E7800000 
 427              	.LVL55:
  93:test/ConsumerProducer_C_API_test.cpp **** 
 428              		.loc 1 93 5 is_stmt 1
  93:test/ConsumerProducer_C_API_test.cpp **** 
 429              		.loc 1 93 16 is_stmt 0
 430 030c 17050000 		lla	a0,.LC4
 430      13050500 
 431 0314 97000000 		call	_Z11printStringPKc
 431      E7800000 
 432              	.LVL56:
  95:test/ConsumerProducer_C_API_test.cpp ****         printString("Broj proizvodjaca ne sme biti manji od velicine bafera!\n");
 433              		.loc 1 95 5 is_stmt 1
 434 031c 63C42403 		bgt	s2,s1,.L37
  98:test/ConsumerProducer_C_API_test.cpp ****         printString("Broj proizvodjaca mora biti veci od nula!\n");
 435              		.loc 1 98 12
 436 0320 635C2003 		blez	s2,.L38
 103:test/ConsumerProducer_C_API_test.cpp **** 
 437              		.loc 1 103 5
 103:test/ConsumerProducer_C_API_test.cpp **** 
 438              		.loc 1 103 34 is_stmt 0
 439 0324 13058003 		li	a0,56
 440 0328 97000000 		call	_Znwm
 440      E7800000 
 441              	.LVL57:
 442              	.LEHE0:
 443 0330 130A0500 		mv	s4,a0
 444 0334 93850400 		mv	a1,s1
 445              	.LEHB1:
 446 0338 97000000 		call	_ZN6BufferC1Ei
 446      E7800000 
 447              	.LVL58:
 448              	.LEHE1:
 449 0340 6F000003 		j	.L39
GAS LISTING /tmp/ccbrmvuT.s 			page 13


 450              	.L37:
  96:test/ConsumerProducer_C_API_test.cpp ****         return;
 451              		.loc 1 96 9 is_stmt 1
  96:test/ConsumerProducer_C_API_test.cpp ****         return;
 452              		.loc 1 96 20 is_stmt 0
 453 0344 17050000 		lla	a0,.LC5
 453      13050500 
 454              	.LEHB2:
 455 034c 97000000 		call	_Z11printStringPKc
 455      E7800000 
 456              	.LVL59:
  97:test/ConsumerProducer_C_API_test.cpp ****     } else if (threadNum < 1) {
 457              		.loc 1 97 9 is_stmt 1
 458 0354 6F004001 		j	.L24
 459              	.L38:
  99:test/ConsumerProducer_C_API_test.cpp ****         return;
 460              		.loc 1 99 9
  99:test/ConsumerProducer_C_API_test.cpp ****         return;
 461              		.loc 1 99 20 is_stmt 0
 462 0358 17050000 		lla	a0,.LC6
 462      13050500 
 463 0360 97000000 		call	_Z11printStringPKc
 463      E7800000 
 464              	.LVL60:
 100:test/ConsumerProducer_C_API_test.cpp ****     }
 465              		.loc 1 100 9 is_stmt 1
 466              	.L24:
 467 0368 13010B00 		mv	sp,s6
 468 036c 6F008016 		j	.L22
 469              	.L39:
 470              	.LVL61:
 105:test/ConsumerProducer_C_API_test.cpp **** 
 471              		.loc 1 105 5 discriminator 3
 105:test/ConsumerProducer_C_API_test.cpp **** 
 472              		.loc 1 105 13 is_stmt 0 discriminator 3
 473 0370 93050000 		li	a1,0
 474 0374 17050000 		lla	a0,_ZL10waitForAll
 474      13050500 
 475 037c 97000000 		call	_Z8sem_openPP5mySemj
 475      E7800000 
 476              	.LVL62:
 107:test/ConsumerProducer_C_API_test.cpp ****     thread_t consumerThread;
 477              		.loc 1 107 5 is_stmt 1 discriminator 3
 107:test/ConsumerProducer_C_API_test.cpp ****     thread_t consumerThread;
 478              		.loc 1 107 14 is_stmt 0 discriminator 3
 479 0384 93173900 		slli	a5,s2,3
 480 0388 9387F700 		addi	a5,a5,15
 481 038c 93F707FF 		andi	a5,a5,-16
 482 0390 3301F140 		sub	sp,sp,a5
 483 0394 930A0100 		mv	s5,sp
 484              	.LVL63:
 108:test/ConsumerProducer_C_API_test.cpp **** 
 485              		.loc 1 108 5 is_stmt 1 discriminator 3
 110:test/ConsumerProducer_C_API_test.cpp **** 
 486              		.loc 1 110 5 discriminator 3
 110:test/ConsumerProducer_C_API_test.cpp **** 
 487              		.loc 1 110 39 is_stmt 0 discriminator 3
GAS LISTING /tmp/ccbrmvuT.s 			page 14


 488 0398 9B071900 		addiw	a5,s2,1
 489              	.LVL64:
 110:test/ConsumerProducer_C_API_test.cpp **** 
 490              		.loc 1 110 24 discriminator 3
 491 039c 13971700 		slli	a4,a5,1
 492 03a0 3307F700 		add	a4,a4,a5
 493 03a4 93173700 		slli	a5,a4,3
 494 03a8 9387F700 		addi	a5,a5,15
 495 03ac 93F707FF 		andi	a5,a5,-16
 496 03b0 3301F140 		sub	sp,sp,a5
 497              	.LVL65:
 498 03b4 93090100 		mv	s3,sp
 499              	.LVL66:
 112:test/ConsumerProducer_C_API_test.cpp ****     data[threadNum].buffer = buffer;
 500              		.loc 1 112 5 is_stmt 1 discriminator 3
 112:test/ConsumerProducer_C_API_test.cpp ****     data[threadNum].buffer = buffer;
 501              		.loc 1 112 24 is_stmt 0 discriminator 3
 502 03b8 13171900 		slli	a4,s2,1
 503 03bc B3062701 		add	a3,a4,s2
 504 03c0 93973600 		slli	a5,a3,3
 505 03c4 B387F900 		add	a5,s3,a5
 506 03c8 23A02701 		sw	s2,0(a5)
 113:test/ConsumerProducer_C_API_test.cpp ****     data[threadNum].wait = waitForAll;
 507              		.loc 1 113 5 is_stmt 1 discriminator 3
 113:test/ConsumerProducer_C_API_test.cpp ****     data[threadNum].wait = waitForAll;
 508              		.loc 1 113 28 is_stmt 0 discriminator 3
 509 03cc 23B44701 		sd	s4,8(a5)
 114:test/ConsumerProducer_C_API_test.cpp ****     thread_create(&consumerThread, consumer, data + threadNum);
 510              		.loc 1 114 5 is_stmt 1 discriminator 3
 114:test/ConsumerProducer_C_API_test.cpp ****     thread_create(&consumerThread, consumer, data + threadNum);
 511              		.loc 1 114 26 is_stmt 0 discriminator 3
 512 03d0 97060000 		lla	a3,_ZL10waitForAll
 512      93860600 
 513 03d8 83B60600 		ld	a3,0(a3)
 514 03dc 23B8D700 		sd	a3,16(a5)
 115:test/ConsumerProducer_C_API_test.cpp **** 
 515              		.loc 1 115 5 is_stmt 1 discriminator 3
 115:test/ConsumerProducer_C_API_test.cpp **** 
 516              		.loc 1 115 51 is_stmt 0 discriminator 3
 517 03e0 B3072701 		add	a5,a4,s2
 518 03e4 13963700 		slli	a2,a5,3
 115:test/ConsumerProducer_C_API_test.cpp **** 
 519              		.loc 1 115 18 discriminator 3
 520 03e8 3386C900 		add	a2,s3,a2
 521 03ec 97050000 		lla	a1,_ZL8consumerPv
 521      93850500 
 522 03f4 130584F9 		addi	a0,s0,-104
 523 03f8 97000000 		call	_Z13thread_createPP3TCBPFvPvES2_
 523      E7800000 
 524              	.LVL67:
 525              	.LBB5:
 117:test/ConsumerProducer_C_API_test.cpp ****         data[i].id = i;
 526              		.loc 1 117 14 discriminator 3
 527 0400 93040000 		li	s1,0
 528              	.LVL68:
 529 0404 6F008002 		j	.L28
 530              	.LVL69:
GAS LISTING /tmp/ccbrmvuT.s 			page 15


 531              	.L34:
 122:test/ConsumerProducer_C_API_test.cpp ****                       i > 0 ? producer : producerKeyboard,
 532              		.loc 1 122 22
 533 0408 97050000 		lla	a1,_ZL16producerKeyboardPv
 533      93850500 
 534              	.L27:
 124:test/ConsumerProducer_C_API_test.cpp ****     }
 535              		.loc 1 124 28 discriminator 4
 536 0410 93171700 		slli	a5,a4,1
 537 0414 B387E700 		add	a5,a5,a4
 538 0418 13963700 		slli	a2,a5,3
 122:test/ConsumerProducer_C_API_test.cpp ****                       i > 0 ? producer : producerKeyboard,
 539              		.loc 1 122 22 discriminator 4
 540 041c 3386C900 		add	a2,s3,a2
 541 0420 97000000 		call	_Z13thread_createPP3TCBPFvPvES2_
 541      E7800000 
 542              	.LVL70:
 117:test/ConsumerProducer_C_API_test.cpp ****         data[i].id = i;
 543              		.loc 1 117 5 discriminator 4
 544 0428 9B841400 		addiw	s1,s1,1
 545              	.LVL71:
 546              	.L28:
 117:test/ConsumerProducer_C_API_test.cpp ****         data[i].id = i;
 547              		.loc 1 117 23 discriminator 1
 548 042c 63D42405 		bge	s1,s2,.L26
 118:test/ConsumerProducer_C_API_test.cpp ****         data[i].buffer = buffer;
 549              		.loc 1 118 9 is_stmt 1
 118:test/ConsumerProducer_C_API_test.cpp ****         data[i].buffer = buffer;
 550              		.loc 1 118 20 is_stmt 0
 551 0430 13971400 		slli	a4,s1,1
 552 0434 33079700 		add	a4,a4,s1
 553 0438 93173700 		slli	a5,a4,3
 554 043c B387F900 		add	a5,s3,a5
 555 0440 23A09700 		sw	s1,0(a5)
 119:test/ConsumerProducer_C_API_test.cpp ****         data[i].wait = waitForAll;
 556              		.loc 1 119 9 is_stmt 1
 119:test/ConsumerProducer_C_API_test.cpp ****         data[i].wait = waitForAll;
 557              		.loc 1 119 24 is_stmt 0
 558 0444 23B44701 		sd	s4,8(a5)
 120:test/ConsumerProducer_C_API_test.cpp **** 
 559              		.loc 1 120 9 is_stmt 1
 120:test/ConsumerProducer_C_API_test.cpp **** 
 560              		.loc 1 120 22 is_stmt 0
 561 0448 17070000 		lla	a4,_ZL10waitForAll
 561      13070700 
 562 0450 03370700 		ld	a4,0(a4)
 563 0454 23B8E700 		sd	a4,16(a5)
 122:test/ConsumerProducer_C_API_test.cpp ****                       i > 0 ? producer : producerKeyboard,
 564              		.loc 1 122 9 is_stmt 1
 122:test/ConsumerProducer_C_API_test.cpp ****                       i > 0 ? producer : producerKeyboard,
 565              		.loc 1 122 31 is_stmt 0
 566 0458 13870400 		mv	a4,s1
 567 045c 13953400 		slli	a0,s1,3
 122:test/ConsumerProducer_C_API_test.cpp ****                       i > 0 ? producer : producerKeyboard,
 568              		.loc 1 122 22
 569 0460 3385AA00 		add	a0,s5,a0
 570 0464 E35290FA 		blez	s1,.L34
GAS LISTING /tmp/ccbrmvuT.s 			page 16


 571 0468 97050000 		lla	a1,_ZL8producerPv
 571      93850500 
 572 0470 6FF01FFA 		j	.L27
 573              	.L26:
 574              	.LBE5:
 127:test/ConsumerProducer_C_API_test.cpp **** 
 575              		.loc 1 127 5 is_stmt 1
 127:test/ConsumerProducer_C_API_test.cpp **** 
 576              		.loc 1 127 20 is_stmt 0
 577 0474 97000000 		call	_Z15thread_dispatchv
 577      E7800000 
 578              	.LVL72:
 579              	.LBB6:
 129:test/ConsumerProducer_C_API_test.cpp ****         sem_wait(waitForAll);
 580              		.loc 1 129 14
 581 047c 93040000 		li	s1,0
 582              	.LVL73:
 583              	.L30:
 129:test/ConsumerProducer_C_API_test.cpp ****         sem_wait(waitForAll);
 584              		.loc 1 129 23 discriminator 1
 585 0480 63409902 		bgt	s1,s2,.L29
 130:test/ConsumerProducer_C_API_test.cpp ****     }
 586              		.loc 1 130 9 is_stmt 1
 130:test/ConsumerProducer_C_API_test.cpp ****     }
 587              		.loc 1 130 17 is_stmt 0
 588 0484 97070000 		lla	a5,_ZL10waitForAll
 588      93870700 
 589 048c 03B50700 		ld	a0,0(a5)
 590 0490 97000000 		call	_Z8sem_waitP5mySem
 590      E7800000 
 591              	.LVL74:
 129:test/ConsumerProducer_C_API_test.cpp ****         sem_wait(waitForAll);
 592              		.loc 1 129 5
 593 0498 9B841400 		addiw	s1,s1,1
 594              	.LVL75:
 595 049c 6FF05FFE 		j	.L30
 596              	.LVL76:
 597              	.L29:
 598              	.LBE6:
 133:test/ConsumerProducer_C_API_test.cpp **** 
 599              		.loc 1 133 5 is_stmt 1
 133:test/ConsumerProducer_C_API_test.cpp **** 
 600              		.loc 1 133 14 is_stmt 0
 601 04a0 97070000 		lla	a5,_ZL10waitForAll
 601      93870700 
 602 04a8 03B50700 		ld	a0,0(a5)
 603 04ac 97000000 		call	_Z9sem_closeP5mySem
 603      E7800000 
 604              	.LVL77:
 605              		.loc 1 135 5 is_stmt 1
 606              		.loc 1 135 18 is_stmt 0
 607 04b4 630E0A00 		beqz	s4,.L31
 608              		.loc 1 135 12 discriminator 1
 609 04b8 13050A00 		mv	a0,s4
 610 04bc 97000000 		call	_ZN6BufferD1Ev
 610      E7800000 
 611              	.LVL78:
GAS LISTING /tmp/ccbrmvuT.s 			page 17


 612 04c4 13050A00 		mv	a0,s4
 613 04c8 97000000 		call	_ZdlPv
 613      E7800000 
 614              	.LVL79:
 615              	.L31:
 616 04d0 13010B00 		mv	sp,s6
 617              	.LVL80:
 618              	.L22:
 136:test/ConsumerProducer_C_API_test.cpp **** 
 137:test/ConsumerProducer_C_API_test.cpp **** }
 619              		.loc 1 137 1
 620 04d4 130104F9 		addi	sp,s0,-112
 621              		.cfi_remember_state
 622              		.cfi_def_cfa 2, 112
 623 04d8 83308106 		ld	ra,104(sp)
 624              		.cfi_restore 1
 625 04dc 03340106 		ld	s0,96(sp)
 626              		.cfi_restore 8
 627 04e0 83348105 		ld	s1,88(sp)
 628              		.cfi_restore 9
 629 04e4 03390105 		ld	s2,80(sp)
 630              		.cfi_restore 18
 631              	.LVL81:
 632 04e8 83398104 		ld	s3,72(sp)
 633              		.cfi_restore 19
 634 04ec 033A0104 		ld	s4,64(sp)
 635              		.cfi_restore 20
 636 04f0 833A8103 		ld	s5,56(sp)
 637              		.cfi_restore 21
 638 04f4 033B0103 		ld	s6,48(sp)
 639              		.cfi_restore 22
 640 04f8 13010107 		addi	sp,sp,112
 641              		.cfi_def_cfa_offset 0
 642 04fc 67800000 		jr	ra
 643              	.LVL82:
 644              	.L35:
 645              		.cfi_restore_state
 646 0500 93040500 		mv	s1,a0
 647              	.LVL83:
 103:test/ConsumerProducer_C_API_test.cpp **** 
 648              		.loc 1 103 34
 649 0504 13050A00 		mv	a0,s4
 650 0508 97000000 		call	_ZdlPv
 650      E7800000 
 651              	.LVL84:
 652 0510 13850400 		mv	a0,s1
 653 0514 97000000 		call	_Unwind_Resume
 653      E7800000 
 654              	.LVL85:
 655              	.LEHE2:
 656              		.cfi_endproc
 657              	.LFE35:
 658              		.globl	__gxx_personality_v0
 659              		.section	.gcc_except_table,"a",@progbits
 660              	.LLSDA35:
 661 0000 FF       		.byte	0xff
 662 0001 FF       		.byte	0xff
GAS LISTING /tmp/ccbrmvuT.s 			page 18


 663 0002 03       		.byte	0x3
 664 0003 27       		.byte	0x27
 665 0004 00000000 		.4byte	.LEHB0-.LFB35
 666 0008 00000000 		.4byte	.LEHE0-.LEHB0
 667 000c 00000000 		.4byte	0
 668 0010 00       		.byte	0
 669 0011 00000000 		.4byte	.LEHB1-.LFB35
 670 0015 00000000 		.4byte	.LEHE1-.LEHB1
 671 0019 00000000 		.4byte	.L35-.LFB35
 672 001d 00       		.byte	0
 673 001e 00000000 		.4byte	.LEHB2-.LFB35
 674 0022 00000000 		.4byte	.LEHE2-.LEHB2
 675 0026 00000000 		.4byte	0
 676 002a 00       		.byte	0
 677              		.text
 679              		.section	.rodata.str1.8,"aMS",@progbits,1
 680              		.align	3
 681              	.LC0:
 682 0000 556E6573 		.string	"Unesite broj proizvodjaca?\n"
 682      69746520 
 682      62726F6A 
 682      2070726F 
 682      697A766F 
 683 001c 00000000 		.zero	4
 684              	.LC1:
 685 0020 556E6573 		.string	"Unesite velicinu bafera?\n"
 685      69746520 
 685      76656C69 
 685      63696E75 
 685      20626166 
 686 003a 00000000 		.zero	6
 686      0000
 687              	.LC2:
 688 0040 42726F6A 		.string	"Broj proizvodjaca "
 688      2070726F 
 688      697A766F 
 688      646A6163 
 688      612000
 689 0053 00000000 		.zero	5
 689      00
 690              	.LC3:
 691 0058 20692076 		.string	" i velicina bafera "
 691      656C6963 
 691      696E6120 
 691      62616665 
 691      72612000 
 692 006c 00000000 		.zero	4
 693              	.LC4:
 694 0070 2E0A00   		.string	".\n"
 695 0073 00000000 		.zero	5
 695      00
 696              	.LC5:
 697 0078 42726F6A 		.string	"Broj proizvodjaca ne sme biti manji od velicine bafera!\n"
 697      2070726F 
 697      697A766F 
 697      646A6163 
 697      61206E65 
GAS LISTING /tmp/ccbrmvuT.s 			page 19


 698 00b1 00000000 		.zero	7
 698      000000
 699              	.LC6:
 700 00b8 42726F6A 		.string	"Broj proizvodjaca mora biti veci od nula!\n"
 700      2070726F 
 700      697A766F 
 700      646A6163 
 700      61206D6F 
 701              		.section	.sbss,"aw",@nobits
 702              		.align	3
 705              	_ZL9threadEnd:
 706 0000 00000000 		.zero	4
 707 0004 00000000 		.zero	4
 710              	_ZL10waitForAll:
 711 0008 00000000 		.zero	8
 711      00000000 
 712              		.text
 713              	.Letext0:
 714              		.file 2 "test/../h/../lib/hw.h"
 715              		.file 3 "test/../h/../h/list.hpp"
 716              		.file 4 "test/../h/../h/tcb.hpp"
 717              		.file 5 "test/../h/../h/mySem.hpp"
 718              		.file 6 "test/../h/syscall_c.hpp"
 719              		.file 7 "test/buffer.hpp"
 720              		.file 8 "test/printing.hpp"
 4222              		.align	3
 4225              	DW.ref.__gxx_personality_v0:
 4226 0000 00000000 		.dword	__gxx_personality_v0
 4226      00000000 
 4227              		.ident	"GCC: (GNU) 8.3.0"
GAS LISTING /tmp/ccbrmvuT.s 			page 20

