GAS LISTING /tmp/ccXJUsJe.s 			page 1


   1              		.file	"printing.cpp"
   2              		.option nopic
   3              		.option norelax
   4              		.text
   5              	.Ltext0:
   6              		.align	2
   7              		.globl	_Z11printStringPKc
   9              	_Z11printStringPKc:
  10              	.LFB32:
  11              		.file 1 "test/printing.cpp"
   1:test/printing.cpp **** //
   2:test/printing.cpp **** // Created by os on 5/18/22.
   3:test/printing.cpp **** //
   4:test/printing.cpp **** 
   5:test/printing.cpp **** #include "printing.hpp"
   6:test/printing.cpp **** 
   7:test/printing.cpp **** uint64 lockPrint = 0;
   8:test/printing.cpp **** 
   9:test/printing.cpp **** #define LOCK() while(copy_and_swap(lockPrint, 0, 1)) thread_dispatch()
  10:test/printing.cpp **** #define UNLOCK() while(copy_and_swap(lockPrint, 1, 0))
  11:test/printing.cpp **** 
  12:test/printing.cpp **** void printString(char const *string)
  13:test/printing.cpp **** {
  12              		.loc 1 13 1
  13              		.cfi_startproc
  14              	.LVL0:
  15 0000 130101FE 		addi	sp,sp,-32
  16              		.cfi_def_cfa_offset 32
  17 0004 233C1100 		sd	ra,24(sp)
  18 0008 23388100 		sd	s0,16(sp)
  19 000c 23349100 		sd	s1,8(sp)
  20              		.cfi_offset 1, -8
  21              		.cfi_offset 8, -16
  22              		.cfi_offset 9, -24
  23 0010 13040102 		addi	s0,sp,32
  24              		.cfi_def_cfa 8, 0
  25 0014 93040500 		mv	s1,a0
  26              	.LVL1:
  27              	.L3:
  14:test/printing.cpp ****     LOCK();
  28              		.loc 1 14 5 discriminator 2
  29 0018 13061000 		li	a2,1
  30 001c 93050000 		li	a1,0
  31 0020 17050000 		lla	a0,lockPrint
  31      13050500 
  32 0028 97000000 		call	copy_and_swap
  32      E7800000 
  33              	.LVL2:
  34 0030 63080500 		beqz	a0,.L2
  35              		.loc 1 14 5 discriminator 1
  36 0034 97000000 		call	_Z15thread_dispatchv
  36      E7800000 
  37              	.LVL3:
  38 003c 6FF0DFFD 		j	.L3
  39              	.L2:
  15:test/printing.cpp ****     while (*string != '\0')
  40              		.loc 1 15 5
GAS LISTING /tmp/ccXJUsJe.s 			page 2


  41              		.loc 1 15 12 is_stmt 0
  42 0040 03C50400 		lbu	a0,0(s1)
  43              		.loc 1 15 20
  44 0044 630A0500 		beqz	a0,.L4
  16:test/printing.cpp ****     {
  17:test/printing.cpp ****         putc(*string);
  45              		.loc 1 17 9 is_stmt 1
  46              		.loc 1 17 13 is_stmt 0
  47 0048 97000000 		call	_Z4putcc
  47      E7800000 
  48              	.LVL4:
  18:test/printing.cpp ****         string++;
  49              		.loc 1 18 9 is_stmt 1
  50              		.loc 1 18 15 is_stmt 0
  51 0050 93841400 		addi	s1,s1,1
  52              	.LVL5:
  15:test/printing.cpp ****     while (*string != '\0')
  53              		.loc 1 15 5
  54 0054 6FF0DFFE 		j	.L2
  55              	.L4:
  19:test/printing.cpp ****     }
  20:test/printing.cpp ****     UNLOCK();
  56              		.loc 1 20 5 is_stmt 1
  57 0058 13060000 		li	a2,0
  58 005c 93051000 		li	a1,1
  59 0060 17050000 		lla	a0,lockPrint
  59      13050500 
  60 0068 97000000 		call	copy_and_swap
  60      E7800000 
  61              	.LVL6:
  62 0070 E31405FE 		bnez	a0,.L4
  21:test/printing.cpp **** }
  63              		.loc 1 21 1 is_stmt 0
  64 0074 83308101 		ld	ra,24(sp)
  65              		.cfi_restore 1
  66 0078 03340101 		ld	s0,16(sp)
  67              		.cfi_restore 8
  68 007c 83348100 		ld	s1,8(sp)
  69              		.cfi_restore 9
  70              	.LVL7:
  71 0080 13010102 		addi	sp,sp,32
  72              		.cfi_def_cfa_register 2
  73 0084 67800000 		jr	ra
  74              		.cfi_endproc
  75              	.LFE32:
  77              		.align	2
  78              		.globl	_Z9getStringPci
  80              	_Z9getStringPci:
  81              	.LFB33:
  22:test/printing.cpp **** 
  23:test/printing.cpp **** char* getString(char *buf, int max) {
  82              		.loc 1 23 37 is_stmt 1
  83              		.cfi_startproc
  84              	.LVL8:
  85 0088 130101FD 		addi	sp,sp,-48
  86              		.cfi_def_cfa_offset 48
  87 008c 23341102 		sd	ra,40(sp)
GAS LISTING /tmp/ccXJUsJe.s 			page 3


  88 0090 23308102 		sd	s0,32(sp)
  89 0094 233C9100 		sd	s1,24(sp)
  90 0098 23382101 		sd	s2,16(sp)
  91 009c 23343101 		sd	s3,8(sp)
  92 00a0 23304101 		sd	s4,0(sp)
  93              		.cfi_offset 1, -8
  94              		.cfi_offset 8, -16
  95              		.cfi_offset 9, -24
  96              		.cfi_offset 18, -32
  97              		.cfi_offset 19, -40
  98              		.cfi_offset 20, -48
  99 00a4 13040103 		addi	s0,sp,48
 100              		.cfi_def_cfa 8, 0
 101 00a8 93090500 		mv	s3,a0
 102 00ac 138A0500 		mv	s4,a1
 103              	.LVL9:
 104              	.L8:
  24:test/printing.cpp ****     LOCK();
 105              		.loc 1 24 5 discriminator 2
 106 00b0 13061000 		li	a2,1
 107 00b4 93050000 		li	a1,0
 108 00b8 17050000 		lla	a0,lockPrint
 108      13050500 
 109 00c0 97000000 		call	copy_and_swap
 109      E7800000 
 110              	.LVL10:
 111 00c8 63080500 		beqz	a0,.L11
 112              		.loc 1 24 5 discriminator 1
 113 00cc 97000000 		call	_Z15thread_dispatchv
 113      E7800000 
 114              	.LVL11:
 115 00d4 6FF0DFFD 		j	.L8
 116              	.L11:
  25:test/printing.cpp ****     int i, cc;
  26:test/printing.cpp ****     char c;
  27:test/printing.cpp **** 
  28:test/printing.cpp ****     for(i=0; i+1 < max; ){
 117              		.loc 1 28 10 is_stmt 0
 118 00d8 93040000 		li	s1,0
 119              	.L7:
 120              	.LVL12:
 121              		.loc 1 28 15 discriminator 1
 122 00dc 1B891400 		addiw	s2,s1,1
 123              		.loc 1 28 18 discriminator 1
 124 00e0 635A4903 		bge	s2,s4,.L9
  29:test/printing.cpp ****         cc = getc();
 125              		.loc 1 29 9 is_stmt 1
 126              		.loc 1 29 18 is_stmt 0
 127 00e4 97000000 		call	_Z4getcv
 127      E7800000 
 128              	.LVL13:
  30:test/printing.cpp ****         if(cc < 1)
 129              		.loc 1 30 9 is_stmt 1
 130 00ec 63040502 		beqz	a0,.L9
  31:test/printing.cpp ****             break;
  32:test/printing.cpp ****         c = cc;
 131              		.loc 1 32 9
GAS LISTING /tmp/ccXJUsJe.s 			page 4


 132              	.LVL14:
  33:test/printing.cpp ****         buf[i++] = c;
 133              		.loc 1 33 9
 134              		.loc 1 33 16 is_stmt 0
 135 00f0 B3849900 		add	s1,s3,s1
 136              		.loc 1 33 18
 137 00f4 2380A400 		sb	a0,0(s1)
  34:test/printing.cpp ****         if(c == '\n' || c == '\r')
 138              		.loc 1 34 9 is_stmt 1
 139 00f8 9307A000 		li	a5,10
 140 00fc 630AF500 		beq	a0,a5,.L12
  33:test/printing.cpp ****         buf[i++] = c;
 141              		.loc 1 33 14 is_stmt 0 discriminator 1
 142 0100 93040900 		mv	s1,s2
 143              		.loc 1 34 22 discriminator 1
 144 0104 9307D000 		li	a5,13
 145 0108 E31AF5FC 		bne	a0,a5,.L7
 146 010c 6F008000 		j	.L9
 147              	.L12:
  33:test/printing.cpp ****         buf[i++] = c;
 148              		.loc 1 33 14
 149 0110 93040900 		mv	s1,s2
 150              	.LVL15:
 151              	.L9:
  35:test/printing.cpp ****             break;
  36:test/printing.cpp ****     }
  37:test/printing.cpp ****     buf[i] = '\0';
 152              		.loc 1 37 5 is_stmt 1
 153              		.loc 1 37 10 is_stmt 0
 154 0114 B3849900 		add	s1,s3,s1
 155              	.LVL16:
 156              		.loc 1 37 12
 157 0118 23800400 		sb	zero,0(s1)
 158              	.L10:
  38:test/printing.cpp **** 
  39:test/printing.cpp ****     UNLOCK();
 159              		.loc 1 39 5 is_stmt 1
 160 011c 13060000 		li	a2,0
 161 0120 93051000 		li	a1,1
 162 0124 17050000 		lla	a0,lockPrint
 162      13050500 
 163 012c 97000000 		call	copy_and_swap
 163      E7800000 
 164              	.LVL17:
 165 0134 E31405FE 		bnez	a0,.L10
  40:test/printing.cpp ****     return buf;
 166              		.loc 1 40 5
  41:test/printing.cpp **** }
 167              		.loc 1 41 1 is_stmt 0
 168 0138 13850900 		mv	a0,s3
 169 013c 83308102 		ld	ra,40(sp)
 170              		.cfi_restore 1
 171 0140 03340102 		ld	s0,32(sp)
 172              		.cfi_restore 8
 173 0144 83348101 		ld	s1,24(sp)
 174              		.cfi_restore 9
 175 0148 03390101 		ld	s2,16(sp)
GAS LISTING /tmp/ccXJUsJe.s 			page 5


 176              		.cfi_restore 18
 177 014c 83398100 		ld	s3,8(sp)
 178              		.cfi_restore 19
 179              	.LVL18:
 180 0150 033A0100 		ld	s4,0(sp)
 181              		.cfi_restore 20
 182 0154 13010103 		addi	sp,sp,48
 183              		.cfi_def_cfa_register 2
 184 0158 67800000 		jr	ra
 185              		.cfi_endproc
 186              	.LFE33:
 188              		.align	2
 189              		.globl	_Z11stringToIntPKc
 191              	_Z11stringToIntPKc:
 192              	.LFB34:
  42:test/printing.cpp **** 
  43:test/printing.cpp **** int stringToInt(const char *s) {
 193              		.loc 1 43 32 is_stmt 1
 194              		.cfi_startproc
 195              	.LVL19:
 196 015c 130101FF 		addi	sp,sp,-16
 197              		.cfi_def_cfa_offset 16
 198 0160 23348100 		sd	s0,8(sp)
 199              		.cfi_offset 8, -8
 200 0164 13040101 		addi	s0,sp,16
 201              		.cfi_def_cfa 8, 0
  44:test/printing.cpp ****     int n;
 202              		.loc 1 44 5
  45:test/printing.cpp **** 
  46:test/printing.cpp ****     n = 0;
 203              		.loc 1 46 5
 204              	.LVL20:
 205              		.loc 1 46 7 is_stmt 0
 206 0168 93070000 		li	a5,0
 207              	.LVL21:
 208              	.L16:
  47:test/printing.cpp ****     while ('0' <= *s && *s <= '9')
 209              		.loc 1 47 5 is_stmt 1
 210              		.loc 1 47 19 is_stmt 0
 211 016c 03460500 		lbu	a2,0(a0)
 212              		.loc 1 47 22
 213 0170 9B0606FD 		addiw	a3,a2,-48
 214 0174 93F6F60F 		andi	a3,a3,0xff
 215 0178 13079000 		li	a4,9
 216 017c 6360D702 		bgtu	a3,a4,.L15
  48:test/printing.cpp ****         n = n * 10 + *s++ - '0';
 217              		.loc 1 48 9 is_stmt 1
 218              		.loc 1 48 15 is_stmt 0
 219 0180 9B962700 		slliw	a3,a5,2
 220 0184 BB87F600 		addw	a5,a3,a5
 221              	.LVL22:
 222 0188 1B971700 		slliw	a4,a5,1
 223              		.loc 1 48 24
 224 018c 13051500 		addi	a0,a0,1
 225              	.LVL23:
 226              		.loc 1 48 20
 227 0190 BB07C700 		addw	a5,a4,a2
GAS LISTING /tmp/ccXJUsJe.s 			page 6


 228              		.loc 1 48 11
 229 0194 9B8707FD 		addiw	a5,a5,-48
 230              	.LVL24:
  47:test/printing.cpp ****     while ('0' <= *s && *s <= '9')
 231              		.loc 1 47 5
 232 0198 6FF05FFD 		j	.L16
 233              	.LVL25:
 234              	.L15:
  49:test/printing.cpp ****     return n;
 235              		.loc 1 49 5 is_stmt 1
  50:test/printing.cpp **** }
 236              		.loc 1 50 1 is_stmt 0
 237 019c 13850700 		mv	a0,a5
 238              	.LVL26:
 239 01a0 03348100 		ld	s0,8(sp)
 240              		.cfi_restore 8
 241 01a4 13010101 		addi	sp,sp,16
 242              		.cfi_def_cfa_register 2
 243 01a8 67800000 		jr	ra
 244              		.cfi_endproc
 245              	.LFE34:
 247              		.align	2
 248              		.globl	_Z8printIntiii
 250              	_Z8printIntiii:
 251              	.LFB35:
  51:test/printing.cpp **** 
  52:test/printing.cpp **** char digits[] = "0123456789ABCDEF";
  53:test/printing.cpp **** 
  54:test/printing.cpp **** void printInt(int xx, int base, int sgn)
  55:test/printing.cpp **** {
 252              		.loc 1 55 1 is_stmt 1
 253              		.cfi_startproc
 254              	.LVL27:
 255 01ac 130101FC 		addi	sp,sp,-64
 256              		.cfi_def_cfa_offset 64
 257 01b0 233C1102 		sd	ra,56(sp)
 258 01b4 23388102 		sd	s0,48(sp)
 259 01b8 23349102 		sd	s1,40(sp)
 260 01bc 23302103 		sd	s2,32(sp)
 261 01c0 233C3101 		sd	s3,24(sp)
 262              		.cfi_offset 1, -8
 263              		.cfi_offset 8, -16
 264              		.cfi_offset 9, -24
 265              		.cfi_offset 18, -32
 266              		.cfi_offset 19, -40
 267 01c4 13040104 		addi	s0,sp,64
 268              		.cfi_def_cfa 8, 0
 269 01c8 93040500 		mv	s1,a0
 270 01cc 13890500 		mv	s2,a1
 271 01d0 93090600 		mv	s3,a2
 272              	.LVL28:
 273              	.L20:
  56:test/printing.cpp ****     LOCK();
 274              		.loc 1 56 5
 275 01d4 13061000 		li	a2,1
 276 01d8 93050000 		li	a1,0
 277 01dc 17050000 		lla	a0,lockPrint
GAS LISTING /tmp/ccXJUsJe.s 			page 7


 277      13050500 
 278 01e4 97000000 		call	copy_and_swap
 278      E7800000 
 279              	.LVL29:
 280 01ec 63080500 		beqz	a0,.L19
 281              		.loc 1 56 5 discriminator 2
 282 01f0 97000000 		call	_Z15thread_dispatchv
 282      E7800000 
 283              	.LVL30:
 284 01f8 6FF0DFFD 		j	.L20
 285              	.L19:
  57:test/printing.cpp ****     char buf[16];
 286              		.loc 1 57 5
  58:test/printing.cpp ****     int i, neg;
 287              		.loc 1 58 5
  59:test/printing.cpp ****     uint x;
 288              		.loc 1 59 5
  60:test/printing.cpp **** 
  61:test/printing.cpp ****     neg = 0;
 289              		.loc 1 61 5
 290              	.LVL31:
  62:test/printing.cpp ****     if(sgn && xx < 0){
 291              		.loc 1 62 5
 292 01fc 63840900 		beqz	s3,.L21
 293              		.loc 1 62 12 is_stmt 0 discriminator 1
 294 0200 63CA0400 		bltz	s1,.L29
 295              	.L21:
  63:test/printing.cpp ****         neg = 1;
  64:test/printing.cpp ****         x = -xx;
  65:test/printing.cpp ****     } else {
  66:test/printing.cpp ****         x = xx;
 296              		.loc 1 66 9 is_stmt 1
 297              		.loc 1 66 11 is_stmt 0
 298 0204 1B850400 		sext.w	a0,s1
 299              	.LVL32:
  61:test/printing.cpp ****     if(sgn && xx < 0){
 300              		.loc 1 61 9
 301 0208 93050000 		li	a1,0
 302              	.LVL33:
 303              	.L22:
  67:test/printing.cpp ****     }
  68:test/printing.cpp **** 
  69:test/printing.cpp ****     i = 0;
 304              		.loc 1 69 5 is_stmt 1
 305              		.loc 1 69 7 is_stmt 0
 306 020c 13060000 		li	a2,0
 307 0210 6F00C001 		j	.L23
 308              	.LVL34:
 309              	.L29:
  63:test/printing.cpp ****         x = -xx;
 310              		.loc 1 63 9 is_stmt 1
  64:test/printing.cpp ****     } else {
 311              		.loc 1 64 9
  64:test/printing.cpp ****     } else {
 312              		.loc 1 64 13 is_stmt 0
 313 0214 3B059040 		subw	a0,zero,s1
  64:test/printing.cpp ****     } else {
GAS LISTING /tmp/ccXJUsJe.s 			page 8


 314              		.loc 1 64 11
 315 0218 1B050500 		sext.w	a0,a0
 316              	.LVL35:
  63:test/printing.cpp ****         x = -xx;
 317              		.loc 1 63 13
 318 021c 93051000 		li	a1,1
  64:test/printing.cpp ****     } else {
 319              		.loc 1 64 11
 320 0220 6FF0DFFE 		j	.L22
 321              	.LVL36:
 322              	.L27:
  70:test/printing.cpp ****     do{
  71:test/printing.cpp ****         buf[i++] = digits[x % base];
  72:test/printing.cpp ****     }while((x /= base) != 0);
 323              		.loc 1 72 15
 324 0224 13850600 		mv	a0,a3
  71:test/printing.cpp ****     }while((x /= base) != 0);
 325              		.loc 1 71 14
 326 0228 13860400 		mv	a2,s1
 327              	.LVL37:
 328              	.L23:
  70:test/printing.cpp ****     do{
 329              		.loc 1 70 5 is_stmt 1
  71:test/printing.cpp ****     }while((x /= base) != 0);
 330              		.loc 1 71 9
  71:test/printing.cpp ****     }while((x /= base) != 0);
 331              		.loc 1 71 29 is_stmt 0
 332 022c 9B070900 		sext.w	a5,s2
 333 0230 3B77F502 		remuw	a4,a0,a5
  71:test/printing.cpp ****     }while((x /= base) != 0);
 334              		.loc 1 71 14
 335 0234 9B041600 		addiw	s1,a2,1
 336              	.LVL38:
  71:test/printing.cpp ****     }while((x /= base) != 0);
 337              		.loc 1 71 35
 338 0238 93160702 		slli	a3,a4,32
 339 023c 93D60602 		srli	a3,a3,32
 340 0240 17070000 		lla	a4,.LANCHOR0
 340      13070700 
 341 0248 3307D700 		add	a4,a4,a3
 342 024c 83460700 		lbu	a3,0(a4)
  71:test/printing.cpp ****     }while((x /= base) != 0);
 343              		.loc 1 71 18
 344 0250 130704FD 		addi	a4,s0,-48
 345 0254 3307C700 		add	a4,a4,a2
 346 0258 2308D7FE 		sb	a3,-16(a4)
 347              		.loc 1 72 15
 348 025c 3B57F502 		divuw	a4,a0,a5
 349 0260 9B060700 		sext.w	a3,a4
 350              	.LVL39:
 351              		.loc 1 72 24
 352 0264 E370F5FC 		bleu	a5,a0,.L27
  73:test/printing.cpp ****     if(neg)
 353              		.loc 1 73 5 is_stmt 1
 354 0268 638C0500 		beqz	a1,.L26
  74:test/printing.cpp ****         buf[i++] = '-';
 355              		.loc 1 74 9
GAS LISTING /tmp/ccXJUsJe.s 			page 9


 356              	.LVL40:
 357              		.loc 1 74 18 is_stmt 0
 358 026c 930704FD 		addi	a5,s0,-48
 359 0270 B3849700 		add	s1,a5,s1
 360 0274 9307D002 		li	a5,45
 361 0278 2388F4FE 		sb	a5,-16(s1)
 362              		.loc 1 74 14
 363 027c 9B042600 		addiw	s1,a2,2
 364              	.LVL41:
 365              	.L26:
  75:test/printing.cpp **** 
  76:test/printing.cpp ****     while(--i >= 0)
 366              		.loc 1 76 5 is_stmt 1
 367              		.loc 1 76 15 is_stmt 0
 368 0280 9B84F4FF 		addiw	s1,s1,-1
 369              	.LVL42:
 370 0284 63CE0400 		bltz	s1,.L25
  77:test/printing.cpp ****         putc(buf[i]);
 371              		.loc 1 77 9 is_stmt 1
 372              		.loc 1 77 13 is_stmt 0
 373 0288 930704FD 		addi	a5,s0,-48
 374 028c B3879700 		add	a5,a5,s1
 375 0290 03C507FF 		lbu	a0,-16(a5)
 376 0294 97000000 		call	_Z4putcc
 376      E7800000 
 377              	.LVL43:
 378 029c 6FF05FFE 		j	.L26
 379              	.L25:
  78:test/printing.cpp **** 
  79:test/printing.cpp ****     UNLOCK();
 380              		.loc 1 79 5 is_stmt 1
 381 02a0 13060000 		li	a2,0
 382 02a4 93051000 		li	a1,1
 383 02a8 17050000 		lla	a0,lockPrint
 383      13050500 
 384 02b0 97000000 		call	copy_and_swap
 384      E7800000 
 385              	.LVL44:
 386 02b8 E31405FE 		bnez	a0,.L25
  80:test/printing.cpp **** }...
 387              		.loc 1 80 1 is_stmt 0
 388 02bc 83308103 		ld	ra,56(sp)
 389              		.cfi_restore 1
 390 02c0 03340103 		ld	s0,48(sp)
 391              		.cfi_restore 8
 392 02c4 83348102 		ld	s1,40(sp)
 393              		.cfi_restore 9
 394 02c8 03390102 		ld	s2,32(sp)
 395              		.cfi_restore 18
 396 02cc 83398101 		ld	s3,24(sp)
 397              		.cfi_restore 19
 398 02d0 13010104 		addi	sp,sp,64
 399              		.cfi_def_cfa_register 2
 400 02d4 67800000 		jr	ra
 401              		.cfi_endproc
 402              	.LFE35:
 404              		.globl	digits
GAS LISTING /tmp/ccXJUsJe.s 			page 10


 405              		.globl	lockPrint
 406              		.data
 407              		.align	3
 408              		.set	.LANCHOR0,. + 0
 411              	digits:
 412 0000 30313233 		.string	"0123456789ABCDEF"
 412      34353637 
 412      38394142 
 412      43444546 
 412      00
 413              		.section	.sbss,"aw",@nobits
 414              		.align	3
 417              	lockPrint:
 418 0000 00000000 		.zero	8
 418      00000000 
 419              		.text
 420              	.Letext0:
 421              		.file 2 "test/../h/../lib/hw.h"
 422              		.file 3 "test/../h/syscall_c.hpp"
 423              		.file 4 "test/printing.hpp"
GAS LISTING /tmp/ccXJUsJe.s 			page 11


DEFINED SYMBOLS
                            *ABS*:0000000000000000 printing.cpp
     /tmp/ccXJUsJe.s:9      .text:0000000000000000 _Z11printStringPKc
     /tmp/ccXJUsJe.s:13     .text:0000000000000000 .L0 
     /tmp/ccXJUsJe.s:15     .text:0000000000000000 .L0 
     /tmp/ccXJUsJe.s:16     .text:0000000000000004 .L0 
     /tmp/ccXJUsJe.s:20     .text:0000000000000010 .L0 
     /tmp/ccXJUsJe.s:21     .text:0000000000000010 .L0 
     /tmp/ccXJUsJe.s:22     .text:0000000000000010 .L0 
     /tmp/ccXJUsJe.s:24     .text:0000000000000014 .L0 
     /tmp/ccXJUsJe.s:29     .text:0000000000000018 .L0 
     /tmp/ccXJUsJe.s:417    .sbss:0000000000000000 lockPrint
     /tmp/ccXJUsJe.s:36     .text:0000000000000034 .L0 
     /tmp/ccXJUsJe.s:41     .text:0000000000000040 .L0 
     /tmp/ccXJUsJe.s:42     .text:0000000000000040 .L0 
     /tmp/ccXJUsJe.s:44     .text:0000000000000044 .L0 
     /tmp/ccXJUsJe.s:46     .text:0000000000000048 .L0 
     /tmp/ccXJUsJe.s:47     .text:0000000000000048 .L0 
     /tmp/ccXJUsJe.s:50     .text:0000000000000050 .L0 
     /tmp/ccXJUsJe.s:51     .text:0000000000000050 .L0 
     /tmp/ccXJUsJe.s:54     .text:0000000000000054 .L0 
     /tmp/ccXJUsJe.s:57     .text:0000000000000058 .L0 
     /tmp/ccXJUsJe.s:64     .text:0000000000000074 .L0 
     /tmp/ccXJUsJe.s:65     .text:0000000000000078 .L0 
     /tmp/ccXJUsJe.s:67     .text:000000000000007c .L0 
     /tmp/ccXJUsJe.s:69     .text:0000000000000080 .L0 
     /tmp/ccXJUsJe.s:72     .text:0000000000000084 .L0 
     /tmp/ccXJUsJe.s:74     .text:0000000000000088 .L0 
     /tmp/ccXJUsJe.s:80     .text:0000000000000088 _Z9getStringPci
     /tmp/ccXJUsJe.s:83     .text:0000000000000088 .L0 
     /tmp/ccXJUsJe.s:85     .text:0000000000000088 .L0 
     /tmp/ccXJUsJe.s:86     .text:000000000000008c .L0 
     /tmp/ccXJUsJe.s:93     .text:00000000000000a4 .L0 
     /tmp/ccXJUsJe.s:94     .text:00000000000000a4 .L0 
     /tmp/ccXJUsJe.s:95     .text:00000000000000a4 .L0 
     /tmp/ccXJUsJe.s:96     .text:00000000000000a4 .L0 
     /tmp/ccXJUsJe.s:97     .text:00000000000000a4 .L0 
     /tmp/ccXJUsJe.s:98     .text:00000000000000a4 .L0 
     /tmp/ccXJUsJe.s:100    .text:00000000000000a8 .L0 
     /tmp/ccXJUsJe.s:106    .text:00000000000000b0 .L0 
     /tmp/ccXJUsJe.s:113    .text:00000000000000cc .L0 
     /tmp/ccXJUsJe.s:118    .text:00000000000000d8 .L0 
     /tmp/ccXJUsJe.s:122    .text:00000000000000dc .L0 
     /tmp/ccXJUsJe.s:124    .text:00000000000000e0 .L0 
     /tmp/ccXJUsJe.s:126    .text:00000000000000e4 .L0 
     /tmp/ccXJUsJe.s:127    .text:00000000000000e4 .L0 
     /tmp/ccXJUsJe.s:130    .text:00000000000000ec .L0 
     /tmp/ccXJUsJe.s:133    .text:00000000000000f0 .L0 
     /tmp/ccXJUsJe.s:134    .text:00000000000000f0 .L0 
     /tmp/ccXJUsJe.s:135    .text:00000000000000f0 .L0 
     /tmp/ccXJUsJe.s:137    .text:00000000000000f4 .L0 
     /tmp/ccXJUsJe.s:139    .text:00000000000000f8 .L0 
     /tmp/ccXJUsJe.s:142    .text:0000000000000100 .L0 
     /tmp/ccXJUsJe.s:144    .text:0000000000000104 .L0 
     /tmp/ccXJUsJe.s:149    .text:0000000000000110 .L0 
     /tmp/ccXJUsJe.s:153    .text:0000000000000114 .L0 
     /tmp/ccXJUsJe.s:154    .text:0000000000000114 .L0 
GAS LISTING /tmp/ccXJUsJe.s 			page 12


     /tmp/ccXJUsJe.s:157    .text:0000000000000118 .L0 
     /tmp/ccXJUsJe.s:160    .text:000000000000011c .L0 
     /tmp/ccXJUsJe.s:167    .text:0000000000000138 .L0 
     /tmp/ccXJUsJe.s:168    .text:0000000000000138 .L0 
     /tmp/ccXJUsJe.s:170    .text:0000000000000140 .L0 
     /tmp/ccXJUsJe.s:172    .text:0000000000000144 .L0 
     /tmp/ccXJUsJe.s:174    .text:0000000000000148 .L0 
     /tmp/ccXJUsJe.s:176    .text:000000000000014c .L0 
     /tmp/ccXJUsJe.s:178    .text:0000000000000150 .L0 
     /tmp/ccXJUsJe.s:181    .text:0000000000000154 .L0 
     /tmp/ccXJUsJe.s:183    .text:0000000000000158 .L0 
     /tmp/ccXJUsJe.s:185    .text:000000000000015c .L0 
     /tmp/ccXJUsJe.s:191    .text:000000000000015c _Z11stringToIntPKc
     /tmp/ccXJUsJe.s:194    .text:000000000000015c .L0 
     /tmp/ccXJUsJe.s:196    .text:000000000000015c .L0 
     /tmp/ccXJUsJe.s:197    .text:0000000000000160 .L0 
     /tmp/ccXJUsJe.s:199    .text:0000000000000164 .L0 
     /tmp/ccXJUsJe.s:201    .text:0000000000000168 .L0 
     /tmp/ccXJUsJe.s:203    .text:0000000000000168 .L0 
     /tmp/ccXJUsJe.s:205    .text:0000000000000168 .L0 
     /tmp/ccXJUsJe.s:206    .text:0000000000000168 .L0 
     /tmp/ccXJUsJe.s:210    .text:000000000000016c .L0 
     /tmp/ccXJUsJe.s:211    .text:000000000000016c .L0 
     /tmp/ccXJUsJe.s:213    .text:0000000000000170 .L0 
     /tmp/ccXJUsJe.s:218    .text:0000000000000180 .L0 
     /tmp/ccXJUsJe.s:219    .text:0000000000000180 .L0 
     /tmp/ccXJUsJe.s:224    .text:000000000000018c .L0 
     /tmp/ccXJUsJe.s:227    .text:0000000000000190 .L0 
     /tmp/ccXJUsJe.s:229    .text:0000000000000194 .L0 
     /tmp/ccXJUsJe.s:232    .text:0000000000000198 .L0 
     /tmp/ccXJUsJe.s:236    .text:000000000000019c .L0 
     /tmp/ccXJUsJe.s:237    .text:000000000000019c .L0 
     /tmp/ccXJUsJe.s:240    .text:00000000000001a4 .L0 
     /tmp/ccXJUsJe.s:242    .text:00000000000001a8 .L0 
     /tmp/ccXJUsJe.s:244    .text:00000000000001ac .L0 
     /tmp/ccXJUsJe.s:250    .text:00000000000001ac _Z8printIntiii
     /tmp/ccXJUsJe.s:253    .text:00000000000001ac .L0 
     /tmp/ccXJUsJe.s:255    .text:00000000000001ac .L0 
     /tmp/ccXJUsJe.s:256    .text:00000000000001b0 .L0 
     /tmp/ccXJUsJe.s:262    .text:00000000000001c4 .L0 
     /tmp/ccXJUsJe.s:263    .text:00000000000001c4 .L0 
     /tmp/ccXJUsJe.s:264    .text:00000000000001c4 .L0 
     /tmp/ccXJUsJe.s:265    .text:00000000000001c4 .L0 
     /tmp/ccXJUsJe.s:266    .text:00000000000001c4 .L0 
     /tmp/ccXJUsJe.s:268    .text:00000000000001c8 .L0 
     /tmp/ccXJUsJe.s:275    .text:00000000000001d4 .L0 
     /tmp/ccXJUsJe.s:282    .text:00000000000001f0 .L0 
     /tmp/ccXJUsJe.s:287    .text:00000000000001fc .L0 
     /tmp/ccXJUsJe.s:288    .text:00000000000001fc .L0 
     /tmp/ccXJUsJe.s:289    .text:00000000000001fc .L0 
     /tmp/ccXJUsJe.s:291    .text:00000000000001fc .L0 
     /tmp/ccXJUsJe.s:292    .text:00000000000001fc .L0 
     /tmp/ccXJUsJe.s:294    .text:0000000000000200 .L0 
     /tmp/ccXJUsJe.s:297    .text:0000000000000204 .L0 
     /tmp/ccXJUsJe.s:298    .text:0000000000000204 .L0 
     /tmp/ccXJUsJe.s:301    .text:0000000000000208 .L0 
     /tmp/ccXJUsJe.s:305    .text:000000000000020c .L0 
GAS LISTING /tmp/ccXJUsJe.s 			page 13


     /tmp/ccXJUsJe.s:306    .text:000000000000020c .L0 
     /tmp/ccXJUsJe.s:311    .text:0000000000000214 .L0 
     /tmp/ccXJUsJe.s:312    .text:0000000000000214 .L0 
     /tmp/ccXJUsJe.s:313    .text:0000000000000214 .L0 
     /tmp/ccXJUsJe.s:315    .text:0000000000000218 .L0 
     /tmp/ccXJUsJe.s:318    .text:000000000000021c .L0 
     /tmp/ccXJUsJe.s:320    .text:0000000000000220 .L0 
     /tmp/ccXJUsJe.s:324    .text:0000000000000224 .L0 
     /tmp/ccXJUsJe.s:326    .text:0000000000000228 .L0 
     /tmp/ccXJUsJe.s:330    .text:000000000000022c .L0 
     /tmp/ccXJUsJe.s:331    .text:000000000000022c .L0 
     /tmp/ccXJUsJe.s:332    .text:000000000000022c .L0 
     /tmp/ccXJUsJe.s:335    .text:0000000000000234 .L0 
     /tmp/ccXJUsJe.s:338    .text:0000000000000238 .L0 
     /tmp/ccXJUsJe.s:344    .text:0000000000000250 .L0 
     /tmp/ccXJUsJe.s:348    .text:000000000000025c .L0 
     /tmp/ccXJUsJe.s:352    .text:0000000000000264 .L0 
     /tmp/ccXJUsJe.s:354    .text:0000000000000268 .L0 
     /tmp/ccXJUsJe.s:357    .text:000000000000026c .L0 
     /tmp/ccXJUsJe.s:358    .text:000000000000026c .L0 
     /tmp/ccXJUsJe.s:363    .text:000000000000027c .L0 
     /tmp/ccXJUsJe.s:367    .text:0000000000000280 .L0 
     /tmp/ccXJUsJe.s:368    .text:0000000000000280 .L0 
     /tmp/ccXJUsJe.s:372    .text:0000000000000288 .L0 
     /tmp/ccXJUsJe.s:373    .text:0000000000000288 .L0 
     /tmp/ccXJUsJe.s:381    .text:00000000000002a0 .L0 
     /tmp/ccXJUsJe.s:388    .text:00000000000002bc .L0 
     /tmp/ccXJUsJe.s:389    .text:00000000000002c0 .L0 
     /tmp/ccXJUsJe.s:391    .text:00000000000002c4 .L0 
     /tmp/ccXJUsJe.s:393    .text:00000000000002c8 .L0 
     /tmp/ccXJUsJe.s:395    .text:00000000000002cc .L0 
     /tmp/ccXJUsJe.s:397    .text:00000000000002d0 .L0 
     /tmp/ccXJUsJe.s:399    .text:00000000000002d4 .L0 
     /tmp/ccXJUsJe.s:401    .text:00000000000002d8 .L0 
     /tmp/ccXJUsJe.s:411    .data:0000000000000000 digits
     /tmp/ccXJUsJe.s:408    .data:0000000000000000 .LANCHOR0
     /tmp/ccXJUsJe.s:424    .text:00000000000002d8 .L0 
     /tmp/ccXJUsJe.s:31     .text:0000000000000020 .L0 
     /tmp/ccXJUsJe.s:59     .text:0000000000000060 .L0 
     /tmp/ccXJUsJe.s:108    .text:00000000000000b8 .L0 
     /tmp/ccXJUsJe.s:162    .text:0000000000000124 .L0 
     /tmp/ccXJUsJe.s:277    .text:00000000000001dc .L0 
     /tmp/ccXJUsJe.s:340    .text:0000000000000240 .L0 
     /tmp/ccXJUsJe.s:383    .text:00000000000002a8 .L0 
     /tmp/ccXJUsJe.s:39     .text:0000000000000040 .L2
     /tmp/ccXJUsJe.s:27     .text:0000000000000018 .L3
     /tmp/ccXJUsJe.s:55     .text:0000000000000058 .L4
     /tmp/ccXJUsJe.s:116    .text:00000000000000d8 .L11
     /tmp/ccXJUsJe.s:104    .text:00000000000000b0 .L8
     /tmp/ccXJUsJe.s:151    .text:0000000000000114 .L9
     /tmp/ccXJUsJe.s:147    .text:0000000000000110 .L12
     /tmp/ccXJUsJe.s:119    .text:00000000000000dc .L7
     /tmp/ccXJUsJe.s:158    .text:000000000000011c .L10
     /tmp/ccXJUsJe.s:234    .text:000000000000019c .L15
     /tmp/ccXJUsJe.s:208    .text:000000000000016c .L16
     /tmp/ccXJUsJe.s:285    .text:00000000000001fc .L19
     /tmp/ccXJUsJe.s:273    .text:00000000000001d4 .L20
GAS LISTING /tmp/ccXJUsJe.s 			page 14


     /tmp/ccXJUsJe.s:295    .text:0000000000000204 .L21
     /tmp/ccXJUsJe.s:309    .text:0000000000000214 .L29
     /tmp/ccXJUsJe.s:328    .text:000000000000022c .L23
     /tmp/ccXJUsJe.s:303    .text:000000000000020c .L22
     /tmp/ccXJUsJe.s:322    .text:0000000000000224 .L27
     /tmp/ccXJUsJe.s:365    .text:0000000000000280 .L26
     /tmp/ccXJUsJe.s:379    .text:00000000000002a0 .L25
     /tmp/ccXJUsJe.s:953    .debug_abbrev:0000000000000000 .Ldebug_abbrev0
     /tmp/ccXJUsJe.s:1578   .debug_str:0000000000000051 .LASF39
     /tmp/ccXJUsJe.s:1640   .debug_str:0000000000000297 .LASF40
     /tmp/ccXJUsJe.s:1604   .debug_str:00000000000001af .LASF41
     /tmp/ccXJUsJe.s:5      .text:0000000000000000 .Ltext0
     /tmp/ccXJUsJe.s:420    .text:00000000000002d8 .Letext0
     /tmp/ccXJUsJe.s:1564   .debug_line:0000000000000000 .Ldebug_line0
     /tmp/ccXJUsJe.s:1612   .debug_str:00000000000001f5 .LASF3
     /tmp/ccXJUsJe.s:1616   .debug_str:00000000000001ff .LASF0
     /tmp/ccXJUsJe.s:1602   .debug_str:000000000000019c .LASF1
     /tmp/ccXJUsJe.s:1594   .debug_str:000000000000016f .LASF2
     /tmp/ccXJUsJe.s:1576   .debug_str:000000000000004a .LASF4
     /tmp/ccXJUsJe.s:1608   .debug_str:00000000000001d0 .LASF5
     /tmp/ccXJUsJe.s:1568   .debug_str:0000000000000007 .LASF6
     /tmp/ccXJUsJe.s:1644   .debug_str:00000000000002b2 .LASF7
     /tmp/ccXJUsJe.s:1588   .debug_str:0000000000000144 .LASF8
     /tmp/ccXJUsJe.s:1620   .debug_str:0000000000000211 .LASF9
     /tmp/ccXJUsJe.s:1598   .debug_str:0000000000000182 .LASF10
     /tmp/ccXJUsJe.s:1648   .debug_str:00000000000002d1 .LASF11
     /tmp/ccXJUsJe.s:1590   .debug_str:0000000000000157 .LASF12
     /tmp/ccXJUsJe.s:1638   .debug_str:0000000000000287 .LASF13
     /tmp/ccXJUsJe.s:1624   .debug_str:000000000000022d .LASF14
     /tmp/ccXJUsJe.s:1600   .debug_str:0000000000000190 .LASF15
     /tmp/ccXJUsJe.s:1574   .debug_str:0000000000000034 .LASF16
     /tmp/ccXJUsJe.s:1572   .debug_str:000000000000001e .LASF17
     /tmp/ccXJUsJe.s:1580   .debug_str:0000000000000115 .LASF18
     /tmp/ccXJUsJe.s:1606   .debug_str:00000000000001c6 .LASF19
     /tmp/ccXJUsJe.s:1618   .debug_str:000000000000020c .LASF20
     /tmp/ccXJUsJe.s:1566   .debug_str:0000000000000000 .LASF21
     /tmp/ccXJUsJe.s:1592   .debug_str:0000000000000166 .LASF27
     /tmp/ccXJUsJe.s:1628   .debug_str:000000000000024d .LASF29
     /tmp/ccXJUsJe.s:251    .text:00000000000001ac .LFB35
     /tmp/ccXJUsJe.s:402    .text:00000000000002d8 .LFE35
     /tmp/ccXJUsJe.s:1322   .debug_loc:0000000000000000 .LLST8
     /tmp/ccXJUsJe.s:1614   .debug_str:00000000000001fa .LASF22
     /tmp/ccXJUsJe.s:1336   .debug_loc:0000000000000039 .LLST9
     /tmp/ccXJUsJe.s:1350   .debug_loc:0000000000000072 .LLST10
     /tmp/ccXJUsJe.s:1364   .debug_loc:00000000000000ab .LLST11
     /tmp/ccXJUsJe.s:1398   .debug_loc:0000000000000134 .LLST12
     /tmp/ccXJUsJe.s:1419   .debug_loc:0000000000000192 .LLST13
     /tmp/ccXJUsJe.s:279    .text:00000000000001ec .LVL29
     /tmp/ccXJUsJe.s:283    .text:00000000000001f8 .LVL30
     /tmp/ccXJUsJe.s:377    .text:000000000000029c .LVL43
     /tmp/ccXJUsJe.s:385    .text:00000000000002b8 .LVL44
     /tmp/ccXJUsJe.s:1622   .debug_str:0000000000000221 .LASF23
     /tmp/ccXJUsJe.s:1634   .debug_str:000000000000026a .LASF25
     /tmp/ccXJUsJe.s:192    .text:000000000000015c .LFB34
     /tmp/ccXJUsJe.s:245    .text:00000000000001ac .LFE34
     /tmp/ccXJUsJe.s:1442   .debug_loc:0000000000000201 .LLST6
     /tmp/ccXJUsJe.s:1453   .debug_loc:0000000000000237 .LLST7
GAS LISTING /tmp/ccXJUsJe.s 			page 15


     /tmp/ccXJUsJe.s:1636   .debug_str:000000000000027d .LASF24
     /tmp/ccXJUsJe.s:1570   .debug_str:000000000000000e .LASF26
     /tmp/ccXJUsJe.s:81     .text:0000000000000088 .LFB33
     /tmp/ccXJUsJe.s:186    .text:000000000000015c .LFE33
     /tmp/ccXJUsJe.s:1481   .debug_loc:000000000000029c .LLST1
     /tmp/ccXJUsJe.s:1496   .debug_loc:00000000000002e5 .LLST2
     /tmp/ccXJUsJe.s:1510   .debug_loc:000000000000031e .LLST3
     /tmp/ccXJUsJe.s:1521   .debug_loc:0000000000000354 .LLST4
     /tmp/ccXJUsJe.s:1533   .debug_loc:000000000000037c .LLST5
     /tmp/ccXJUsJe.s:110    .text:00000000000000c8 .LVL10
     /tmp/ccXJUsJe.s:114    .text:00000000000000d4 .LVL11
     /tmp/ccXJUsJe.s:128    .text:00000000000000ec .LVL13
     /tmp/ccXJUsJe.s:164    .text:0000000000000134 .LVL17
     /tmp/ccXJUsJe.s:1646   .debug_str:00000000000002c5 .LASF28
     /tmp/ccXJUsJe.s:1610   .debug_str:00000000000001e2 .LASF30
     /tmp/ccXJUsJe.s:10     .text:0000000000000000 .LFB32
     /tmp/ccXJUsJe.s:75     .text:0000000000000088 .LFE32
     /tmp/ccXJUsJe.s:1584   .debug_str:0000000000000128 .LASF31
     /tmp/ccXJUsJe.s:1540   .debug_loc:000000000000039f .LLST0
     /tmp/ccXJUsJe.s:33     .text:0000000000000030 .LVL2
     /tmp/ccXJUsJe.s:37     .text:000000000000003c .LVL3
     /tmp/ccXJUsJe.s:48     .text:0000000000000050 .LVL4
     /tmp/ccXJUsJe.s:61     .text:0000000000000070 .LVL6
     /tmp/ccXJUsJe.s:1582   .debug_str:000000000000011a .LASF32
     /tmp/ccXJUsJe.s:1586   .debug_str:000000000000012f .LASF33
     /tmp/ccXJUsJe.s:1626   .debug_str:000000000000023d .LASF34
     /tmp/ccXJUsJe.s:1632   .debug_str:0000000000000261 .LASF35
     /tmp/ccXJUsJe.s:1630   .debug_str:000000000000025c .LASF36
     /tmp/ccXJUsJe.s:1642   .debug_str:00000000000002a9 .LASF37
     /tmp/ccXJUsJe.s:1596   .debug_str:000000000000017d .LASF38
     /tmp/ccXJUsJe.s:254    .text:00000000000001ac .LVL27
     /tmp/ccXJUsJe.s:272    .text:00000000000001d4 .LVL28
     /tmp/ccXJUsJe.s:302    .text:000000000000020c .LVL33
     /tmp/ccXJUsJe.s:308    .text:0000000000000214 .LVL34
     /tmp/ccXJUsJe.s:321    .text:0000000000000224 .LVL36
     /tmp/ccXJUsJe.s:327    .text:000000000000022c .LVL37
     /tmp/ccXJUsJe.s:336    .text:0000000000000238 .LVL38
     /tmp/ccXJUsJe.s:356    .text:000000000000026c .LVL40
     /tmp/ccXJUsJe.s:364    .text:0000000000000280 .LVL41
     /tmp/ccXJUsJe.s:369    .text:0000000000000284 .LVL42
     /tmp/ccXJUsJe.s:290    .text:00000000000001fc .LVL31
     /tmp/ccXJUsJe.s:299    .text:0000000000000208 .LVL32
     /tmp/ccXJUsJe.s:316    .text:000000000000021c .LVL35
     /tmp/ccXJUsJe.s:350    .text:0000000000000264 .LVL39
     /tmp/ccXJUsJe.s:195    .text:000000000000015c .LVL19
     /tmp/ccXJUsJe.s:225    .text:0000000000000190 .LVL23
     /tmp/ccXJUsJe.s:238    .text:00000000000001a0 .LVL26
     /tmp/ccXJUsJe.s:204    .text:0000000000000168 .LVL20
     /tmp/ccXJUsJe.s:207    .text:000000000000016c .LVL21
     /tmp/ccXJUsJe.s:221    .text:0000000000000188 .LVL22
     /tmp/ccXJUsJe.s:230    .text:0000000000000198 .LVL24
     /tmp/ccXJUsJe.s:233    .text:000000000000019c .LVL25
     /tmp/ccXJUsJe.s:84     .text:0000000000000088 .LVL8
     /tmp/ccXJUsJe.s:103    .text:00000000000000b0 .LVL9
     /tmp/ccXJUsJe.s:179    .text:0000000000000150 .LVL18
     /tmp/ccXJUsJe.s:120    .text:00000000000000dc .LVL12
     /tmp/ccXJUsJe.s:132    .text:00000000000000f0 .LVL14
GAS LISTING /tmp/ccXJUsJe.s 			page 16


     /tmp/ccXJUsJe.s:150    .text:0000000000000114 .LVL15
     /tmp/ccXJUsJe.s:155    .text:0000000000000118 .LVL16
     /tmp/ccXJUsJe.s:14     .text:0000000000000000 .LVL0
     /tmp/ccXJUsJe.s:26     .text:0000000000000018 .LVL1
     /tmp/ccXJUsJe.s:70     .text:0000000000000080 .LVL7
     /tmp/ccXJUsJe.s:425    .debug_info:0000000000000000 .Ldebug_info0

UNDEFINED SYMBOLS
copy_and_swap
_Z15thread_dispatchv
_Z4putcc
_Z4getcv
