GAS LISTING /tmp/cch81QQA.s 			page 1


   1              		.file	"System_Mode_test.cpp"
   2              		.option nopic
   3              		.option norelax
   4              		.text
   5              	.Ltext0:
   6              		.align	2
   8              	_ZL9fibonaccim:
   9              	.LFB32:
  10              		.file 1 "test/System_Mode_test.cpp"
   1:test/System_Mode_test.cpp **** 
   2:test/System_Mode_test.cpp **** #include "../h/syscall_c.hpp"
   3:test/System_Mode_test.cpp **** 
   4:test/System_Mode_test.cpp **** #include "printing.hpp"
   5:test/System_Mode_test.cpp **** 
   6:test/System_Mode_test.cpp **** static volatile bool finishedA = false;
   7:test/System_Mode_test.cpp **** static volatile bool finishedB = false;
   8:test/System_Mode_test.cpp **** static volatile bool finishedC = false;
   9:test/System_Mode_test.cpp **** static volatile bool finishedD = false;
  10:test/System_Mode_test.cpp **** 
  11:test/System_Mode_test.cpp **** static uint64 fibonacci(uint64 n) {
  11              		.loc 1 11 35
  12              		.cfi_startproc
  13              	.LVL0:
  12:test/System_Mode_test.cpp ****     if (n == 0 || n == 1) { return n; }
  14              		.loc 1 12 5
  15 0000 93071000 		li	a5,1
  16 0004 63F8A706 		bleu	a0,a5,.L6
  11:test/System_Mode_test.cpp ****     if (n == 0 || n == 1) { return n; }
  17              		.loc 1 11 35 is_stmt 0
  18 0008 130101FE 		addi	sp,sp,-32
  19              		.cfi_def_cfa_offset 32
  20 000c 233C1100 		sd	ra,24(sp)
  21 0010 23388100 		sd	s0,16(sp)
  22 0014 23349100 		sd	s1,8(sp)
  23 0018 23302101 		sd	s2,0(sp)
  24              		.cfi_offset 1, -8
  25              		.cfi_offset 8, -16
  26              		.cfi_offset 9, -24
  27              		.cfi_offset 18, -32
  28 001c 13040102 		addi	s0,sp,32
  29              		.cfi_def_cfa 8, 0
  30 0020 93040500 		mv	s1,a0
  13:test/System_Mode_test.cpp ****     if (n % 10 == 0) { thread_dispatch(); }
  31              		.loc 1 13 5 is_stmt 1
  32              		.loc 1 13 11 is_stmt 0
  33 0024 9307A000 		li	a5,10
  34 0028 B377F502 		remu	a5,a0,a5
  35              		.loc 1 13 5
  36 002c 638E0702 		beqz	a5,.L9
  37              	.LVL1:
  38              	.L3:
  14:test/System_Mode_test.cpp ****     return fibonacci(n - 1) + fibonacci(n - 2);
  39              		.loc 1 14 5 is_stmt 1
  40              		.loc 1 14 21 is_stmt 0
  41 0030 1385F4FF 		addi	a0,s1,-1
  42 0034 97000000 		call	_ZL9fibonaccim
  42      E7800000 
GAS LISTING /tmp/cch81QQA.s 			page 2


  43              	.LVL2:
  44 003c 13090500 		mv	s2,a0
  45              		.loc 1 14 40
  46 0040 1385E4FF 		addi	a0,s1,-2
  47 0044 97000000 		call	_ZL9fibonaccim
  47      E7800000 
  48              	.LVL3:
  49              		.loc 1 14 46
  50 004c 3305A900 		add	a0,s2,a0
  15:test/System_Mode_test.cpp **** }
  51              		.loc 1 15 1
  52 0050 83308101 		ld	ra,24(sp)
  53              		.cfi_remember_state
  54              		.cfi_restore 1
  55 0054 03340101 		ld	s0,16(sp)
  56              		.cfi_restore 8
  57 0058 83348100 		ld	s1,8(sp)
  58              		.cfi_restore 9
  59              	.LVL4:
  60 005c 03390100 		ld	s2,0(sp)
  61              		.cfi_restore 18
  62 0060 13010102 		addi	sp,sp,32
  63              		.cfi_def_cfa_register 2
  64 0064 67800000 		jr	ra
  65              	.LVL5:
  66              	.L9:
  67              		.cfi_restore_state
  13:test/System_Mode_test.cpp ****     if (n % 10 == 0) { thread_dispatch(); }
  68              		.loc 1 13 24 is_stmt 1 discriminator 1
  13:test/System_Mode_test.cpp ****     if (n % 10 == 0) { thread_dispatch(); }
  69              		.loc 1 13 39 is_stmt 0 discriminator 1
  70 0068 97000000 		call	_Z15thread_dispatchv
  70      E7800000 
  71              	.LVL6:
  72 0070 6FF01FFC 		j	.L3
  73              	.LVL7:
  74              	.L6:
  75              		.cfi_def_cfa_register 2
  76              		.cfi_restore 1
  77              		.cfi_restore 8
  78              		.cfi_restore 9
  79              		.cfi_restore 18
  80              		.loc 1 15 1
  81 0074 67800000 		ret
  82              		.cfi_endproc
  83              	.LFE32:
  85              		.align	2
  87              	_ZL11workerBodyDPv:
  88              	.LFB36:
  16:test/System_Mode_test.cpp **** 
  17:test/System_Mode_test.cpp **** static void workerBodyA(void* arg) {
  18:test/System_Mode_test.cpp ****     for (uint64 i = 0; i < 10; i++) {
  19:test/System_Mode_test.cpp ****         printString("A: i="); printInt(i); printString("\n");
  20:test/System_Mode_test.cpp ****         for (uint64 j = 0; j < 10000; j++) {
  21:test/System_Mode_test.cpp ****             for (uint64 k = 0; k < 30000; k++) { /* busy wait */ }
  22:test/System_Mode_test.cpp ****             thread_dispatch();
  23:test/System_Mode_test.cpp ****         }
GAS LISTING /tmp/cch81QQA.s 			page 3


  24:test/System_Mode_test.cpp ****     }
  25:test/System_Mode_test.cpp ****     printString("A finished!\n");
  26:test/System_Mode_test.cpp ****     finishedA = true;
  27:test/System_Mode_test.cpp **** }
  28:test/System_Mode_test.cpp **** 
  29:test/System_Mode_test.cpp **** static void workerBodyB(void* arg) {
  30:test/System_Mode_test.cpp ****     for (uint64 i = 0; i < 16; i++) {
  31:test/System_Mode_test.cpp ****         printString("B: i="); printInt(i); printString("\n");
  32:test/System_Mode_test.cpp ****         for (uint64 j = 0; j < 10000; j++) {
  33:test/System_Mode_test.cpp ****             for (uint64 k = 0; k < 30000; k++) { /* busy wait */ }
  34:test/System_Mode_test.cpp ****             thread_dispatch();
  35:test/System_Mode_test.cpp ****         }
  36:test/System_Mode_test.cpp ****         if (i == 10) {
  37:test/System_Mode_test.cpp ****             asm volatile("csrr t6, sepc");
  38:test/System_Mode_test.cpp ****         }
  39:test/System_Mode_test.cpp ****     }
  40:test/System_Mode_test.cpp ****     printString("B finished!\n");
  41:test/System_Mode_test.cpp ****     finishedB = true;
  42:test/System_Mode_test.cpp ****     thread_dispatch();
  43:test/System_Mode_test.cpp **** }
  44:test/System_Mode_test.cpp **** 
  45:test/System_Mode_test.cpp **** static void workerBodyC(void* arg) {
  46:test/System_Mode_test.cpp ****     uint8 i = 0;
  47:test/System_Mode_test.cpp ****     for (; i < 3; i++) {
  48:test/System_Mode_test.cpp ****         printString("C: i="); printInt(i); printString("\n");
  49:test/System_Mode_test.cpp ****     }
  50:test/System_Mode_test.cpp **** 
  51:test/System_Mode_test.cpp ****     printString("C: dispatch\n");
  52:test/System_Mode_test.cpp ****     __asm__ ("li t1, 7");
  53:test/System_Mode_test.cpp ****     thread_dispatch();
  54:test/System_Mode_test.cpp **** 
  55:test/System_Mode_test.cpp ****     uint64 t1 = 0;
  56:test/System_Mode_test.cpp ****     __asm__ ("mv %[t1], t1" : [t1] "=r"(t1));
  57:test/System_Mode_test.cpp **** 
  58:test/System_Mode_test.cpp ****     printString("C: t1="); printInt(t1); printString("\n");
  59:test/System_Mode_test.cpp **** 
  60:test/System_Mode_test.cpp ****     uint64 result = fibonacci(12);
  61:test/System_Mode_test.cpp ****     printString("C: fibonaci="); printInt(result); printString("\n");
  62:test/System_Mode_test.cpp **** 
  63:test/System_Mode_test.cpp ****     for (; i < 6; i++) {
  64:test/System_Mode_test.cpp ****         printString("C: i="); printInt(i); printString("\n");
  65:test/System_Mode_test.cpp ****     }
  66:test/System_Mode_test.cpp **** 
  67:test/System_Mode_test.cpp ****     printString("A finished!\n");
  68:test/System_Mode_test.cpp ****     finishedC = true;
  69:test/System_Mode_test.cpp ****     thread_dispatch();
  70:test/System_Mode_test.cpp **** }
  71:test/System_Mode_test.cpp **** 
  72:test/System_Mode_test.cpp **** static void workerBodyD(void* arg) {
  89              		.loc 1 72 36 is_stmt 1
  90              		.cfi_startproc
  91              	.LVL8:
  92 0078 130101FE 		addi	sp,sp,-32
  93              		.cfi_def_cfa_offset 32
  94 007c 233C1100 		sd	ra,24(sp)
  95 0080 23388100 		sd	s0,16(sp)
  96 0084 23349100 		sd	s1,8(sp)
GAS LISTING /tmp/cch81QQA.s 			page 4


  97 0088 23302101 		sd	s2,0(sp)
  98              		.cfi_offset 1, -8
  99              		.cfi_offset 8, -16
 100              		.cfi_offset 9, -24
 101              		.cfi_offset 18, -32
 102 008c 13040102 		addi	s0,sp,32
 103              		.cfi_def_cfa 8, 0
  73:test/System_Mode_test.cpp ****     uint8 i = 10;
 104              		.loc 1 73 5
 105              	.LVL9:
 106              		.loc 1 73 11 is_stmt 0
 107 0090 9304A000 		li	s1,10
 108              	.LVL10:
 109              	.L12:
  74:test/System_Mode_test.cpp ****     for (; i < 13; i++) {
 110              		.loc 1 74 5 is_stmt 1 discriminator 2
 111              		.loc 1 74 14 is_stmt 0 discriminator 2
 112 0094 9307C000 		li	a5,12
 113 0098 63E29704 		bgtu	s1,a5,.L11
  75:test/System_Mode_test.cpp ****         printString("D: i="); printInt(i); printString("\n");
 114              		.loc 1 75 9 is_stmt 1 discriminator 1
 115              		.loc 1 75 20 is_stmt 0 discriminator 1
 116 009c 17050000 		lla	a0,.LC0
 116      13050500 
 117 00a4 97000000 		call	_Z11printStringPKc
 117      E7800000 
 118              	.LVL11:
 119              		.loc 1 75 31 is_stmt 1 discriminator 1
 120              		.loc 1 75 39 is_stmt 0 discriminator 1
 121 00ac 13060000 		li	a2,0
 122 00b0 9305A000 		li	a1,10
 123 00b4 13850400 		mv	a0,s1
 124 00b8 97000000 		call	_Z8printIntiii
 124      E7800000 
 125              	.LVL12:
 126              		.loc 1 75 44 is_stmt 1 discriminator 1
 127              		.loc 1 75 55 is_stmt 0 discriminator 1
 128 00c0 17050000 		lla	a0,.LC1
 128      13050500 
 129 00c8 97000000 		call	_Z11printStringPKc
 129      E7800000 
 130              	.LVL13:
  74:test/System_Mode_test.cpp ****     for (; i < 13; i++) {
 131              		.loc 1 74 5 discriminator 1
 132 00d0 9B841400 		addiw	s1,s1,1
 133              	.LVL14:
 134 00d4 93F4F40F 		andi	s1,s1,0xff
 135              	.LVL15:
 136 00d8 6FF0DFFB 		j	.L12
 137              	.L11:
  76:test/System_Mode_test.cpp ****     }
  77:test/System_Mode_test.cpp **** 
  78:test/System_Mode_test.cpp ****     printString("D: dispatch\n");
 138              		.loc 1 78 5 is_stmt 1
 139              		.loc 1 78 16 is_stmt 0
 140 00dc 17050000 		lla	a0,.LC2
 140      13050500 
GAS LISTING /tmp/cch81QQA.s 			page 5


 141 00e4 97000000 		call	_Z11printStringPKc
 141      E7800000 
 142              	.LVL16:
  79:test/System_Mode_test.cpp ****     __asm__ ("li t1, 5");
 143              		.loc 1 79 5 is_stmt 1
 144              		.loc 1 79 25 is_stmt 0
 145              	#APP
 146              	# 79 "test/System_Mode_test.cpp" 1
  80              	    thread_dispatch();
 147              		li t1, 5
 148              	# 0 "" 2
 149              		.loc 1 80 5 is_stmt 1
 150              		.loc 1 80 20 is_stmt 0
 151              	#NO_APP
 152 00f0 97000000 		call	_Z15thread_dispatchv
 152      E7800000 
 153              	.LVL17:
  81:test/System_Mode_test.cpp **** 
  82:test/System_Mode_test.cpp ****     uint64 result = fibonacci(16);
 154              		.loc 1 82 5 is_stmt 1
 155              		.loc 1 82 30 is_stmt 0
 156 00f8 13050001 		li	a0,16
 157 00fc 97000000 		call	_ZL9fibonaccim
 157      E7800000 
 158              	.LVL18:
 159 0104 13090500 		mv	s2,a0
 160              	.LVL19:
  83:test/System_Mode_test.cpp ****     printString("D: fibonaci="); printInt(result); printString("\n");
 161              		.loc 1 83 5 is_stmt 1
 162              		.loc 1 83 16 is_stmt 0
 163 0108 17050000 		lla	a0,.LC3
 163      13050500 
 164              	.LVL20:
 165 0110 97000000 		call	_Z11printStringPKc
 165      E7800000 
 166              	.LVL21:
 167              		.loc 1 83 34 is_stmt 1
 168              		.loc 1 83 42 is_stmt 0
 169 0118 13060000 		li	a2,0
 170 011c 9305A000 		li	a1,10
 171 0120 1B050900 		sext.w	a0,s2
 172 0124 97000000 		call	_Z8printIntiii
 172      E7800000 
 173              	.LVL22:
 174              		.loc 1 83 52 is_stmt 1
 175              		.loc 1 83 63 is_stmt 0
 176 012c 17050000 		lla	a0,.LC1
 176      13050500 
 177 0134 97000000 		call	_Z11printStringPKc
 177      E7800000 
 178              	.LVL23:
 179              	.L14:
  84:test/System_Mode_test.cpp **** 
  85:test/System_Mode_test.cpp ****     for (; i < 16; i++) {
 180              		.loc 1 85 5 is_stmt 1 discriminator 2
 181              		.loc 1 85 14 is_stmt 0 discriminator 2
 182 013c 9307F000 		li	a5,15
GAS LISTING /tmp/cch81QQA.s 			page 6


 183 0140 63E29704 		bgtu	s1,a5,.L13
  86:test/System_Mode_test.cpp ****         printString("D: i="); printInt(i); printString("\n");
 184              		.loc 1 86 9 is_stmt 1 discriminator 1
 185              		.loc 1 86 20 is_stmt 0 discriminator 1
 186 0144 17050000 		lla	a0,.LC0
 186      13050500 
 187 014c 97000000 		call	_Z11printStringPKc
 187      E7800000 
 188              	.LVL24:
 189              		.loc 1 86 31 is_stmt 1 discriminator 1
 190              		.loc 1 86 39 is_stmt 0 discriminator 1
 191 0154 13060000 		li	a2,0
 192 0158 9305A000 		li	a1,10
 193 015c 13850400 		mv	a0,s1
 194 0160 97000000 		call	_Z8printIntiii
 194      E7800000 
 195              	.LVL25:
 196              		.loc 1 86 44 is_stmt 1 discriminator 1
 197              		.loc 1 86 55 is_stmt 0 discriminator 1
 198 0168 17050000 		lla	a0,.LC1
 198      13050500 
 199 0170 97000000 		call	_Z11printStringPKc
 199      E7800000 
 200              	.LVL26:
  85:test/System_Mode_test.cpp ****         printString("D: i="); printInt(i); printString("\n");
 201              		.loc 1 85 5 discriminator 1
 202 0178 9B841400 		addiw	s1,s1,1
 203              	.LVL27:
 204 017c 93F4F40F 		andi	s1,s1,0xff
 205              	.LVL28:
 206 0180 6FF0DFFB 		j	.L14
 207              	.L13:
  87:test/System_Mode_test.cpp ****     }
  88:test/System_Mode_test.cpp **** 
  89:test/System_Mode_test.cpp ****     printString("D finished!\n");
 208              		.loc 1 89 5 is_stmt 1
 209              		.loc 1 89 16 is_stmt 0
 210 0184 17050000 		lla	a0,.LC4
 210      13050500 
 211 018c 97000000 		call	_Z11printStringPKc
 211      E7800000 
 212              	.LVL29:
  90:test/System_Mode_test.cpp ****     finishedD = true;
 213              		.loc 1 90 5 is_stmt 1
 214              		.loc 1 90 15 is_stmt 0
 215 0194 93071000 		li	a5,1
 216 0198 17070000 		sb	a5,_ZL9finishedD,a4
 216      2300F700 
  91:test/System_Mode_test.cpp ****     thread_dispatch();
 217              		.loc 1 91 5 is_stmt 1
 218              		.loc 1 91 20 is_stmt 0
 219 01a0 97000000 		call	_Z15thread_dispatchv
 219      E7800000 
 220              	.LVL30:
  92:test/System_Mode_test.cpp **** }
 221              		.loc 1 92 1
 222 01a8 83308101 		ld	ra,24(sp)
GAS LISTING /tmp/cch81QQA.s 			page 7


 223              		.cfi_restore 1
 224 01ac 03340101 		ld	s0,16(sp)
 225              		.cfi_restore 8
 226 01b0 83348100 		ld	s1,8(sp)
 227              		.cfi_restore 9
 228              	.LVL31:
 229 01b4 03390100 		ld	s2,0(sp)
 230              		.cfi_restore 18
 231              	.LVL32:
 232 01b8 13010102 		addi	sp,sp,32
 233              		.cfi_def_cfa_register 2
 234 01bc 67800000 		jr	ra
 235              		.cfi_endproc
 236              	.LFE36:
 238              		.align	2
 240              	_ZL11workerBodyCPv:
 241              	.LFB35:
  45:test/System_Mode_test.cpp ****     uint8 i = 0;
 242              		.loc 1 45 36 is_stmt 1
 243              		.cfi_startproc
 244              	.LVL33:
 245 01c0 130101FE 		addi	sp,sp,-32
 246              		.cfi_def_cfa_offset 32
 247 01c4 233C1100 		sd	ra,24(sp)
 248 01c8 23388100 		sd	s0,16(sp)
 249 01cc 23349100 		sd	s1,8(sp)
 250 01d0 23302101 		sd	s2,0(sp)
 251              		.cfi_offset 1, -8
 252              		.cfi_offset 8, -16
 253              		.cfi_offset 9, -24
 254              		.cfi_offset 18, -32
 255 01d4 13040102 		addi	s0,sp,32
 256              		.cfi_def_cfa 8, 0
  46:test/System_Mode_test.cpp ****     for (; i < 3; i++) {
 257              		.loc 1 46 5
 258              	.LVL34:
  46:test/System_Mode_test.cpp ****     for (; i < 3; i++) {
 259              		.loc 1 46 11 is_stmt 0
 260 01d8 93040000 		li	s1,0
 261              	.LVL35:
 262              	.L18:
  47:test/System_Mode_test.cpp ****         printString("C: i="); printInt(i); printString("\n");
 263              		.loc 1 47 5 is_stmt 1 discriminator 2
  47:test/System_Mode_test.cpp ****         printString("C: i="); printInt(i); printString("\n");
 264              		.loc 1 47 14 is_stmt 0 discriminator 2
 265 01dc 93072000 		li	a5,2
 266 01e0 63E29704 		bgtu	s1,a5,.L17
  48:test/System_Mode_test.cpp ****     }
 267              		.loc 1 48 9 is_stmt 1 discriminator 1
  48:test/System_Mode_test.cpp ****     }
 268              		.loc 1 48 20 is_stmt 0 discriminator 1
 269 01e4 17050000 		lla	a0,.LC5
 269      13050500 
 270 01ec 97000000 		call	_Z11printStringPKc
 270      E7800000 
 271              	.LVL36:
  48:test/System_Mode_test.cpp ****     }
GAS LISTING /tmp/cch81QQA.s 			page 8


 272              		.loc 1 48 31 is_stmt 1 discriminator 1
  48:test/System_Mode_test.cpp ****     }
 273              		.loc 1 48 39 is_stmt 0 discriminator 1
 274 01f4 13060000 		li	a2,0
 275 01f8 9305A000 		li	a1,10
 276 01fc 13850400 		mv	a0,s1
 277 0200 97000000 		call	_Z8printIntiii
 277      E7800000 
 278              	.LVL37:
  48:test/System_Mode_test.cpp ****     }
 279              		.loc 1 48 44 is_stmt 1 discriminator 1
  48:test/System_Mode_test.cpp ****     }
 280              		.loc 1 48 55 is_stmt 0 discriminator 1
 281 0208 17050000 		lla	a0,.LC1
 281      13050500 
 282 0210 97000000 		call	_Z11printStringPKc
 282      E7800000 
 283              	.LVL38:
  47:test/System_Mode_test.cpp ****         printString("C: i="); printInt(i); printString("\n");
 284              		.loc 1 47 5 discriminator 1
 285 0218 9B841400 		addiw	s1,s1,1
 286              	.LVL39:
 287 021c 93F4F40F 		andi	s1,s1,0xff
 288              	.LVL40:
 289 0220 6FF0DFFB 		j	.L18
 290              	.L17:
  51:test/System_Mode_test.cpp ****     __asm__ ("li t1, 7");
 291              		.loc 1 51 5 is_stmt 1
  51:test/System_Mode_test.cpp ****     __asm__ ("li t1, 7");
 292              		.loc 1 51 16 is_stmt 0
 293 0224 17050000 		lla	a0,.LC6
 293      13050500 
 294 022c 97000000 		call	_Z11printStringPKc
 294      E7800000 
 295              	.LVL41:
  52:test/System_Mode_test.cpp ****     thread_dispatch();
 296              		.loc 1 52 5 is_stmt 1
  52:test/System_Mode_test.cpp ****     thread_dispatch();
 297              		.loc 1 52 25 is_stmt 0
 298              	#APP
 299              	# 52 "test/System_Mode_test.cpp" 1
  53:test/System_Mode_test.cpp **** 
 300              		li t1, 7
 301              	# 0 "" 2
 302              		.loc 1 53 5 is_stmt 1
  53:test/System_Mode_test.cpp **** 
 303              		.loc 1 53 20 is_stmt 0
 304              	#NO_APP
 305 0238 97000000 		call	_Z15thread_dispatchv
 305      E7800000 
 306              	.LVL42:
  55:test/System_Mode_test.cpp ****     __asm__ ("mv %[t1], t1" : [t1] "=r"(t1));
 307              		.loc 1 55 5 is_stmt 1
  56:test/System_Mode_test.cpp **** 
 308              		.loc 1 56 5
  56:test/System_Mode_test.cpp **** 
 309              		.loc 1 56 45 is_stmt 0
GAS LISTING /tmp/cch81QQA.s 			page 9


 310              	#APP
 311              	# 56 "test/System_Mode_test.cpp" 1
 312              		mv s2, t1
 313              	# 0 "" 2
 314              	.LVL43:
  58:test/System_Mode_test.cpp **** 
 315              		.loc 1 58 5 is_stmt 1
  58:test/System_Mode_test.cpp **** 
 316              		.loc 1 58 16 is_stmt 0
 317              	#NO_APP
 318 0244 17050000 		lla	a0,.LC7
 318      13050500 
 319 024c 97000000 		call	_Z11printStringPKc
 319      E7800000 
 320              	.LVL44:
  58:test/System_Mode_test.cpp **** 
 321              		.loc 1 58 28 is_stmt 1
  58:test/System_Mode_test.cpp **** 
 322              		.loc 1 58 36 is_stmt 0
 323 0254 13060000 		li	a2,0
 324 0258 9305A000 		li	a1,10
 325 025c 1B050900 		sext.w	a0,s2
 326 0260 97000000 		call	_Z8printIntiii
 326      E7800000 
 327              	.LVL45:
  58:test/System_Mode_test.cpp **** 
 328              		.loc 1 58 42 is_stmt 1
  58:test/System_Mode_test.cpp **** 
 329              		.loc 1 58 53 is_stmt 0
 330 0268 17050000 		lla	a0,.LC1
 330      13050500 
 331 0270 97000000 		call	_Z11printStringPKc
 331      E7800000 
 332              	.LVL46:
  60:test/System_Mode_test.cpp ****     printString("C: fibonaci="); printInt(result); printString("\n");
 333              		.loc 1 60 5 is_stmt 1
  60:test/System_Mode_test.cpp ****     printString("C: fibonaci="); printInt(result); printString("\n");
 334              		.loc 1 60 30 is_stmt 0
 335 0278 1305C000 		li	a0,12
 336 027c 97000000 		call	_ZL9fibonaccim
 336      E7800000 
 337              	.LVL47:
 338 0284 13090500 		mv	s2,a0
 339              	.LVL48:
  61:test/System_Mode_test.cpp **** 
 340              		.loc 1 61 5 is_stmt 1
  61:test/System_Mode_test.cpp **** 
 341              		.loc 1 61 16 is_stmt 0
 342 0288 17050000 		lla	a0,.LC8
 342      13050500 
 343              	.LVL49:
 344 0290 97000000 		call	_Z11printStringPKc
 344      E7800000 
 345              	.LVL50:
  61:test/System_Mode_test.cpp **** 
 346              		.loc 1 61 34 is_stmt 1
  61:test/System_Mode_test.cpp **** 
GAS LISTING /tmp/cch81QQA.s 			page 10


 347              		.loc 1 61 42 is_stmt 0
 348 0298 13060000 		li	a2,0
 349 029c 9305A000 		li	a1,10
 350 02a0 1B050900 		sext.w	a0,s2
 351 02a4 97000000 		call	_Z8printIntiii
 351      E7800000 
 352              	.LVL51:
  61:test/System_Mode_test.cpp **** 
 353              		.loc 1 61 52 is_stmt 1
  61:test/System_Mode_test.cpp **** 
 354              		.loc 1 61 63 is_stmt 0
 355 02ac 17050000 		lla	a0,.LC1
 355      13050500 
 356 02b4 97000000 		call	_Z11printStringPKc
 356      E7800000 
 357              	.LVL52:
 358              	.L20:
  63:test/System_Mode_test.cpp ****         printString("C: i="); printInt(i); printString("\n");
 359              		.loc 1 63 5 is_stmt 1 discriminator 2
  63:test/System_Mode_test.cpp ****         printString("C: i="); printInt(i); printString("\n");
 360              		.loc 1 63 14 is_stmt 0 discriminator 2
 361 02bc 93075000 		li	a5,5
 362 02c0 63E29704 		bgtu	s1,a5,.L19
  64:test/System_Mode_test.cpp ****     }
 363              		.loc 1 64 9 is_stmt 1 discriminator 1
  64:test/System_Mode_test.cpp ****     }
 364              		.loc 1 64 20 is_stmt 0 discriminator 1
 365 02c4 17050000 		lla	a0,.LC5
 365      13050500 
 366 02cc 97000000 		call	_Z11printStringPKc
 366      E7800000 
 367              	.LVL53:
  64:test/System_Mode_test.cpp ****     }
 368              		.loc 1 64 31 is_stmt 1 discriminator 1
  64:test/System_Mode_test.cpp ****     }
 369              		.loc 1 64 39 is_stmt 0 discriminator 1
 370 02d4 13060000 		li	a2,0
 371 02d8 9305A000 		li	a1,10
 372 02dc 13850400 		mv	a0,s1
 373 02e0 97000000 		call	_Z8printIntiii
 373      E7800000 
 374              	.LVL54:
  64:test/System_Mode_test.cpp ****     }
 375              		.loc 1 64 44 is_stmt 1 discriminator 1
  64:test/System_Mode_test.cpp ****     }
 376              		.loc 1 64 55 is_stmt 0 discriminator 1
 377 02e8 17050000 		lla	a0,.LC1
 377      13050500 
 378 02f0 97000000 		call	_Z11printStringPKc
 378      E7800000 
 379              	.LVL55:
  63:test/System_Mode_test.cpp ****         printString("C: i="); printInt(i); printString("\n");
 380              		.loc 1 63 5 discriminator 1
 381 02f8 9B841400 		addiw	s1,s1,1
 382              	.LVL56:
 383 02fc 93F4F40F 		andi	s1,s1,0xff
 384              	.LVL57:
GAS LISTING /tmp/cch81QQA.s 			page 11


 385 0300 6FF0DFFB 		j	.L20
 386              	.L19:
  67:test/System_Mode_test.cpp ****     finishedC = true;
 387              		.loc 1 67 5 is_stmt 1
  67:test/System_Mode_test.cpp ****     finishedC = true;
 388              		.loc 1 67 16 is_stmt 0
 389 0304 17050000 		lla	a0,.LC9
 389      13050500 
 390 030c 97000000 		call	_Z11printStringPKc
 390      E7800000 
 391              	.LVL58:
  68:test/System_Mode_test.cpp ****     thread_dispatch();
 392              		.loc 1 68 5 is_stmt 1
  68:test/System_Mode_test.cpp ****     thread_dispatch();
 393              		.loc 1 68 15 is_stmt 0
 394 0314 93071000 		li	a5,1
 395 0318 17070000 		sb	a5,_ZL9finishedC,a4
 395      2300F700 
  69:test/System_Mode_test.cpp **** }
 396              		.loc 1 69 5 is_stmt 1
  69:test/System_Mode_test.cpp **** }
 397              		.loc 1 69 20 is_stmt 0
 398 0320 97000000 		call	_Z15thread_dispatchv
 398      E7800000 
 399              	.LVL59:
  70:test/System_Mode_test.cpp **** 
 400              		.loc 1 70 1
 401 0328 83308101 		ld	ra,24(sp)
 402              		.cfi_restore 1
 403 032c 03340101 		ld	s0,16(sp)
 404              		.cfi_restore 8
 405 0330 83348100 		ld	s1,8(sp)
 406              		.cfi_restore 9
 407              	.LVL60:
 408 0334 03390100 		ld	s2,0(sp)
 409              		.cfi_restore 18
 410              	.LVL61:
 411 0338 13010102 		addi	sp,sp,32
 412              		.cfi_def_cfa_register 2
 413 033c 67800000 		jr	ra
 414              		.cfi_endproc
 415              	.LFE35:
 417              		.align	2
 419              	_ZL11workerBodyBPv:
 420              	.LFB34:
  29:test/System_Mode_test.cpp ****     for (uint64 i = 0; i < 16; i++) {
 421              		.loc 1 29 36 is_stmt 1
 422              		.cfi_startproc
 423              	.LVL62:
 424 0340 130101FE 		addi	sp,sp,-32
 425              		.cfi_def_cfa_offset 32
 426 0344 233C1100 		sd	ra,24(sp)
 427 0348 23388100 		sd	s0,16(sp)
 428 034c 23349100 		sd	s1,8(sp)
 429 0350 23302101 		sd	s2,0(sp)
 430              		.cfi_offset 1, -8
 431              		.cfi_offset 8, -16
GAS LISTING /tmp/cch81QQA.s 			page 12


 432              		.cfi_offset 9, -24
 433              		.cfi_offset 18, -32
 434 0354 13040102 		addi	s0,sp,32
 435              		.cfi_def_cfa 8, 0
  30:test/System_Mode_test.cpp ****         printString("B: i="); printInt(i); printString("\n");
 436              		.loc 1 30 5
 437              	.LVL63:
 438              	.LBB2:
  30:test/System_Mode_test.cpp ****         printString("B: i="); printInt(i); printString("\n");
 439              		.loc 1 30 17 is_stmt 0
 440 0358 13090000 		li	s2,0
 441 035c 6F000004 		j	.L29
 442              	.LVL64:
 443              	.L25:
 444              	.LBB3:
 445              	.LBB4:
 446              	.LBB5:
  34:test/System_Mode_test.cpp ****         }
 447              		.loc 1 34 13 is_stmt 1 discriminator 2
  34:test/System_Mode_test.cpp ****         }
 448              		.loc 1 34 28 is_stmt 0 discriminator 2
 449 0360 97000000 		call	_Z15thread_dispatchv
 449      E7800000 
 450              	.LVL65:
 451              	.LBE5:
  32:test/System_Mode_test.cpp ****             for (uint64 k = 0; k < 30000; k++) { /* busy wait */ }
 452              		.loc 1 32 9 discriminator 2
 453 0368 93841400 		addi	s1,s1,1
 454              	.LVL66:
 455              	.L27:
  32:test/System_Mode_test.cpp ****             for (uint64 k = 0; k < 30000; k++) { /* busy wait */ }
 456              		.loc 1 32 30 discriminator 1
 457 036c B7270000 		li	a5,8192
 458 0370 9387F770 		addi	a5,a5,1807
 459 0374 63EE9700 		bgtu	s1,a5,.L24
 460              	.LBB7:
 461              	.LBB6:
  33:test/System_Mode_test.cpp ****             thread_dispatch();
 462              		.loc 1 33 25
 463 0378 13070000 		li	a4,0
 464              	.L26:
 465              	.LVL67:
  33:test/System_Mode_test.cpp ****             thread_dispatch();
 466              		.loc 1 33 34 discriminator 3
 467 037c B7770000 		li	a5,28672
 468 0380 9387F752 		addi	a5,a5,1327
 469 0384 E3EEE7FC 		bgtu	a4,a5,.L25
  33:test/System_Mode_test.cpp ****             thread_dispatch();
 470              		.loc 1 33 13 discriminator 2
 471 0388 13071700 		addi	a4,a4,1
 472              	.LVL68:
 473 038c 6FF01FFF 		j	.L26
 474              	.LVL69:
 475              	.L24:
 476              	.LBE6:
 477              	.LBE7:
 478              	.LBE4:
GAS LISTING /tmp/cch81QQA.s 			page 13


  36:test/System_Mode_test.cpp ****             asm volatile("csrr t6, sepc");
 479              		.loc 1 36 9 is_stmt 1
 480 0390 9307A000 		li	a5,10
 481 0394 6306F904 		beq	s2,a5,.L31
 482              	.L28:
 483              	.LBE3:
  30:test/System_Mode_test.cpp ****         printString("B: i="); printInt(i); printString("\n");
 484              		.loc 1 30 5 is_stmt 0 discriminator 2
 485 0398 13091900 		addi	s2,s2,1
 486              	.LVL70:
 487              	.L29:
  30:test/System_Mode_test.cpp ****         printString("B: i="); printInt(i); printString("\n");
 488              		.loc 1 30 26 discriminator 1
 489 039c 9307F000 		li	a5,15
 490 03a0 63E42705 		bgtu	s2,a5,.L23
 491              	.LBB9:
  31:test/System_Mode_test.cpp ****         for (uint64 j = 0; j < 10000; j++) {
 492              		.loc 1 31 9 is_stmt 1
  31:test/System_Mode_test.cpp ****         for (uint64 j = 0; j < 10000; j++) {
 493              		.loc 1 31 20 is_stmt 0
 494 03a4 17050000 		lla	a0,.LC10
 494      13050500 
 495 03ac 97000000 		call	_Z11printStringPKc
 495      E7800000 
 496              	.LVL71:
  31:test/System_Mode_test.cpp ****         for (uint64 j = 0; j < 10000; j++) {
 497              		.loc 1 31 31 is_stmt 1
  31:test/System_Mode_test.cpp ****         for (uint64 j = 0; j < 10000; j++) {
 498              		.loc 1 31 39 is_stmt 0
 499 03b4 13060000 		li	a2,0
 500 03b8 9305A000 		li	a1,10
 501 03bc 1B050900 		sext.w	a0,s2
 502 03c0 97000000 		call	_Z8printIntiii
 502      E7800000 
 503              	.LVL72:
  31:test/System_Mode_test.cpp ****         for (uint64 j = 0; j < 10000; j++) {
 504              		.loc 1 31 44 is_stmt 1
  31:test/System_Mode_test.cpp ****         for (uint64 j = 0; j < 10000; j++) {
 505              		.loc 1 31 55 is_stmt 0
 506 03c8 17050000 		lla	a0,.LC1
 506      13050500 
 507 03d0 97000000 		call	_Z11printStringPKc
 507      E7800000 
 508              	.LVL73:
  32:test/System_Mode_test.cpp ****             for (uint64 k = 0; k < 30000; k++) { /* busy wait */ }
 509              		.loc 1 32 9 is_stmt 1
 510              	.LBB8:
  32:test/System_Mode_test.cpp ****             for (uint64 k = 0; k < 30000; k++) { /* busy wait */ }
 511              		.loc 1 32 21 is_stmt 0
 512 03d8 93040000 		li	s1,0
 513 03dc 6FF01FF9 		j	.L27
 514              	.LVL74:
 515              	.L31:
 516              	.LBE8:
  37:test/System_Mode_test.cpp ****         }
 517              		.loc 1 37 13 is_stmt 1
  37:test/System_Mode_test.cpp ****         }
GAS LISTING /tmp/cch81QQA.s 			page 14


 518              		.loc 1 37 42 is_stmt 0
 519              	#APP
 520              	# 37 "test/System_Mode_test.cpp" 1
 521              		csrr t6, sepc
 522              	# 0 "" 2
 523              	#NO_APP
 524 03e4 6FF05FFB 		j	.L28
 525              	.LVL75:
 526              	.L23:
 527              	.LBE9:
 528              	.LBE2:
  40:test/System_Mode_test.cpp ****     finishedB = true;
 529              		.loc 1 40 5 is_stmt 1
  40:test/System_Mode_test.cpp ****     finishedB = true;
 530              		.loc 1 40 16 is_stmt 0
 531 03e8 17050000 		lla	a0,.LC11
 531      13050500 
 532 03f0 97000000 		call	_Z11printStringPKc
 532      E7800000 
 533              	.LVL76:
  41:test/System_Mode_test.cpp ****     thread_dispatch();
 534              		.loc 1 41 5 is_stmt 1
  41:test/System_Mode_test.cpp ****     thread_dispatch();
 535              		.loc 1 41 15 is_stmt 0
 536 03f8 93071000 		li	a5,1
 537 03fc 17070000 		sb	a5,_ZL9finishedB,a4
 537      2300F700 
  42:test/System_Mode_test.cpp **** }
 538              		.loc 1 42 5 is_stmt 1
  42:test/System_Mode_test.cpp **** }
 539              		.loc 1 42 20 is_stmt 0
 540 0404 97000000 		call	_Z15thread_dispatchv
 540      E7800000 
 541              	.LVL77:
  43:test/System_Mode_test.cpp **** 
 542              		.loc 1 43 1
 543 040c 83308101 		ld	ra,24(sp)
 544              		.cfi_restore 1
 545 0410 03340101 		ld	s0,16(sp)
 546              		.cfi_restore 8
 547 0414 83348100 		ld	s1,8(sp)
 548              		.cfi_restore 9
 549 0418 03390100 		ld	s2,0(sp)
 550              		.cfi_restore 18
 551              	.LVL78:
 552 041c 13010102 		addi	sp,sp,32
 553              		.cfi_def_cfa_register 2
 554 0420 67800000 		jr	ra
 555              		.cfi_endproc
 556              	.LFE34:
 558              		.align	2
 560              	_ZL11workerBodyAPv:
 561              	.LFB33:
  17:test/System_Mode_test.cpp ****     for (uint64 i = 0; i < 10; i++) {
 562              		.loc 1 17 36 is_stmt 1
 563              		.cfi_startproc
 564              	.LVL79:
GAS LISTING /tmp/cch81QQA.s 			page 15


 565 0424 130101FE 		addi	sp,sp,-32
 566              		.cfi_def_cfa_offset 32
 567 0428 233C1100 		sd	ra,24(sp)
 568 042c 23388100 		sd	s0,16(sp)
 569 0430 23349100 		sd	s1,8(sp)
 570 0434 23302101 		sd	s2,0(sp)
 571              		.cfi_offset 1, -8
 572              		.cfi_offset 8, -16
 573              		.cfi_offset 9, -24
 574              		.cfi_offset 18, -32
 575 0438 13040102 		addi	s0,sp,32
 576              		.cfi_def_cfa 8, 0
  18:test/System_Mode_test.cpp ****         printString("A: i="); printInt(i); printString("\n");
 577              		.loc 1 18 5
 578              	.LVL80:
 579              	.LBB10:
  18:test/System_Mode_test.cpp ****         printString("A: i="); printInt(i); printString("\n");
 580              		.loc 1 18 17 is_stmt 0
 581 043c 13090000 		li	s2,0
 582 0440 6F008003 		j	.L38
 583              	.LVL81:
 584              	.L35:
 585              	.LBB11:
 586              	.LBB12:
 587              	.LBB13:
  22:test/System_Mode_test.cpp ****         }
 588              		.loc 1 22 13 is_stmt 1 discriminator 2
  22:test/System_Mode_test.cpp ****         }
 589              		.loc 1 22 28 is_stmt 0 discriminator 2
 590 0444 97000000 		call	_Z15thread_dispatchv
 590      E7800000 
 591              	.LVL82:
 592              	.LBE13:
  20:test/System_Mode_test.cpp ****             for (uint64 k = 0; k < 30000; k++) { /* busy wait */ }
 593              		.loc 1 20 9 discriminator 2
 594 044c 93841400 		addi	s1,s1,1
 595              	.LVL83:
 596              	.L37:
  20:test/System_Mode_test.cpp ****             for (uint64 k = 0; k < 30000; k++) { /* busy wait */ }
 597              		.loc 1 20 30 discriminator 1
 598 0450 B7270000 		li	a5,8192
 599 0454 9387F770 		addi	a5,a5,1807
 600 0458 63EE9700 		bgtu	s1,a5,.L34
 601              	.LBB15:
 602              	.LBB14:
  21:test/System_Mode_test.cpp ****             thread_dispatch();
 603              		.loc 1 21 25
 604 045c 13070000 		li	a4,0
 605              	.L36:
 606              	.LVL84:
  21:test/System_Mode_test.cpp ****             thread_dispatch();
 607              		.loc 1 21 34 discriminator 3
 608 0460 B7770000 		li	a5,28672
 609 0464 9387F752 		addi	a5,a5,1327
 610 0468 E3EEE7FC 		bgtu	a4,a5,.L35
  21:test/System_Mode_test.cpp ****             thread_dispatch();
 611              		.loc 1 21 13 discriminator 2
GAS LISTING /tmp/cch81QQA.s 			page 16


 612 046c 13071700 		addi	a4,a4,1
 613              	.LVL85:
 614 0470 6FF01FFF 		j	.L36
 615              	.LVL86:
 616              	.L34:
 617              	.LBE14:
 618              	.LBE15:
 619              	.LBE12:
 620              	.LBE11:
  18:test/System_Mode_test.cpp ****         printString("A: i="); printInt(i); printString("\n");
 621              		.loc 1 18 5 discriminator 2
 622 0474 13091900 		addi	s2,s2,1
 623              	.LVL87:
 624              	.L38:
  18:test/System_Mode_test.cpp ****         printString("A: i="); printInt(i); printString("\n");
 625              		.loc 1 18 26 discriminator 1
 626 0478 93079000 		li	a5,9
 627 047c 63E02705 		bgtu	s2,a5,.L33
 628              	.LBB17:
  19:test/System_Mode_test.cpp ****         for (uint64 j = 0; j < 10000; j++) {
 629              		.loc 1 19 9 is_stmt 1
  19:test/System_Mode_test.cpp ****         for (uint64 j = 0; j < 10000; j++) {
 630              		.loc 1 19 20 is_stmt 0
 631 0480 17050000 		lla	a0,.LC12
 631      13050500 
 632 0488 97000000 		call	_Z11printStringPKc
 632      E7800000 
 633              	.LVL88:
  19:test/System_Mode_test.cpp ****         for (uint64 j = 0; j < 10000; j++) {
 634              		.loc 1 19 31 is_stmt 1
  19:test/System_Mode_test.cpp ****         for (uint64 j = 0; j < 10000; j++) {
 635              		.loc 1 19 39 is_stmt 0
 636 0490 13060000 		li	a2,0
 637 0494 9305A000 		li	a1,10
 638 0498 1B050900 		sext.w	a0,s2
 639 049c 97000000 		call	_Z8printIntiii
 639      E7800000 
 640              	.LVL89:
  19:test/System_Mode_test.cpp ****         for (uint64 j = 0; j < 10000; j++) {
 641              		.loc 1 19 44 is_stmt 1
  19:test/System_Mode_test.cpp ****         for (uint64 j = 0; j < 10000; j++) {
 642              		.loc 1 19 55 is_stmt 0
 643 04a4 17050000 		lla	a0,.LC1
 643      13050500 
 644 04ac 97000000 		call	_Z11printStringPKc
 644      E7800000 
 645              	.LVL90:
  20:test/System_Mode_test.cpp ****             for (uint64 k = 0; k < 30000; k++) { /* busy wait */ }
 646              		.loc 1 20 9 is_stmt 1
 647              	.LBB16:
  20:test/System_Mode_test.cpp ****             for (uint64 k = 0; k < 30000; k++) { /* busy wait */ }
 648              		.loc 1 20 21 is_stmt 0
 649 04b4 93040000 		li	s1,0
 650 04b8 6FF09FF9 		j	.L37
 651              	.LVL91:
 652              	.L33:
 653              	.LBE16:
GAS LISTING /tmp/cch81QQA.s 			page 17


 654              	.LBE17:
 655              	.LBE10:
  25:test/System_Mode_test.cpp ****     finishedA = true;
 656              		.loc 1 25 5 is_stmt 1
  25:test/System_Mode_test.cpp ****     finishedA = true;
 657              		.loc 1 25 16 is_stmt 0
 658 04bc 17050000 		lla	a0,.LC9
 658      13050500 
 659 04c4 97000000 		call	_Z11printStringPKc
 659      E7800000 
 660              	.LVL92:
  26:test/System_Mode_test.cpp **** }
 661              		.loc 1 26 5 is_stmt 1
  26:test/System_Mode_test.cpp **** }
 662              		.loc 1 26 15 is_stmt 0
 663 04cc 93071000 		li	a5,1
 664 04d0 17070000 		sb	a5,_ZL9finishedA,a4
 664      2300F700 
  27:test/System_Mode_test.cpp **** 
 665              		.loc 1 27 1
 666 04d8 83308101 		ld	ra,24(sp)
 667              		.cfi_restore 1
 668 04dc 03340101 		ld	s0,16(sp)
 669              		.cfi_restore 8
 670 04e0 83348100 		ld	s1,8(sp)
 671              		.cfi_restore 9
 672 04e4 03390100 		ld	s2,0(sp)
 673              		.cfi_restore 18
 674              	.LVL93:
 675 04e8 13010102 		addi	sp,sp,32
 676              		.cfi_def_cfa_register 2
 677 04ec 67800000 		jr	ra
 678              		.cfi_endproc
 679              	.LFE33:
 681              		.align	2
 682              		.globl	_Z16System_Mode_testv
 684              	_Z16System_Mode_testv:
 685              	.LFB37:
  93:test/System_Mode_test.cpp **** 
  94:test/System_Mode_test.cpp **** 
  95:test/System_Mode_test.cpp **** void System_Mode_test() {
 686              		.loc 1 95 25 is_stmt 1
 687              		.cfi_startproc
 688 04f0 130101FD 		addi	sp,sp,-48
 689              		.cfi_def_cfa_offset 48
 690 04f4 23341102 		sd	ra,40(sp)
 691 04f8 23308102 		sd	s0,32(sp)
 692              		.cfi_offset 1, -8
 693              		.cfi_offset 8, -16
 694 04fc 13040103 		addi	s0,sp,48
 695              		.cfi_def_cfa 8, 0
  96:test/System_Mode_test.cpp ****     thread_t threads[4];
 696              		.loc 1 96 5
  97:test/System_Mode_test.cpp ****     thread_create(&threads[0], workerBodyA, nullptr);
 697              		.loc 1 97 5
 698              		.loc 1 97 18 is_stmt 0
 699 0500 13060000 		li	a2,0
GAS LISTING /tmp/cch81QQA.s 			page 18


 700 0504 97050000 		lla	a1,_ZL11workerBodyAPv
 700      93850500 
 701 050c 130504FD 		addi	a0,s0,-48
 702 0510 97000000 		call	_Z13thread_createPP3TCBPFvPvES2_
 702      E7800000 
 703              	.LVL94:
  98:test/System_Mode_test.cpp ****     printString("ThreadA created\n");
 704              		.loc 1 98 5 is_stmt 1
 705              		.loc 1 98 16 is_stmt 0
 706 0518 17050000 		lla	a0,.LC13
 706      13050500 
 707 0520 97000000 		call	_Z11printStringPKc
 707      E7800000 
 708              	.LVL95:
  99:test/System_Mode_test.cpp **** 
 100:test/System_Mode_test.cpp ****     thread_create(&threads[1], workerBodyB, nullptr);
 709              		.loc 1 100 5 is_stmt 1
 710              		.loc 1 100 18 is_stmt 0
 711 0528 13060000 		li	a2,0
 712 052c 97050000 		lla	a1,_ZL11workerBodyBPv
 712      93850500 
 713 0534 130584FD 		addi	a0,s0,-40
 714 0538 97000000 		call	_Z13thread_createPP3TCBPFvPvES2_
 714      E7800000 
 715              	.LVL96:
 101:test/System_Mode_test.cpp ****     printString("ThreadB created\n");
 716              		.loc 1 101 5 is_stmt 1
 717              		.loc 1 101 16 is_stmt 0
 718 0540 17050000 		lla	a0,.LC14
 718      13050500 
 719 0548 97000000 		call	_Z11printStringPKc
 719      E7800000 
 720              	.LVL97:
 102:test/System_Mode_test.cpp **** 
 103:test/System_Mode_test.cpp ****     thread_create(&threads[2], workerBodyC, nullptr);
 721              		.loc 1 103 5 is_stmt 1
 722              		.loc 1 103 18 is_stmt 0
 723 0550 13060000 		li	a2,0
 724 0554 97050000 		lla	a1,_ZL11workerBodyCPv
 724      93850500 
 725 055c 130504FE 		addi	a0,s0,-32
 726 0560 97000000 		call	_Z13thread_createPP3TCBPFvPvES2_
 726      E7800000 
 727              	.LVL98:
 104:test/System_Mode_test.cpp ****     printString("ThreadC created\n");
 728              		.loc 1 104 5 is_stmt 1
 729              		.loc 1 104 16 is_stmt 0
 730 0568 17050000 		lla	a0,.LC15
 730      13050500 
 731 0570 97000000 		call	_Z11printStringPKc
 731      E7800000 
 732              	.LVL99:
 105:test/System_Mode_test.cpp **** 
 106:test/System_Mode_test.cpp ****     thread_create(&threads[3], workerBodyD, nullptr);
 733              		.loc 1 106 5 is_stmt 1
 734              		.loc 1 106 18 is_stmt 0
 735 0578 13060000 		li	a2,0
GAS LISTING /tmp/cch81QQA.s 			page 19


 736 057c 97050000 		lla	a1,_ZL11workerBodyDPv
 736      93850500 
 737 0584 130584FE 		addi	a0,s0,-24
 738 0588 97000000 		call	_Z13thread_createPP3TCBPFvPvES2_
 738      E7800000 
 739              	.LVL100:
 107:test/System_Mode_test.cpp ****     printString("ThreadD created\n");
 740              		.loc 1 107 5 is_stmt 1
 741              		.loc 1 107 16 is_stmt 0
 742 0590 17050000 		lla	a0,.LC16
 742      13050500 
 743 0598 97000000 		call	_Z11printStringPKc
 743      E7800000 
 744              	.LVL101:
 745 05a0 6F00C000 		j	.L42
 746              	.L41:
 108:test/System_Mode_test.cpp **** 
 109:test/System_Mode_test.cpp ****     while (!(finishedA && finishedB && finishedC && finishedD)) {
 110:test/System_Mode_test.cpp ****         thread_dispatch();
 747              		.loc 1 110 9 is_stmt 1
 748              		.loc 1 110 24 is_stmt 0
 749 05a4 97000000 		call	_Z15thread_dispatchv
 749      E7800000 
 750              	.LVL102:
 751              	.L42:
 109:test/System_Mode_test.cpp ****         thread_dispatch();
 752              		.loc 1 109 5 is_stmt 1
 109:test/System_Mode_test.cpp ****         thread_dispatch();
 753              		.loc 1 109 24 is_stmt 0
 754 05ac 97070000 		lla	a5,_ZL9finishedA
 754      93870700 
 755 05b4 83C70700 		lbu	a5,0(a5)
 756 05b8 93F7F70F 		andi	a5,a5,0xff
 109:test/System_Mode_test.cpp ****         thread_dispatch();
 757              		.loc 1 109 12
 758 05bc E38407FE 		beqz	a5,.L41
 109:test/System_Mode_test.cpp ****         thread_dispatch();
 759              		.loc 1 109 24 discriminator 2
 760 05c0 97070000 		lla	a5,_ZL9finishedB
 760      93870700 
 761 05c8 83C70700 		lbu	a5,0(a5)
 762 05cc 93F7F70F 		andi	a5,a5,0xff
 763 05d0 E38A07FC 		beqz	a5,.L41
 109:test/System_Mode_test.cpp ****         thread_dispatch();
 764              		.loc 1 109 37 discriminator 4
 765 05d4 97070000 		lla	a5,_ZL9finishedC
 765      93870700 
 766 05dc 83C70700 		lbu	a5,0(a5)
 767 05e0 93F7F70F 		andi	a5,a5,0xff
 768 05e4 E38007FC 		beqz	a5,.L41
 109:test/System_Mode_test.cpp ****         thread_dispatch();
 769              		.loc 1 109 62 discriminator 6
 770 05e8 97070000 		lla	a5,_ZL9finishedD
 770      93870700 
 771 05f0 83C70700 		lbu	a5,0(a5)
 772 05f4 93F7F70F 		andi	a5,a5,0xff
 109:test/System_Mode_test.cpp ****         thread_dispatch();
GAS LISTING /tmp/cch81QQA.s 			page 20


 773              		.loc 1 109 12 discriminator 6
 774 05f8 E38607FA 		beqz	a5,.L41
 111:test/System_Mode_test.cpp ****     }
 112:test/System_Mode_test.cpp **** 
 113:test/System_Mode_test.cpp **** }
 775              		.loc 1 113 1
 776 05fc 83308102 		ld	ra,40(sp)
 777              		.cfi_restore 1
 778 0600 03340102 		ld	s0,32(sp)
 779              		.cfi_restore 8
 780 0604 13010103 		addi	sp,sp,48
 781              		.cfi_def_cfa_register 2
 782 0608 67800000 		jr	ra
 783              		.cfi_endproc
 784              	.LFE37:
 786              		.section	.rodata.str1.8,"aMS",@progbits,1
 787              		.align	3
 788              	.LC0:
 789 0000 443A2069 		.string	"D: i="
 789      3D00
 790 0006 0000     		.zero	2
 791              	.LC1:
 792 0008 0A00     		.string	"\n"
 793 000a 00000000 		.zero	6
 793      0000
 794              	.LC2:
 795 0010 443A2064 		.string	"D: dispatch\n"
 795      69737061 
 795      7463680A 
 795      00
 796 001d 000000   		.zero	3
 797              	.LC3:
 798 0020 443A2066 		.string	"D: fibonaci="
 798      69626F6E 
 798      6163693D 
 798      00
 799 002d 000000   		.zero	3
 800              	.LC4:
 801 0030 44206669 		.string	"D finished!\n"
 801      6E697368 
 801      6564210A 
 801      00
 802 003d 000000   		.zero	3
 803              	.LC5:
 804 0040 433A2069 		.string	"C: i="
 804      3D00
 805 0046 0000     		.zero	2
 806              	.LC6:
 807 0048 433A2064 		.string	"C: dispatch\n"
 807      69737061 
 807      7463680A 
 807      00
 808 0055 000000   		.zero	3
 809              	.LC7:
 810 0058 433A2074 		.string	"C: t1="
 810      313D00
 811 005f 00       		.zero	1
GAS LISTING /tmp/cch81QQA.s 			page 21


 812              	.LC8:
 813 0060 433A2066 		.string	"C: fibonaci="
 813      69626F6E 
 813      6163693D 
 813      00
 814 006d 000000   		.zero	3
 815              	.LC9:
 816 0070 41206669 		.string	"A finished!\n"
 816      6E697368 
 816      6564210A 
 816      00
 817 007d 000000   		.zero	3
 818              	.LC10:
 819 0080 423A2069 		.string	"B: i="
 819      3D00
 820 0086 0000     		.zero	2
 821              	.LC11:
 822 0088 42206669 		.string	"B finished!\n"
 822      6E697368 
 822      6564210A 
 822      00
 823 0095 000000   		.zero	3
 824              	.LC12:
 825 0098 413A2069 		.string	"A: i="
 825      3D00
 826 009e 0000     		.zero	2
 827              	.LC13:
 828 00a0 54687265 		.string	"ThreadA created\n"
 828      61644120 
 828      63726561 
 828      7465640A 
 828      00
 829 00b1 00000000 		.zero	7
 829      000000
 830              	.LC14:
 831 00b8 54687265 		.string	"ThreadB created\n"
 831      61644220 
 831      63726561 
 831      7465640A 
 831      00
 832 00c9 00000000 		.zero	7
 832      000000
 833              	.LC15:
 834 00d0 54687265 		.string	"ThreadC created\n"
 834      61644320 
 834      63726561 
 834      7465640A 
 834      00
 835 00e1 00000000 		.zero	7
 835      000000
 836              	.LC16:
 837 00e8 54687265 		.string	"ThreadD created\n"
 837      61644420 
 837      63726561 
 837      7465640A 
 837      00
 838              		.section	.sbss,"aw",@nobits
GAS LISTING /tmp/cch81QQA.s 			page 22


 841              	_ZL9finishedD:
 842 0000 00       		.zero	1
 845              	_ZL9finishedC:
 846 0001 00       		.zero	1
 849              	_ZL9finishedB:
 850 0002 00       		.zero	1
 853              	_ZL9finishedA:
 854 0003 00       		.zero	1
 855              		.text
 856              	.Letext0:
 857              		.file 2 "test/../h/../lib/hw.h"
 858              		.file 3 "test/../h/../h/list.hpp"
 859              		.file 4 "test/../h/../h/tcb.hpp"
 860              		.file 5 "test/../h/syscall_c.hpp"
 861              		.file 6 "test/printing.hpp"
GAS LISTING /tmp/cch81QQA.s 			page 23


DEFINED SYMBOLS
                            *ABS*:0000000000000000 System_Mode_test.cpp
     /tmp/cch81QQA.s:8      .text:0000000000000000 _ZL9fibonaccim
     /tmp/cch81QQA.s:12     .text:0000000000000000 .L0 
     /tmp/cch81QQA.s:14     .text:0000000000000000 .L0 
     /tmp/cch81QQA.s:15     .text:0000000000000000 .L0 
     /tmp/cch81QQA.s:18     .text:0000000000000008 .L0 
     /tmp/cch81QQA.s:19     .text:000000000000000c .L0 
     /tmp/cch81QQA.s:24     .text:000000000000001c .L0 
     /tmp/cch81QQA.s:25     .text:000000000000001c .L0 
     /tmp/cch81QQA.s:26     .text:000000000000001c .L0 
     /tmp/cch81QQA.s:27     .text:000000000000001c .L0 
     /tmp/cch81QQA.s:29     .text:0000000000000020 .L0 
     /tmp/cch81QQA.s:32     .text:0000000000000024 .L0 
     /tmp/cch81QQA.s:33     .text:0000000000000024 .L0 
     /tmp/cch81QQA.s:36     .text:000000000000002c .L0 
     /tmp/cch81QQA.s:40     .text:0000000000000030 .L0 
     /tmp/cch81QQA.s:41     .text:0000000000000030 .L0 
     /tmp/cch81QQA.s:46     .text:0000000000000040 .L0 
     /tmp/cch81QQA.s:50     .text:000000000000004c .L0 
     /tmp/cch81QQA.s:52     .text:0000000000000050 .L0 
     /tmp/cch81QQA.s:53     .text:0000000000000054 .L0 
     /tmp/cch81QQA.s:54     .text:0000000000000054 .L0 
     /tmp/cch81QQA.s:56     .text:0000000000000058 .L0 
     /tmp/cch81QQA.s:58     .text:000000000000005c .L0 
     /tmp/cch81QQA.s:61     .text:0000000000000060 .L0 
     /tmp/cch81QQA.s:63     .text:0000000000000064 .L0 
     /tmp/cch81QQA.s:67     .text:0000000000000068 .L0 
     /tmp/cch81QQA.s:69     .text:0000000000000068 .L0 
     /tmp/cch81QQA.s:70     .text:0000000000000068 .L0 
     /tmp/cch81QQA.s:75     .text:0000000000000074 .L0 
     /tmp/cch81QQA.s:76     .text:0000000000000074 .L0 
     /tmp/cch81QQA.s:77     .text:0000000000000074 .L0 
     /tmp/cch81QQA.s:78     .text:0000000000000074 .L0 
     /tmp/cch81QQA.s:79     .text:0000000000000074 .L0 
     /tmp/cch81QQA.s:81     .text:0000000000000074 .L0 
     /tmp/cch81QQA.s:82     .text:0000000000000078 .L0 
     /tmp/cch81QQA.s:87     .text:0000000000000078 _ZL11workerBodyDPv
     /tmp/cch81QQA.s:90     .text:0000000000000078 .L0 
     /tmp/cch81QQA.s:92     .text:0000000000000078 .L0 
     /tmp/cch81QQA.s:93     .text:000000000000007c .L0 
     /tmp/cch81QQA.s:98     .text:000000000000008c .L0 
     /tmp/cch81QQA.s:99     .text:000000000000008c .L0 
     /tmp/cch81QQA.s:100    .text:000000000000008c .L0 
     /tmp/cch81QQA.s:101    .text:000000000000008c .L0 
     /tmp/cch81QQA.s:103    .text:0000000000000090 .L0 
     /tmp/cch81QQA.s:106    .text:0000000000000090 .L0 
     /tmp/cch81QQA.s:107    .text:0000000000000090 .L0 
     /tmp/cch81QQA.s:111    .text:0000000000000094 .L0 
     /tmp/cch81QQA.s:112    .text:0000000000000094 .L0 
     /tmp/cch81QQA.s:115    .text:000000000000009c .L0 
     /tmp/cch81QQA.s:116    .text:000000000000009c .L0 
     /tmp/cch81QQA.s:120    .text:00000000000000ac .L0 
     /tmp/cch81QQA.s:121    .text:00000000000000ac .L0 
     /tmp/cch81QQA.s:127    .text:00000000000000c0 .L0 
     /tmp/cch81QQA.s:128    .text:00000000000000c0 .L0 
     /tmp/cch81QQA.s:132    .text:00000000000000d0 .L0 
GAS LISTING /tmp/cch81QQA.s 			page 24


     /tmp/cch81QQA.s:139    .text:00000000000000dc .L0 
     /tmp/cch81QQA.s:140    .text:00000000000000dc .L0 
     /tmp/cch81QQA.s:144    .text:00000000000000ec .L0 
test/System_Mode_test.cpp:79     .text:00000000000000ec .L0 
     /tmp/cch81QQA.s:150    .text:00000000000000f0 .L0 
     /tmp/cch81QQA.s:152    .text:00000000000000f0 .L0 
     /tmp/cch81QQA.s:155    .text:00000000000000f8 .L0 
     /tmp/cch81QQA.s:156    .text:00000000000000f8 .L0 
     /tmp/cch81QQA.s:162    .text:0000000000000108 .L0 
     /tmp/cch81QQA.s:163    .text:0000000000000108 .L0 
     /tmp/cch81QQA.s:168    .text:0000000000000118 .L0 
     /tmp/cch81QQA.s:169    .text:0000000000000118 .L0 
     /tmp/cch81QQA.s:175    .text:000000000000012c .L0 
     /tmp/cch81QQA.s:176    .text:000000000000012c .L0 
     /tmp/cch81QQA.s:181    .text:000000000000013c .L0 
     /tmp/cch81QQA.s:182    .text:000000000000013c .L0 
     /tmp/cch81QQA.s:185    .text:0000000000000144 .L0 
     /tmp/cch81QQA.s:186    .text:0000000000000144 .L0 
     /tmp/cch81QQA.s:190    .text:0000000000000154 .L0 
     /tmp/cch81QQA.s:191    .text:0000000000000154 .L0 
     /tmp/cch81QQA.s:197    .text:0000000000000168 .L0 
     /tmp/cch81QQA.s:198    .text:0000000000000168 .L0 
     /tmp/cch81QQA.s:202    .text:0000000000000178 .L0 
     /tmp/cch81QQA.s:209    .text:0000000000000184 .L0 
     /tmp/cch81QQA.s:210    .text:0000000000000184 .L0 
     /tmp/cch81QQA.s:214    .text:0000000000000194 .L0 
     /tmp/cch81QQA.s:215    .text:0000000000000194 .L0 
     /tmp/cch81QQA.s:841    .sbss:0000000000000000 _ZL9finishedD
     /tmp/cch81QQA.s:218    .text:00000000000001a0 .L0 
     /tmp/cch81QQA.s:219    .text:00000000000001a0 .L0 
     /tmp/cch81QQA.s:222    .text:00000000000001a8 .L0 
     /tmp/cch81QQA.s:223    .text:00000000000001ac .L0 
     /tmp/cch81QQA.s:225    .text:00000000000001b0 .L0 
     /tmp/cch81QQA.s:227    .text:00000000000001b4 .L0 
     /tmp/cch81QQA.s:230    .text:00000000000001b8 .L0 
     /tmp/cch81QQA.s:233    .text:00000000000001bc .L0 
     /tmp/cch81QQA.s:235    .text:00000000000001c0 .L0 
     /tmp/cch81QQA.s:240    .text:00000000000001c0 _ZL11workerBodyCPv
     /tmp/cch81QQA.s:243    .text:00000000000001c0 .L0 
     /tmp/cch81QQA.s:245    .text:00000000000001c0 .L0 
     /tmp/cch81QQA.s:246    .text:00000000000001c4 .L0 
     /tmp/cch81QQA.s:251    .text:00000000000001d4 .L0 
     /tmp/cch81QQA.s:252    .text:00000000000001d4 .L0 
     /tmp/cch81QQA.s:253    .text:00000000000001d4 .L0 
     /tmp/cch81QQA.s:254    .text:00000000000001d4 .L0 
     /tmp/cch81QQA.s:256    .text:00000000000001d8 .L0 
     /tmp/cch81QQA.s:259    .text:00000000000001d8 .L0 
     /tmp/cch81QQA.s:260    .text:00000000000001d8 .L0 
     /tmp/cch81QQA.s:264    .text:00000000000001dc .L0 
     /tmp/cch81QQA.s:265    .text:00000000000001dc .L0 
     /tmp/cch81QQA.s:268    .text:00000000000001e4 .L0 
     /tmp/cch81QQA.s:269    .text:00000000000001e4 .L0 
     /tmp/cch81QQA.s:273    .text:00000000000001f4 .L0 
     /tmp/cch81QQA.s:274    .text:00000000000001f4 .L0 
     /tmp/cch81QQA.s:280    .text:0000000000000208 .L0 
     /tmp/cch81QQA.s:281    .text:0000000000000208 .L0 
     /tmp/cch81QQA.s:285    .text:0000000000000218 .L0 
GAS LISTING /tmp/cch81QQA.s 			page 25


     /tmp/cch81QQA.s:292    .text:0000000000000224 .L0 
     /tmp/cch81QQA.s:293    .text:0000000000000224 .L0 
     /tmp/cch81QQA.s:297    .text:0000000000000234 .L0 
test/System_Mode_test.cpp:52     .text:0000000000000234 .L0 
     /tmp/cch81QQA.s:303    .text:0000000000000238 .L0 
     /tmp/cch81QQA.s:305    .text:0000000000000238 .L0 
     /tmp/cch81QQA.s:308    .text:0000000000000240 .L0 
     /tmp/cch81QQA.s:309    .text:0000000000000240 .L0 
test/System_Mode_test.cpp:56     .text:0000000000000240 .L0 
     /tmp/cch81QQA.s:316    .text:0000000000000244 .L0 
     /tmp/cch81QQA.s:318    .text:0000000000000244 .L0 
     /tmp/cch81QQA.s:322    .text:0000000000000254 .L0 
     /tmp/cch81QQA.s:323    .text:0000000000000254 .L0 
     /tmp/cch81QQA.s:329    .text:0000000000000268 .L0 
     /tmp/cch81QQA.s:330    .text:0000000000000268 .L0 
     /tmp/cch81QQA.s:334    .text:0000000000000278 .L0 
     /tmp/cch81QQA.s:335    .text:0000000000000278 .L0 
     /tmp/cch81QQA.s:341    .text:0000000000000288 .L0 
     /tmp/cch81QQA.s:342    .text:0000000000000288 .L0 
     /tmp/cch81QQA.s:347    .text:0000000000000298 .L0 
     /tmp/cch81QQA.s:348    .text:0000000000000298 .L0 
     /tmp/cch81QQA.s:354    .text:00000000000002ac .L0 
     /tmp/cch81QQA.s:355    .text:00000000000002ac .L0 
     /tmp/cch81QQA.s:360    .text:00000000000002bc .L0 
     /tmp/cch81QQA.s:361    .text:00000000000002bc .L0 
     /tmp/cch81QQA.s:364    .text:00000000000002c4 .L0 
     /tmp/cch81QQA.s:365    .text:00000000000002c4 .L0 
     /tmp/cch81QQA.s:369    .text:00000000000002d4 .L0 
     /tmp/cch81QQA.s:370    .text:00000000000002d4 .L0 
     /tmp/cch81QQA.s:376    .text:00000000000002e8 .L0 
     /tmp/cch81QQA.s:377    .text:00000000000002e8 .L0 
     /tmp/cch81QQA.s:381    .text:00000000000002f8 .L0 
     /tmp/cch81QQA.s:388    .text:0000000000000304 .L0 
     /tmp/cch81QQA.s:389    .text:0000000000000304 .L0 
     /tmp/cch81QQA.s:393    .text:0000000000000314 .L0 
     /tmp/cch81QQA.s:394    .text:0000000000000314 .L0 
     /tmp/cch81QQA.s:845    .sbss:0000000000000001 _ZL9finishedC
     /tmp/cch81QQA.s:397    .text:0000000000000320 .L0 
     /tmp/cch81QQA.s:398    .text:0000000000000320 .L0 
     /tmp/cch81QQA.s:401    .text:0000000000000328 .L0 
     /tmp/cch81QQA.s:402    .text:000000000000032c .L0 
     /tmp/cch81QQA.s:404    .text:0000000000000330 .L0 
     /tmp/cch81QQA.s:406    .text:0000000000000334 .L0 
     /tmp/cch81QQA.s:409    .text:0000000000000338 .L0 
     /tmp/cch81QQA.s:412    .text:000000000000033c .L0 
     /tmp/cch81QQA.s:414    .text:0000000000000340 .L0 
     /tmp/cch81QQA.s:419    .text:0000000000000340 _ZL11workerBodyBPv
     /tmp/cch81QQA.s:422    .text:0000000000000340 .L0 
     /tmp/cch81QQA.s:424    .text:0000000000000340 .L0 
     /tmp/cch81QQA.s:425    .text:0000000000000344 .L0 
     /tmp/cch81QQA.s:430    .text:0000000000000354 .L0 
     /tmp/cch81QQA.s:431    .text:0000000000000354 .L0 
     /tmp/cch81QQA.s:432    .text:0000000000000354 .L0 
     /tmp/cch81QQA.s:433    .text:0000000000000354 .L0 
     /tmp/cch81QQA.s:435    .text:0000000000000358 .L0 
     /tmp/cch81QQA.s:439    .text:0000000000000358 .L0 
     /tmp/cch81QQA.s:440    .text:0000000000000358 .L0 
GAS LISTING /tmp/cch81QQA.s 			page 26


     /tmp/cch81QQA.s:448    .text:0000000000000360 .L0 
     /tmp/cch81QQA.s:449    .text:0000000000000360 .L0 
     /tmp/cch81QQA.s:453    .text:0000000000000368 .L0 
     /tmp/cch81QQA.s:457    .text:000000000000036c .L0 
     /tmp/cch81QQA.s:463    .text:0000000000000378 .L0 
     /tmp/cch81QQA.s:467    .text:000000000000037c .L0 
     /tmp/cch81QQA.s:471    .text:0000000000000388 .L0 
     /tmp/cch81QQA.s:480    .text:0000000000000390 .L0 
     /tmp/cch81QQA.s:485    .text:0000000000000398 .L0 
     /tmp/cch81QQA.s:489    .text:000000000000039c .L0 
     /tmp/cch81QQA.s:493    .text:00000000000003a4 .L0 
     /tmp/cch81QQA.s:494    .text:00000000000003a4 .L0 
     /tmp/cch81QQA.s:498    .text:00000000000003b4 .L0 
     /tmp/cch81QQA.s:499    .text:00000000000003b4 .L0 
     /tmp/cch81QQA.s:505    .text:00000000000003c8 .L0 
     /tmp/cch81QQA.s:506    .text:00000000000003c8 .L0 
     /tmp/cch81QQA.s:511    .text:00000000000003d8 .L0 
     /tmp/cch81QQA.s:512    .text:00000000000003d8 .L0 
     /tmp/cch81QQA.s:518    .text:00000000000003e0 .L0 
test/System_Mode_test.cpp:37     .text:00000000000003e0 .L0 
     /tmp/cch81QQA.s:530    .text:00000000000003e8 .L0 
     /tmp/cch81QQA.s:531    .text:00000000000003e8 .L0 
     /tmp/cch81QQA.s:535    .text:00000000000003f8 .L0 
     /tmp/cch81QQA.s:536    .text:00000000000003f8 .L0 
     /tmp/cch81QQA.s:849    .sbss:0000000000000002 _ZL9finishedB
     /tmp/cch81QQA.s:539    .text:0000000000000404 .L0 
     /tmp/cch81QQA.s:540    .text:0000000000000404 .L0 
     /tmp/cch81QQA.s:543    .text:000000000000040c .L0 
     /tmp/cch81QQA.s:544    .text:0000000000000410 .L0 
     /tmp/cch81QQA.s:546    .text:0000000000000414 .L0 
     /tmp/cch81QQA.s:548    .text:0000000000000418 .L0 
     /tmp/cch81QQA.s:550    .text:000000000000041c .L0 
     /tmp/cch81QQA.s:553    .text:0000000000000420 .L0 
     /tmp/cch81QQA.s:555    .text:0000000000000424 .L0 
     /tmp/cch81QQA.s:560    .text:0000000000000424 _ZL11workerBodyAPv
     /tmp/cch81QQA.s:563    .text:0000000000000424 .L0 
     /tmp/cch81QQA.s:565    .text:0000000000000424 .L0 
     /tmp/cch81QQA.s:566    .text:0000000000000428 .L0 
     /tmp/cch81QQA.s:571    .text:0000000000000438 .L0 
     /tmp/cch81QQA.s:572    .text:0000000000000438 .L0 
     /tmp/cch81QQA.s:573    .text:0000000000000438 .L0 
     /tmp/cch81QQA.s:574    .text:0000000000000438 .L0 
     /tmp/cch81QQA.s:576    .text:000000000000043c .L0 
     /tmp/cch81QQA.s:580    .text:000000000000043c .L0 
     /tmp/cch81QQA.s:581    .text:000000000000043c .L0 
     /tmp/cch81QQA.s:589    .text:0000000000000444 .L0 
     /tmp/cch81QQA.s:590    .text:0000000000000444 .L0 
     /tmp/cch81QQA.s:594    .text:000000000000044c .L0 
     /tmp/cch81QQA.s:598    .text:0000000000000450 .L0 
     /tmp/cch81QQA.s:604    .text:000000000000045c .L0 
     /tmp/cch81QQA.s:608    .text:0000000000000460 .L0 
     /tmp/cch81QQA.s:612    .text:000000000000046c .L0 
     /tmp/cch81QQA.s:622    .text:0000000000000474 .L0 
     /tmp/cch81QQA.s:626    .text:0000000000000478 .L0 
     /tmp/cch81QQA.s:630    .text:0000000000000480 .L0 
     /tmp/cch81QQA.s:631    .text:0000000000000480 .L0 
     /tmp/cch81QQA.s:635    .text:0000000000000490 .L0 
GAS LISTING /tmp/cch81QQA.s 			page 27


     /tmp/cch81QQA.s:636    .text:0000000000000490 .L0 
     /tmp/cch81QQA.s:642    .text:00000000000004a4 .L0 
     /tmp/cch81QQA.s:643    .text:00000000000004a4 .L0 
     /tmp/cch81QQA.s:648    .text:00000000000004b4 .L0 
     /tmp/cch81QQA.s:649    .text:00000000000004b4 .L0 
     /tmp/cch81QQA.s:657    .text:00000000000004bc .L0 
     /tmp/cch81QQA.s:658    .text:00000000000004bc .L0 
     /tmp/cch81QQA.s:662    .text:00000000000004cc .L0 
     /tmp/cch81QQA.s:663    .text:00000000000004cc .L0 
     /tmp/cch81QQA.s:853    .sbss:0000000000000003 _ZL9finishedA
     /tmp/cch81QQA.s:666    .text:00000000000004d8 .L0 
     /tmp/cch81QQA.s:667    .text:00000000000004dc .L0 
     /tmp/cch81QQA.s:669    .text:00000000000004e0 .L0 
     /tmp/cch81QQA.s:671    .text:00000000000004e4 .L0 
     /tmp/cch81QQA.s:673    .text:00000000000004e8 .L0 
     /tmp/cch81QQA.s:676    .text:00000000000004ec .L0 
     /tmp/cch81QQA.s:678    .text:00000000000004f0 .L0 
     /tmp/cch81QQA.s:684    .text:00000000000004f0 _Z16System_Mode_testv
     /tmp/cch81QQA.s:687    .text:00000000000004f0 .L0 
     /tmp/cch81QQA.s:688    .text:00000000000004f0 .L0 
     /tmp/cch81QQA.s:689    .text:00000000000004f4 .L0 
     /tmp/cch81QQA.s:692    .text:00000000000004fc .L0 
     /tmp/cch81QQA.s:693    .text:00000000000004fc .L0 
     /tmp/cch81QQA.s:695    .text:0000000000000500 .L0 
     /tmp/cch81QQA.s:697    .text:0000000000000500 .L0 
     /tmp/cch81QQA.s:698    .text:0000000000000500 .L0 
     /tmp/cch81QQA.s:699    .text:0000000000000500 .L0 
     /tmp/cch81QQA.s:705    .text:0000000000000518 .L0 
     /tmp/cch81QQA.s:706    .text:0000000000000518 .L0 
     /tmp/cch81QQA.s:710    .text:0000000000000528 .L0 
     /tmp/cch81QQA.s:711    .text:0000000000000528 .L0 
     /tmp/cch81QQA.s:717    .text:0000000000000540 .L0 
     /tmp/cch81QQA.s:718    .text:0000000000000540 .L0 
     /tmp/cch81QQA.s:722    .text:0000000000000550 .L0 
     /tmp/cch81QQA.s:723    .text:0000000000000550 .L0 
     /tmp/cch81QQA.s:729    .text:0000000000000568 .L0 
     /tmp/cch81QQA.s:730    .text:0000000000000568 .L0 
     /tmp/cch81QQA.s:734    .text:0000000000000578 .L0 
     /tmp/cch81QQA.s:735    .text:0000000000000578 .L0 
     /tmp/cch81QQA.s:741    .text:0000000000000590 .L0 
     /tmp/cch81QQA.s:742    .text:0000000000000590 .L0 
     /tmp/cch81QQA.s:748    .text:00000000000005a4 .L0 
     /tmp/cch81QQA.s:749    .text:00000000000005a4 .L0 
     /tmp/cch81QQA.s:753    .text:00000000000005ac .L0 
     /tmp/cch81QQA.s:754    .text:00000000000005ac .L0 
     /tmp/cch81QQA.s:758    .text:00000000000005bc .L0 
     /tmp/cch81QQA.s:760    .text:00000000000005c0 .L0 
     /tmp/cch81QQA.s:765    .text:00000000000005d4 .L0 
     /tmp/cch81QQA.s:770    .text:00000000000005e8 .L0 
     /tmp/cch81QQA.s:774    .text:00000000000005f8 .L0 
     /tmp/cch81QQA.s:776    .text:00000000000005fc .L0 
     /tmp/cch81QQA.s:777    .text:0000000000000600 .L0 
     /tmp/cch81QQA.s:779    .text:0000000000000604 .L0 
     /tmp/cch81QQA.s:781    .text:0000000000000608 .L0 
     /tmp/cch81QQA.s:783    .text:000000000000060c .L0 
     /tmp/cch81QQA.s:862    .text:000000000000060c .L0 
     /tmp/cch81QQA.s:788    .rodata.str1.8:0000000000000000 .LC0
GAS LISTING /tmp/cch81QQA.s 			page 28


     /tmp/cch81QQA.s:116    .text:000000000000009c .L0 
     /tmp/cch81QQA.s:791    .rodata.str1.8:0000000000000008 .LC1
     /tmp/cch81QQA.s:128    .text:00000000000000c0 .L0 
     /tmp/cch81QQA.s:794    .rodata.str1.8:0000000000000010 .LC2
     /tmp/cch81QQA.s:140    .text:00000000000000dc .L0 
     /tmp/cch81QQA.s:797    .rodata.str1.8:0000000000000020 .LC3
     /tmp/cch81QQA.s:163    .text:0000000000000108 .L0 
     /tmp/cch81QQA.s:176    .text:000000000000012c .L0 
     /tmp/cch81QQA.s:186    .text:0000000000000144 .L0 
     /tmp/cch81QQA.s:198    .text:0000000000000168 .L0 
     /tmp/cch81QQA.s:800    .rodata.str1.8:0000000000000030 .LC4
     /tmp/cch81QQA.s:210    .text:0000000000000184 .L0 
     /tmp/cch81QQA.s:216    .text:0000000000000198 .L0 
     /tmp/cch81QQA.s:803    .rodata.str1.8:0000000000000040 .LC5
     /tmp/cch81QQA.s:269    .text:00000000000001e4 .L0 
     /tmp/cch81QQA.s:281    .text:0000000000000208 .L0 
     /tmp/cch81QQA.s:806    .rodata.str1.8:0000000000000048 .LC6
     /tmp/cch81QQA.s:293    .text:0000000000000224 .L0 
     /tmp/cch81QQA.s:809    .rodata.str1.8:0000000000000058 .LC7
     /tmp/cch81QQA.s:318    .text:0000000000000244 .L0 
     /tmp/cch81QQA.s:330    .text:0000000000000268 .L0 
     /tmp/cch81QQA.s:812    .rodata.str1.8:0000000000000060 .LC8
     /tmp/cch81QQA.s:342    .text:0000000000000288 .L0 
     /tmp/cch81QQA.s:355    .text:00000000000002ac .L0 
     /tmp/cch81QQA.s:365    .text:00000000000002c4 .L0 
     /tmp/cch81QQA.s:377    .text:00000000000002e8 .L0 
     /tmp/cch81QQA.s:815    .rodata.str1.8:0000000000000070 .LC9
     /tmp/cch81QQA.s:389    .text:0000000000000304 .L0 
     /tmp/cch81QQA.s:395    .text:0000000000000318 .L0 
     /tmp/cch81QQA.s:818    .rodata.str1.8:0000000000000080 .LC10
     /tmp/cch81QQA.s:494    .text:00000000000003a4 .L0 
     /tmp/cch81QQA.s:506    .text:00000000000003c8 .L0 
     /tmp/cch81QQA.s:821    .rodata.str1.8:0000000000000088 .LC11
     /tmp/cch81QQA.s:531    .text:00000000000003e8 .L0 
     /tmp/cch81QQA.s:537    .text:00000000000003fc .L0 
     /tmp/cch81QQA.s:824    .rodata.str1.8:0000000000000098 .LC12
     /tmp/cch81QQA.s:631    .text:0000000000000480 .L0 
     /tmp/cch81QQA.s:643    .text:00000000000004a4 .L0 
     /tmp/cch81QQA.s:658    .text:00000000000004bc .L0 
     /tmp/cch81QQA.s:664    .text:00000000000004d0 .L0 
     /tmp/cch81QQA.s:700    .text:0000000000000504 .L0 
     /tmp/cch81QQA.s:827    .rodata.str1.8:00000000000000a0 .LC13
     /tmp/cch81QQA.s:706    .text:0000000000000518 .L0 
     /tmp/cch81QQA.s:712    .text:000000000000052c .L0 
     /tmp/cch81QQA.s:830    .rodata.str1.8:00000000000000b8 .LC14
     /tmp/cch81QQA.s:718    .text:0000000000000540 .L0 
     /tmp/cch81QQA.s:724    .text:0000000000000554 .L0 
     /tmp/cch81QQA.s:833    .rodata.str1.8:00000000000000d0 .LC15
     /tmp/cch81QQA.s:730    .text:0000000000000568 .L0 
     /tmp/cch81QQA.s:736    .text:000000000000057c .L0 
     /tmp/cch81QQA.s:836    .rodata.str1.8:00000000000000e8 .LC16
     /tmp/cch81QQA.s:742    .text:0000000000000590 .L0 
     /tmp/cch81QQA.s:754    .text:00000000000005ac .L0 
     /tmp/cch81QQA.s:760    .text:00000000000005c0 .L0 
     /tmp/cch81QQA.s:765    .text:00000000000005d4 .L0 
     /tmp/cch81QQA.s:770    .text:00000000000005e8 .L0 
     /tmp/cch81QQA.s:74     .text:0000000000000074 .L6
GAS LISTING /tmp/cch81QQA.s 			page 29


     /tmp/cch81QQA.s:66     .text:0000000000000068 .L9
     /tmp/cch81QQA.s:38     .text:0000000000000030 .L3
     /tmp/cch81QQA.s:137    .text:00000000000000dc .L11
     /tmp/cch81QQA.s:109    .text:0000000000000094 .L12
     /tmp/cch81QQA.s:207    .text:0000000000000184 .L13
     /tmp/cch81QQA.s:179    .text:000000000000013c .L14
     /tmp/cch81QQA.s:290    .text:0000000000000224 .L17
     /tmp/cch81QQA.s:262    .text:00000000000001dc .L18
     /tmp/cch81QQA.s:386    .text:0000000000000304 .L19
     /tmp/cch81QQA.s:358    .text:00000000000002bc .L20
     /tmp/cch81QQA.s:487    .text:000000000000039c .L29
     /tmp/cch81QQA.s:475    .text:0000000000000390 .L24
     /tmp/cch81QQA.s:443    .text:0000000000000360 .L25
     /tmp/cch81QQA.s:464    .text:000000000000037c .L26
     /tmp/cch81QQA.s:515    .text:00000000000003e0 .L31
     /tmp/cch81QQA.s:526    .text:00000000000003e8 .L23
     /tmp/cch81QQA.s:455    .text:000000000000036c .L27
     /tmp/cch81QQA.s:482    .text:0000000000000398 .L28
     /tmp/cch81QQA.s:624    .text:0000000000000478 .L38
     /tmp/cch81QQA.s:616    .text:0000000000000474 .L34
     /tmp/cch81QQA.s:584    .text:0000000000000444 .L35
     /tmp/cch81QQA.s:605    .text:0000000000000460 .L36
     /tmp/cch81QQA.s:652    .text:00000000000004bc .L33
     /tmp/cch81QQA.s:596    .text:0000000000000450 .L37
     /tmp/cch81QQA.s:751    .text:00000000000005ac .L42
     /tmp/cch81QQA.s:746    .text:00000000000005a4 .L41
     /tmp/cch81QQA.s:2502   .debug_abbrev:0000000000000000 .Ldebug_abbrev0
     /tmp/cch81QQA.s:3778   .debug_str:0000000000000412 .LASF105
     /tmp/cch81QQA.s:3864   .debug_str:000000000000075f .LASF106
     /tmp/cch81QQA.s:3680   .debug_str:000000000000013f .LASF107
     /tmp/cch81QQA.s:5      .text:0000000000000000 .Ltext0
     /tmp/cch81QQA.s:856    .text:000000000000060c .Letext0
     /tmp/cch81QQA.s:3636   .debug_line:0000000000000000 .Ldebug_line0
     /tmp/cch81QQA.s:3788   .debug_str:000000000000050e .LASF0
     /tmp/cch81QQA.s:3798   .debug_str:0000000000000559 .LASF1
     /tmp/cch81QQA.s:3772   .debug_str:00000000000003e7 .LASF2
     /tmp/cch81QQA.s:3704   .debug_str:0000000000000211 .LASF3
     /tmp/cch81QQA.s:3738   .debug_str:0000000000000303 .LASF4
     /tmp/cch81QQA.s:3828   .debug_str:000000000000065a .LASF5
     /tmp/cch81QQA.s:3666   .debug_str:00000000000000dc .LASF6
     /tmp/cch81QQA.s:3804   .debug_str:00000000000005aa .LASF7
     /tmp/cch81QQA.s:3786   .debug_str:00000000000004fb .LASF8
     /tmp/cch81QQA.s:3854   .debug_str:0000000000000721 .LASF9
     /tmp/cch81QQA.s:3722   .debug_str:0000000000000275 .LASF10
     /tmp/cch81QQA.s:3810   .debug_str:00000000000005e5 .LASF11
     /tmp/cch81QQA.s:3848   .debug_str:0000000000000700 .LASF12
     /tmp/cch81QQA.s:3670   .debug_str:00000000000000ee .LASF13
     /tmp/cch81QQA.s:3646   .debug_str:000000000000003f .LASF14
     /tmp/cch81QQA.s:3684   .debug_str:0000000000000160 .LASF15
     /tmp/cch81QQA.s:3824   .debug_str:000000000000063e .LASF16
     /tmp/cch81QQA.s:3694   .debug_str:00000000000001af .LASF17
     /tmp/cch81QQA.s:3760   .debug_str:00000000000003a3 .LASF44
     /tmp/cch81QQA.s:3762   .debug_str:00000000000003ad .LASF108
     /tmp/cch81QQA.s:3698   .debug_str:00000000000001d3 .LASF18
     /tmp/cch81QQA.s:3768   .debug_str:00000000000003c4 .LASF19
     /tmp/cch81QQA.s:3850   .debug_str:000000000000070f .LASF20
     /tmp/cch81QQA.s:3736   .debug_str:00000000000002fe .LASF21
GAS LISTING /tmp/cch81QQA.s 			page 30


     /tmp/cch81QQA.s:3838   .debug_str:00000000000006b2 .LASF32
     /tmp/cch81QQA.s:3820   .debug_str:000000000000061c .LASF23
     /tmp/cch81QQA.s:3780   .debug_str:00000000000004d6 .LASF109
     /tmp/cch81QQA.s:3726   .debug_str:000000000000028f .LASF110
     /tmp/cch81QQA.s:3858   .debug_str:000000000000073b .LASF22
     /tmp/cch81QQA.s:3800   .debug_str:000000000000056c .LASF24
     /tmp/cch81QQA.s:3730   .debug_str:00000000000002b3 .LASF25
     /tmp/cch81QQA.s:3770   .debug_str:00000000000003c9 .LASF26
     /tmp/cch81QQA.s:3678   .debug_str:0000000000000137 .LASF27
     /tmp/cch81QQA.s:3672   .debug_str:00000000000000fe .LASF28
     /tmp/cch81QQA.s:3822   .debug_str:0000000000000633 .LASF29
     /tmp/cch81QQA.s:3808   .debug_str:00000000000005c8 .LASF30
     /tmp/cch81QQA.s:3842   .debug_str:00000000000006de .LASF31
     /tmp/cch81QQA.s:3702   .debug_str:00000000000001f4 .LASF33
     /tmp/cch81QQA.s:3720   .debug_str:000000000000026d .LASF34
     /tmp/cch81QQA.s:3700   .debug_str:00000000000001d8 .LASF35
     /tmp/cch81QQA.s:3846   .debug_str:00000000000006f4 .LASF36
     /tmp/cch81QQA.s:3640   .debug_str:0000000000000009 .LASF37
     /tmp/cch81QQA.s:3682   .debug_str:0000000000000156 .LASF38
     /tmp/cch81QQA.s:3752   .debug_str:0000000000000361 .LASF39
     /tmp/cch81QQA.s:3792   .debug_str:0000000000000524 .LASF40
     /tmp/cch81QQA.s:3656   .debug_str:0000000000000075 .LASF41
     /tmp/cch81QQA.s:3756   .debug_str:000000000000038c .LASF42
     /tmp/cch81QQA.s:3866   .debug_str:0000000000000779 .LASF43
     /tmp/cch81QQA.s:3652   .debug_str:0000000000000063 .LASF111
     /tmp/cch81QQA.s:3728   .debug_str:00000000000002a6 .LASF45
     /tmp/cch81QQA.s:3664   .debug_str:00000000000000d0 .LASF46
     /tmp/cch81QQA.s:3718   .debug_str:000000000000025d .LASF47
     /tmp/cch81QQA.s:3724   .debug_str:0000000000000283 .LASF48
     /tmp/cch81QQA.s:3832   .debug_str:000000000000067e .LASF49
     /tmp/cch81QQA.s:3818   .debug_str:000000000000060f .LASF51
     /tmp/cch81QQA.s:3836   .debug_str:000000000000069f .LASF50
     /tmp/cch81QQA.s:3844   .debug_str:00000000000006e7 .LASF52
     /tmp/cch81QQA.s:3766   .debug_str:00000000000003bf .LASF53
     /tmp/cch81QQA.s:3814   .debug_str:00000000000005fe .LASF54
     /tmp/cch81QQA.s:3806   .debug_str:00000000000005bd .LASF55
     /tmp/cch81QQA.s:3692   .debug_str:0000000000000198 .LASF56
     /tmp/cch81QQA.s:3774   .debug_str:00000000000003f5 .LASF57
     /tmp/cch81QQA.s:3732   .debug_str:00000000000002bf .LASF58
     /tmp/cch81QQA.s:3764   .debug_str:00000000000003b2 .LASF59
     /tmp/cch81QQA.s:3840   .debug_str:00000000000006c5 .LASF60
     /tmp/cch81QQA.s:3750   .debug_str:0000000000000354 .LASF61
     /tmp/cch81QQA.s:3660   .debug_str:00000000000000a2 .LASF62
     /tmp/cch81QQA.s:3816   .debug_str:000000000000060a .LASF112
     /tmp/cch81QQA.s:3826   .debug_str:0000000000000654 .LASF65
     /tmp/cch81QQA.s:3658   .debug_str:0000000000000092 .LASF67
     /tmp/cch81QQA.s:3706   .debug_str:0000000000000217 .LASF113
     /tmp/cch81QQA.s:3872   .debug_str:00000000000007b2 .LASF63
     /tmp/cch81QQA.s:3794   .debug_str:000000000000052f .LASF64
     /tmp/cch81QQA.s:3830   .debug_str:000000000000066c .LASF66
     /tmp/cch81QQA.s:3740   .debug_str:000000000000030a .LASF68
     /tmp/cch81QQA.s:3748   .debug_str:000000000000033d .LASF114
     /tmp/cch81QQA.s:3744   .debug_str:0000000000000330 .LASF69
     /tmp/cch81QQA.s:3686   .debug_str:000000000000016c .LASF70
     /tmp/cch81QQA.s:3746   .debug_str:0000000000000335 .LASF71
     /tmp/cch81QQA.s:3796   .debug_str:000000000000054f .LASF72
     /tmp/cch81QQA.s:3742   .debug_str:0000000000000327 .LASF73
GAS LISTING /tmp/cch81QQA.s 			page 31


     /tmp/cch81QQA.s:3852   .debug_str:0000000000000717 .LASF74
     /tmp/cch81QQA.s:3754   .debug_str:000000000000037c .LASF79
     /tmp/cch81QQA.s:3758   .debug_str:0000000000000395 .LASF75
     /tmp/cch81QQA.s:3676   .debug_str:000000000000011e .LASF77
     /tmp/cch81QQA.s:3860   .debug_str:0000000000000746 .LASF115
     /tmp/cch81QQA.s:3734   .debug_str:00000000000002d6 .LASF116
     /tmp/cch81QQA.s:3790   .debug_str:000000000000051b .LASF76
     /tmp/cch81QQA.s:3708   .debug_str:000000000000021f .LASF78
     /tmp/cch81QQA.s:3776   .debug_str:0000000000000401 .LASF80
     /tmp/cch81QQA.s:3668   .debug_str:00000000000000e3 .LASF81
     /tmp/cch81QQA.s:3862   .debug_str:0000000000000754 .LASF82
     /tmp/cch81QQA.s:3710   .debug_str:0000000000000232 .LASF83
     /tmp/cch81QQA.s:3638   .debug_str:0000000000000000 .LASF84
     /tmp/cch81QQA.s:3812   .debug_str:00000000000005f4 .LASF85
     /tmp/cch81QQA.s:3648   .debug_str:000000000000004f .LASF86
     /tmp/cch81QQA.s:3650   .debug_str:0000000000000059 .LASF87
     /tmp/cch81QQA.s:3654   .debug_str:000000000000006b .LASF88
     /tmp/cch81QQA.s:3834   .debug_str:000000000000068e .LASF89
     /tmp/cch81QQA.s:3690   .debug_str:0000000000000182 .LASF90
     /tmp/cch81QQA.s:685    .text:00000000000004f0 .LFB37
     /tmp/cch81QQA.s:784    .text:000000000000060c .LFE37
     /tmp/cch81QQA.s:3716   .debug_str:0000000000000255 .LASF91
     /tmp/cch81QQA.s:703    .text:0000000000000518 .LVL94
     /tmp/cch81QQA.s:708    .text:0000000000000528 .LVL95
     /tmp/cch81QQA.s:715    .text:0000000000000540 .LVL96
     /tmp/cch81QQA.s:720    .text:0000000000000550 .LVL97
     /tmp/cch81QQA.s:727    .text:0000000000000568 .LVL98
     /tmp/cch81QQA.s:732    .text:0000000000000578 .LVL99
     /tmp/cch81QQA.s:739    .text:0000000000000590 .LVL100
     /tmp/cch81QQA.s:744    .text:00000000000005a0 .LVL101
     /tmp/cch81QQA.s:750    .text:00000000000005ac .LVL102
     /tmp/cch81QQA.s:3662   .debug_str:00000000000000c4 .LASF93
     /tmp/cch81QQA.s:88     .text:0000000000000078 .LFB36
     /tmp/cch81QQA.s:236    .text:00000000000001c0 .LFE36
     /tmp/cch81QQA.s:3383   .debug_loc:0000000000000000 .LLST1
     /tmp/cch81QQA.s:3397   .debug_loc:0000000000000039 .LLST2
     /tmp/cch81QQA.s:3674   .debug_str:0000000000000117 .LASF92
     /tmp/cch81QQA.s:3417   .debug_loc:0000000000000096 .LLST3
     /tmp/cch81QQA.s:118    .text:00000000000000ac .LVL11
     /tmp/cch81QQA.s:125    .text:00000000000000c0 .LVL12
     /tmp/cch81QQA.s:130    .text:00000000000000d0 .LVL13
     /tmp/cch81QQA.s:142    .text:00000000000000ec .LVL16
     /tmp/cch81QQA.s:153    .text:00000000000000f8 .LVL17
     /tmp/cch81QQA.s:158    .text:0000000000000104 .LVL18
     /tmp/cch81QQA.s:166    .text:0000000000000118 .LVL21
     /tmp/cch81QQA.s:173    .text:000000000000012c .LVL22
     /tmp/cch81QQA.s:178    .text:000000000000013c .LVL23
     /tmp/cch81QQA.s:188    .text:0000000000000154 .LVL24
     /tmp/cch81QQA.s:195    .text:0000000000000168 .LVL25
     /tmp/cch81QQA.s:200    .text:0000000000000178 .LVL26
     /tmp/cch81QQA.s:212    .text:0000000000000194 .LVL29
     /tmp/cch81QQA.s:220    .text:00000000000001a8 .LVL30
     /tmp/cch81QQA.s:3644   .debug_str:0000000000000033 .LASF94
     /tmp/cch81QQA.s:241    .text:00000000000001c0 .LFB35
     /tmp/cch81QQA.s:415    .text:0000000000000340 .LFE35
     /tmp/cch81QQA.s:3428   .debug_loc:00000000000000cc .LLST4
     /tmp/cch81QQA.s:3442   .debug_loc:0000000000000105 .LLST5
GAS LISTING /tmp/cch81QQA.s 			page 32


     /tmp/cch81QQA.s:3462   .debug_loc:0000000000000162 .LLST6
     /tmp/cch81QQA.s:3470   .debug_loc:0000000000000186 .LLST7
     /tmp/cch81QQA.s:271    .text:00000000000001f4 .LVL36
     /tmp/cch81QQA.s:278    .text:0000000000000208 .LVL37
     /tmp/cch81QQA.s:283    .text:0000000000000218 .LVL38
     /tmp/cch81QQA.s:295    .text:0000000000000234 .LVL41
     /tmp/cch81QQA.s:306    .text:0000000000000240 .LVL42
     /tmp/cch81QQA.s:320    .text:0000000000000254 .LVL44
     /tmp/cch81QQA.s:327    .text:0000000000000268 .LVL45
     /tmp/cch81QQA.s:332    .text:0000000000000278 .LVL46
     /tmp/cch81QQA.s:337    .text:0000000000000284 .LVL47
     /tmp/cch81QQA.s:345    .text:0000000000000298 .LVL50
     /tmp/cch81QQA.s:352    .text:00000000000002ac .LVL51
     /tmp/cch81QQA.s:357    .text:00000000000002bc .LVL52
     /tmp/cch81QQA.s:367    .text:00000000000002d4 .LVL53
     /tmp/cch81QQA.s:374    .text:00000000000002e8 .LVL54
     /tmp/cch81QQA.s:379    .text:00000000000002f8 .LVL55
     /tmp/cch81QQA.s:391    .text:0000000000000314 .LVL58
     /tmp/cch81QQA.s:399    .text:0000000000000328 .LVL59
     /tmp/cch81QQA.s:3642   .debug_str:0000000000000027 .LASF95
     /tmp/cch81QQA.s:420    .text:0000000000000340 .LFB34
     /tmp/cch81QQA.s:556    .text:0000000000000424 .LFE34
     /tmp/cch81QQA.s:3481   .debug_loc:00000000000001bc .LLST8
     /tmp/cch81QQA.s:438    .text:0000000000000358 .LBB2
     /tmp/cch81QQA.s:528    .text:00000000000003e8 .LBE2
     /tmp/cch81QQA.s:3495   .debug_loc:00000000000001f5 .LLST9
     /tmp/cch81QQA.s:3622   .debug_ranges:0000000000000000 .Ldebug_ranges0
     /tmp/cch81QQA.s:3507   .debug_loc:000000000000022c .LLST10
     /tmp/cch81QQA.s:461    .text:0000000000000378 .LBB6
     /tmp/cch81QQA.s:476    .text:0000000000000390 .LBE6
     /tmp/cch81QQA.s:3523   .debug_loc:0000000000000276 .LLST11
     /tmp/cch81QQA.s:450    .text:0000000000000368 .LVL65
     /tmp/cch81QQA.s:496    .text:00000000000003b4 .LVL71
     /tmp/cch81QQA.s:503    .text:00000000000003c8 .LVL72
     /tmp/cch81QQA.s:508    .text:00000000000003d8 .LVL73
     /tmp/cch81QQA.s:533    .text:00000000000003f8 .LVL76
     /tmp/cch81QQA.s:541    .text:000000000000040c .LVL77
     /tmp/cch81QQA.s:3782   .debug_str:00000000000004e0 .LASF96
     /tmp/cch81QQA.s:561    .text:0000000000000424 .LFB33
     /tmp/cch81QQA.s:679    .text:00000000000004f0 .LFE33
     /tmp/cch81QQA.s:3534   .debug_loc:00000000000002ac .LLST12
     /tmp/cch81QQA.s:579    .text:000000000000043c .LBB10
     /tmp/cch81QQA.s:655    .text:00000000000004bc .LBE10
     /tmp/cch81QQA.s:3548   .debug_loc:00000000000002e5 .LLST13
     /tmp/cch81QQA.s:3560   .debug_loc:000000000000031c .LLST14
     /tmp/cch81QQA.s:602    .text:000000000000045c .LBB14
     /tmp/cch81QQA.s:617    .text:0000000000000474 .LBE14
     /tmp/cch81QQA.s:3572   .debug_loc:0000000000000353 .LLST15
     /tmp/cch81QQA.s:591    .text:000000000000044c .LVL82
     /tmp/cch81QQA.s:633    .text:0000000000000490 .LVL88
     /tmp/cch81QQA.s:640    .text:00000000000004a4 .LVL89
     /tmp/cch81QQA.s:645    .text:00000000000004b4 .LVL90
     /tmp/cch81QQA.s:660    .text:00000000000004cc .LVL92
     /tmp/cch81QQA.s:3856   .debug_str:0000000000000731 .LASF117
     /tmp/cch81QQA.s:9      .text:0000000000000000 .LFB32
     /tmp/cch81QQA.s:83     .text:0000000000000078 .LFE32
     /tmp/cch81QQA.s:3583   .debug_loc:0000000000000389 .LLST0
GAS LISTING /tmp/cch81QQA.s 			page 33


     /tmp/cch81QQA.s:43     .text:000000000000003c .LVL2
     /tmp/cch81QQA.s:48     .text:000000000000004c .LVL3
     /tmp/cch81QQA.s:71     .text:0000000000000070 .LVL6
     /tmp/cch81QQA.s:3802   .debug_str:0000000000000589 .LASF97
     /tmp/cch81QQA.s:3696   .debug_str:00000000000001c5 .LASF99
     /tmp/cch81QQA.s:3868   .debug_str:0000000000000793 .LASF98
     /tmp/cch81QQA.s:3870   .debug_str:00000000000007a6 .LASF100
     /tmp/cch81QQA.s:3712   .debug_str:0000000000000237 .LASF101
     /tmp/cch81QQA.s:3688   .debug_str:0000000000000172 .LASF102
     /tmp/cch81QQA.s:3784   .debug_str:00000000000004ec .LASF103
     /tmp/cch81QQA.s:3714   .debug_str:000000000000024c .LASF104
     /tmp/cch81QQA.s:91     .text:0000000000000078 .LVL8
     /tmp/cch81QQA.s:108    .text:0000000000000094 .LVL10
     /tmp/cch81QQA.s:105    .text:0000000000000090 .LVL9
     /tmp/cch81QQA.s:133    .text:00000000000000d4 .LVL14
     /tmp/cch81QQA.s:135    .text:00000000000000d8 .LVL15
     /tmp/cch81QQA.s:203    .text:000000000000017c .LVL27
     /tmp/cch81QQA.s:205    .text:0000000000000180 .LVL28
     /tmp/cch81QQA.s:228    .text:00000000000001b4 .LVL31
     /tmp/cch81QQA.s:160    .text:0000000000000108 .LVL19
     /tmp/cch81QQA.s:164    .text:0000000000000110 .LVL20
     /tmp/cch81QQA.s:231    .text:00000000000001b8 .LVL32
     /tmp/cch81QQA.s:244    .text:00000000000001c0 .LVL33
     /tmp/cch81QQA.s:261    .text:00000000000001dc .LVL35
     /tmp/cch81QQA.s:258    .text:00000000000001d8 .LVL34
     /tmp/cch81QQA.s:286    .text:000000000000021c .LVL39
     /tmp/cch81QQA.s:288    .text:0000000000000220 .LVL40
     /tmp/cch81QQA.s:382    .text:00000000000002fc .LVL56
     /tmp/cch81QQA.s:384    .text:0000000000000300 .LVL57
     /tmp/cch81QQA.s:407    .text:0000000000000334 .LVL60
     /tmp/cch81QQA.s:314    .text:0000000000000244 .LVL43
     /tmp/cch81QQA.s:339    .text:0000000000000288 .LVL48
     /tmp/cch81QQA.s:343    .text:0000000000000290 .LVL49
     /tmp/cch81QQA.s:410    .text:0000000000000338 .LVL61
     /tmp/cch81QQA.s:423    .text:0000000000000340 .LVL62
     /tmp/cch81QQA.s:442    .text:0000000000000360 .LVL64
     /tmp/cch81QQA.s:437    .text:0000000000000358 .LVL63
     /tmp/cch81QQA.s:551    .text:000000000000041c .LVL78
     /tmp/cch81QQA.s:486    .text:000000000000039c .LVL70
     /tmp/cch81QQA.s:514    .text:00000000000003e0 .LVL74
     /tmp/cch81QQA.s:525    .text:00000000000003e8 .LVL75
     /tmp/cch81QQA.s:465    .text:000000000000037c .LVL67
     /tmp/cch81QQA.s:474    .text:0000000000000390 .LVL69
     /tmp/cch81QQA.s:564    .text:0000000000000424 .LVL79
     /tmp/cch81QQA.s:583    .text:0000000000000444 .LVL81
     /tmp/cch81QQA.s:578    .text:000000000000043c .LVL80
     /tmp/cch81QQA.s:674    .text:00000000000004e8 .LVL93
     /tmp/cch81QQA.s:623    .text:0000000000000478 .LVL87
     /tmp/cch81QQA.s:651    .text:00000000000004bc .LVL91
     /tmp/cch81QQA.s:606    .text:0000000000000460 .LVL84
     /tmp/cch81QQA.s:615    .text:0000000000000474 .LVL86
     /tmp/cch81QQA.s:13     .text:0000000000000000 .LVL0
     /tmp/cch81QQA.s:37     .text:0000000000000030 .LVL1
     /tmp/cch81QQA.s:59     .text:000000000000005c .LVL4
     /tmp/cch81QQA.s:65     .text:0000000000000068 .LVL5
     /tmp/cch81QQA.s:73     .text:0000000000000074 .LVL7
     /tmp/cch81QQA.s:863    .debug_info:0000000000000000 .Ldebug_info0
GAS LISTING /tmp/cch81QQA.s 			page 34


     /tmp/cch81QQA.s:445    .text:0000000000000360 .LBB4
     /tmp/cch81QQA.s:478    .text:0000000000000390 .LBE4
     /tmp/cch81QQA.s:510    .text:00000000000003d8 .LBB8
     /tmp/cch81QQA.s:516    .text:00000000000003e0 .LBE8
     /tmp/cch81QQA.s:586    .text:0000000000000444 .LBB12
     /tmp/cch81QQA.s:619    .text:0000000000000474 .LBE12
     /tmp/cch81QQA.s:647    .text:00000000000004b4 .LBB16
     /tmp/cch81QQA.s:653    .text:00000000000004bc .LBE16

UNDEFINED SYMBOLS
_Z15thread_dispatchv
_Z11printStringPKc
_Z8printIntiii
_Z13thread_createPP3TCBPFvPvES2_
