GAS LISTING /tmp/cch81QQA.s 			page 1


   1              		.file	"System_Mode_test.cpp"
   2              		.option nopic
   3              		.option norelax
   4              		.text
   5              	.Ltext0:
   6              		.align	2
   8              	_ZL9fibonaccim:
   9              	.LFB32:
  10              		.file 1 "test/System_Mode_test.cpp"
   1:test/System_Mode_test.cpp **** 
   2:test/System_Mode_test.cpp **** #include "../h/syscall_c.hpp"
   3:test/System_Mode_test.cpp **** 
   4:test/System_Mode_test.cpp **** #include "printing.hpp"
   5:test/System_Mode_test.cpp **** 
   6:test/System_Mode_test.cpp **** static volatile bool finishedA = false;
   7:test/System_Mode_test.cpp **** static volatile bool finishedB = false;
   8:test/System_Mode_test.cpp **** static volatile bool finishedC = false;
   9:test/System_Mode_test.cpp **** static volatile bool finishedD = false;
  10:test/System_Mode_test.cpp **** 
  11:test/System_Mode_test.cpp **** static uint64 fibonacci(uint64 n) {
  11              		.loc 1 11 35
  12              		.cfi_startproc
  13              	.LVL0:
  12:test/System_Mode_test.cpp ****     if (n == 0 || n == 1) { return n; }
  14              		.loc 1 12 5
  15 0000 93071000 		li	a5,1
  16 0004 63F8A706 		bleu	a0,a5,.L6
  11:test/System_Mode_test.cpp ****     if (n == 0 || n == 1) { return n; }
  17              		.loc 1 11 35 is_stmt 0
  18 0008 130101FE 		addi	sp,sp,-32
  19              		.cfi_def_cfa_offset 32
  20 000c 233C1100 		sd	ra,24(sp)
  21 0010 23388100 		sd	s0,16(sp)
  22 0014 23349100 		sd	s1,8(sp)
  23 0018 23302101 		sd	s2,0(sp)
  24              		.cfi_offset 1, -8
  25              		.cfi_offset 8, -16
  26              		.cfi_offset 9, -24
  27              		.cfi_offset 18, -32
  28 001c 13040102 		addi	s0,sp,32
  29              		.cfi_def_cfa 8, 0
  30 0020 93040500 		mv	s1,a0
  13:test/System_Mode_test.cpp ****     if (n % 10 == 0) { thread_dispatch(); }
  31              		.loc 1 13 5 is_stmt 1
  32              		.loc 1 13 11 is_stmt 0
  33 0024 9307A000 		li	a5,10
  34 0028 B377F502 		remu	a5,a0,a5
  35              		.loc 1 13 5
  36 002c 638E0702 		beqz	a5,.L9
  37              	.LVL1:
  38              	.L3:
  14:test/System_Mode_test.cpp ****     return fibonacci(n - 1) + fibonacci(n - 2);
  39              		.loc 1 14 5 is_stmt 1
  40              		.loc 1 14 21 is_stmt 0
  41 0030 1385F4FF 		addi	a0,s1,-1
  42 0034 97000000 		call	_ZL9fibonaccim
  42      E7800000 
GAS LISTING /tmp/cch81QQA.s 			page 2


  43              	.LVL2:
  44 003c 13090500 		mv	s2,a0
  45              		.loc 1 14 40
  46 0040 1385E4FF 		addi	a0,s1,-2
  47 0044 97000000 		call	_ZL9fibonaccim
  47      E7800000 
  48              	.LVL3:
  49              		.loc 1 14 46
  50 004c 3305A900 		add	a0,s2,a0
  15:test/System_Mode_test.cpp **** }
  51              		.loc 1 15 1
  52 0050 83308101 		ld	ra,24(sp)
  53              		.cfi_remember_state
  54              		.cfi_restore 1
  55 0054 03340101 		ld	s0,16(sp)
  56              		.cfi_restore 8
  57 0058 83348100 		ld	s1,8(sp)
  58              		.cfi_restore 9
  59              	.LVL4:
  60 005c 03390100 		ld	s2,0(sp)
  61              		.cfi_restore 18
  62 0060 13010102 		addi	sp,sp,32
  63              		.cfi_def_cfa_register 2
  64 0064 67800000 		jr	ra
  65              	.LVL5:
  66              	.L9:
  67              		.cfi_restore_state
  13:test/System_Mode_test.cpp ****     if (n % 10 == 0) { thread_dispatch(); }
  68              		.loc 1 13 24 is_stmt 1 discriminator 1
  13:test/System_Mode_test.cpp ****     if (n % 10 == 0) { thread_dispatch(); }
  69              		.loc 1 13 39 is_stmt 0 discriminator 1
  70 0068 97000000 		call	_Z15thread_dispatchv
  70      E7800000 
  71              	.LVL6:
  72 0070 6FF01FFC 		j	.L3
  73              	.LVL7:
  74              	.L6:
  75              		.cfi_def_cfa_register 2
  76              		.cfi_restore 1
  77              		.cfi_restore 8
  78              		.cfi_restore 9
  79              		.cfi_restore 18
  80              		.loc 1 15 1
  81 0074 67800000 		ret
  82              		.cfi_endproc
  83              	.LFE32:
  85              		.align	2
  87              	_ZL11workerBodyDPv:
  88              	.LFB36:
  16:test/System_Mode_test.cpp **** 
  17:test/System_Mode_test.cpp **** static void workerBodyA(void* arg) {
  18:test/System_Mode_test.cpp ****     for (uint64 i = 0; i < 10; i++) {
  19:test/System_Mode_test.cpp ****         printString("A: i="); printInt(i); printString("\n");
  20:test/System_Mode_test.cpp ****         for (uint64 j = 0; j < 10000; j++) {
  21:test/System_Mode_test.cpp ****             for (uint64 k = 0; k < 30000; k++) { /* busy wait */ }
  22:test/System_Mode_test.cpp ****             thread_dispatch();
  23:test/System_Mode_test.cpp ****         }
GAS LISTING /tmp/cch81QQA.s 			page 3


  24:test/System_Mode_test.cpp ****     }
  25:test/System_Mode_test.cpp ****     printString("A finished!\n");
  26:test/System_Mode_test.cpp ****     finishedA = true;
  27:test/System_Mode_test.cpp **** }
  28:test/System_Mode_test.cpp **** 
  29:test/System_Mode_test.cpp **** static void workerBodyB(void* arg) {
  30:test/System_Mode_test.cpp ****     for (uint64 i = 0; i < 16; i++) {
  31:test/System_Mode_test.cpp ****         printString("B: i="); printInt(i); printString("\n");
  32:test/System_Mode_test.cpp ****         for (uint64 j = 0; j < 10000; j++) {
  33:test/System_Mode_test.cpp ****             for (uint64 k = 0; k < 30000; k++) { /* busy wait */ }
  34:test/System_Mode_test.cpp ****             thread_dispatch();
  35:test/System_Mode_test.cpp ****         }
  36:test/System_Mode_test.cpp ****         if (i == 10) {
  37:test/System_Mode_test.cpp ****             asm volatile("csrr t6, sepc");
  38:test/System_Mode_test.cpp ****         }
  39:test/System_Mode_test.cpp ****     }
  40:test/System_Mode_test.cpp ****     printString("B finished!\n");
  41:test/System_Mode_test.cpp ****     finishedB = true;
  42:test/System_Mode_test.cpp ****     thread_dispatch();
  43:test/System_Mode_test.cpp **** }
  44:test/System_Mode_test.cpp **** 
  45:test/System_Mode_test.cpp **** static void workerBodyC(void* arg) {
  46:test/System_Mode_test.cpp ****     uint8 i = 0;
  47:test/System_Mode_test.cpp ****     for (; i < 3; i++) {
  48:test/System_Mode_test.cpp ****         printString("C: i="); printInt(i); printString("\n");
  49:test/System_Mode_test.cpp ****     }
  50:test/System_Mode_test.cpp **** 
  51:test/System_Mode_test.cpp ****     printString("C: dispatch\n");
  52:test/System_Mode_test.cpp ****     __asm__ ("li t1, 7");
  53:test/System_Mode_test.cpp ****     thread_dispatch();
  54:test/System_Mode_test.cpp **** 
  55:test/System_Mode_test.cpp ****     uint64 t1 = 0;
  56:test/System_Mode_test.cpp ****     __asm__ ("mv %[t1], t1" : [t1] "=r"(t1));
  57:test/System_Mode_test.cpp **** 
  58:test/System_Mode_test.cpp ****     printString("C: t1="); printInt(t1); printString("\n");
  59:test/System_Mode_test.cpp **** 
  60:test/System_Mode_test.cpp ****     uint64 result = fibonacci(12);
  61:test/System_Mode_test.cpp ****     printString("C: fibonaci="); printInt(result); printString("\n");
  62:test/System_Mode_test.cpp **** 
  63:test/System_Mode_test.cpp ****     for (; i < 6; i++) {
  64:test/System_Mode_test.cpp ****         printString("C: i="); printInt(i); printString("\n");
  65:test/System_Mode_test.cpp ****     }
  66:test/System_Mode_test.cpp **** 
  67:test/System_Mode_test.cpp ****     printString("A finished!\n");
  68:test/System_Mode_test.cpp ****     finishedC = true;
  69:test/System_Mode_test.cpp ****     thread_dispatch();
  70:test/System_Mode_test.cpp **** }
  71:test/System_Mode_test.cpp **** 
  72:test/System_Mode_test.cpp **** static void workerBodyD(void* arg) {
  89              		.loc 1 72 36 is_stmt 1
  90              		.cfi_startproc
  91              	.LVL8:
  92 0078 130101FE 		addi	sp,sp,-32
  93              		.cfi_def_cfa_offset 32
  94 007c 233C1100 		sd	ra,24(sp)
  95 0080 23388100 		sd	s0,16(sp)
  96 0084 23349100 		sd	s1,8(sp)
GAS LISTING /tmp/cch81QQA.s 			page 4


  97 0088 23302101 		sd	s2,0(sp)
  98              		.cfi_offset 1, -8
  99              		.cfi_offset 8, -16
 100              		.cfi_offset 9, -24
 101              		.cfi_offset 18, -32
 102 008c 13040102 		addi	s0,sp,32
 103              		.cfi_def_cfa 8, 0
  73:test/System_Mode_test.cpp ****     uint8 i = 10;
 104              		.loc 1 73 5
 105              	.LVL9:
 106              		.loc 1 73 11 is_stmt 0
 107 0090 9304A000 		li	s1,10
 108              	.LVL10:
 109              	.L12:
  74:test/System_Mode_test.cpp ****     for (; i < 13; i++) {
 110              		.loc 1 74 5 is_stmt 1 discriminator 2
 111              		.loc 1 74 14 is_stmt 0 discriminator 2
 112 0094 9307C000 		li	a5,12
 113 0098 63E29704 		bgtu	s1,a5,.L11
  75:test/System_Mode_test.cpp ****         printString("D: i="); printInt(i); printString("\n");
 114              		.loc 1 75 9 is_stmt 1 discriminator 1
 115              		.loc 1 75 20 is_stmt 0 discriminator 1
 116 009c 17050000 		lla	a0,.LC0
 116      13050500 
 117 00a4 97000000 		call	_Z11printStringPKc
 117      E7800000 
 118              	.LVL11:
 119              		.loc 1 75 31 is_stmt 1 discriminator 1
 120              		.loc 1 75 39 is_stmt 0 discriminator 1
 121 00ac 13060000 		li	a2,0
 122 00b0 9305A000 		li	a1,10
 123 00b4 13850400 		mv	a0,s1
 124 00b8 97000000 		call	_Z8printIntiii
 124      E7800000 
 125              	.LVL12:
 126              		.loc 1 75 44 is_stmt 1 discriminator 1
 127              		.loc 1 75 55 is_stmt 0 discriminator 1
 128 00c0 17050000 		lla	a0,.LC1
 128      13050500 
 129 00c8 97000000 		call	_Z11printStringPKc
 129      E7800000 
 130              	.LVL13:
  74:test/System_Mode_test.cpp ****     for (; i < 13; i++) {
 131              		.loc 1 74 5 discriminator 1
 132 00d0 9B841400 		addiw	s1,s1,1
 133              	.LVL14:
 134 00d4 93F4F40F 		andi	s1,s1,0xff
 135              	.LVL15:
 136 00d8 6FF0DFFB 		j	.L12
 137              	.L11:
  76:test/System_Mode_test.cpp ****     }
  77:test/System_Mode_test.cpp **** 
  78:test/System_Mode_test.cpp ****     printString("D: dispatch\n");
 138              		.loc 1 78 5 is_stmt 1
 139              		.loc 1 78 16 is_stmt 0
 140 00dc 17050000 		lla	a0,.LC2
 140      13050500 
GAS LISTING /tmp/cch81QQA.s 			page 5


 141 00e4 97000000 		call	_Z11printStringPKc
 141      E7800000 
 142              	.LVL16:
  79:test/System_Mode_test.cpp ****     __asm__ ("li t1, 5");
 143              		.loc 1 79 5 is_stmt 1
 144              		.loc 1 79 25 is_stmt 0
 145              	#APP
 146              	# 79 "test/System_Mode_test.cpp" 1
  80              	    thread_dispatch();
 147              		li t1, 5
 148              	# 0 "" 2
 149              		.loc 1 80 5 is_stmt 1
 150              		.loc 1 80 20 is_stmt 0
 151              	#NO_APP
 152 00f0 97000000 		call	_Z15thread_dispatchv
 152      E7800000 
 153              	.LVL17:
  81:test/System_Mode_test.cpp **** 
  82:test/System_Mode_test.cpp ****     uint64 result = fibonacci(16);
 154              		.loc 1 82 5 is_stmt 1
 155              		.loc 1 82 30 is_stmt 0
 156 00f8 13050001 		li	a0,16
 157 00fc 97000000 		call	_ZL9fibonaccim
 157      E7800000 
 158              	.LVL18:
 159 0104 13090500 		mv	s2,a0
 160              	.LVL19:
  83:test/System_Mode_test.cpp ****     printString("D: fibonaci="); printInt(result); printString("\n");
 161              		.loc 1 83 5 is_stmt 1
 162              		.loc 1 83 16 is_stmt 0
 163 0108 17050000 		lla	a0,.LC3
 163      13050500 
 164              	.LVL20:
 165 0110 97000000 		call	_Z11printStringPKc
 165      E7800000 
 166              	.LVL21:
 167              		.loc 1 83 34 is_stmt 1
 168              		.loc 1 83 42 is_stmt 0
 169 0118 13060000 		li	a2,0
 170 011c 9305A000 		li	a1,10
 171 0120 1B050900 		sext.w	a0,s2
 172 0124 97000000 		call	_Z8printIntiii
 172      E7800000 
 173              	.LVL22:
 174              		.loc 1 83 52 is_stmt 1
 175              		.loc 1 83 63 is_stmt 0
 176 012c 17050000 		lla	a0,.LC1
 176      13050500 
 177 0134 97000000 		call	_Z11printStringPKc
 177      E7800000 
 178              	.LVL23:
 179              	.L14:
  84:test/System_Mode_test.cpp **** 
  85:test/System_Mode_test.cpp ****     for (; i < 16; i++) {
 180              		.loc 1 85 5 is_stmt 1 discriminator 2
 181              		.loc 1 85 14 is_stmt 0 discriminator 2
 182 013c 9307F000 		li	a5,15
GAS LISTING /tmp/cch81QQA.s 			page 6


 183 0140 63E29704 		bgtu	s1,a5,.L13
  86:test/System_Mode_test.cpp ****         printString("D: i="); printInt(i); printString("\n");
 184              		.loc 1 86 9 is_stmt 1 discriminator 1
 185              		.loc 1 86 20 is_stmt 0 discriminator 1
 186 0144 17050000 		lla	a0,.LC0
 186      13050500 
 187 014c 97000000 		call	_Z11printStringPKc
 187      E7800000 
 188              	.LVL24:
 189              		.loc 1 86 31 is_stmt 1 discriminator 1
 190              		.loc 1 86 39 is_stmt 0 discriminator 1
 191 0154 13060000 		li	a2,0
 192 0158 9305A000 		li	a1,10
 193 015c 13850400 		mv	a0,s1
 194 0160 97000000 		call	_Z8printIntiii
 194      E7800000 
 195              	.LVL25:
 196              		.loc 1 86 44 is_stmt 1 discriminator 1
 197              		.loc 1 86 55 is_stmt 0 discriminator 1
 198 0168 17050000 		lla	a0,.LC1
 198      13050500 
 199 0170 97000000 		call	_Z11printStringPKc
 199      E7800000 
 200              	.LVL26:
  85:test/System_Mode_test.cpp ****         printString("D: i="); printInt(i); printString("\n");
 201              		.loc 1 85 5 discriminator 1
 202 0178 9B841400 		addiw	s1,s1,1
 203              	.LVL27:
 204 017c 93F4F40F 		andi	s1,s1,0xff
 205              	.LVL28:
 206 0180 6FF0DFFB 		j	.L14
 207              	.L13:
  87:test/System_Mode_test.cpp ****     }
  88:test/System_Mode_test.cpp **** 
  89:test/System_Mode_test.cpp ****     printString("D finished!\n");
 208              		.loc 1 89 5 is_stmt 1
 209              		.loc 1 89 16 is_stmt 0
 210 0184 17050000 		lla	a0,.LC4
 210      13050500 
 211 018c 97000000 		call	_Z11printStringPKc
 211      E7800000 
 212              	.LVL29:
  90:test/System_Mode_test.cpp ****     finishedD = true;
 213              		.loc 1 90 5 is_stmt 1
 214              		.loc 1 90 15 is_stmt 0
 215 0194 93071000 		li	a5,1
 216 0198 17070000 		sb	a5,_ZL9finishedD,a4
 216      2300F700 
  91:test/System_Mode_test.cpp ****     thread_dispatch();
 217              		.loc 1 91 5 is_stmt 1
 218              		.loc 1 91 20 is_stmt 0
 219 01a0 97000000 		call	_Z15thread_dispatchv
 219      E7800000 
 220              	.LVL30:
  92:test/System_Mode_test.cpp **** }
 221              		.loc 1 92 1
 222 01a8 83308101 		ld	ra,24(sp)
GAS LISTING /tmp/cch81QQA.s 			page 7


 223              		.cfi_restore 1
 224 01ac 03340101 		ld	s0,16(sp)
 225              		.cfi_restore 8
 226 01b0 83348100 		ld	s1,8(sp)
 227              		.cfi_restore 9
 228              	.LVL31:
 229 01b4 03390100 		ld	s2,0(sp)
 230              		.cfi_restore 18
 231              	.LVL32:
 232 01b8 13010102 		addi	sp,sp,32
 233              		.cfi_def_cfa_register 2
 234 01bc 67800000 		jr	ra
 235              		.cfi_endproc
 236              	.LFE36:
 238              		.align	2
 240              	_ZL11workerBodyCPv:
 241              	.LFB35:
  45:test/System_Mode_test.cpp ****     uint8 i = 0;
 242              		.loc 1 45 36 is_stmt 1
 243              		.cfi_startproc
 244              	.LVL33:
 245 01c0 130101FE 		addi	sp,sp,-32
 246              		.cfi_def_cfa_offset 32
 247 01c4 233C1100 		sd	ra,24(sp)
 248 01c8 23388100 		sd	s0,16(sp)
 249 01cc 23349100 		sd	s1,8(sp)
 250 01d0 23302101 		sd	s2,0(sp)
 251              		.cfi_offset 1, -8
 252              		.cfi_offset 8, -16
 253              		.cfi_offset 9, -24
 254              		.cfi_offset 18, -32
 255 01d4 13040102 		addi	s0,sp,32
 256              		.cfi_def_cfa 8, 0
  46:test/System_Mode_test.cpp ****     for (; i < 3; i++) {
 257              		.loc 1 46 5
 258              	.LVL34:
  46:test/System_Mode_test.cpp ****     for (; i < 3; i++) {
 259              		.loc 1 46 11 is_stmt 0
 260 01d8 93040000 		li	s1,0
 261              	.LVL35:
 262              	.L18:
  47:test/System_Mode_test.cpp ****         printString("C: i="); printInt(i); printString("\n");
 263              		.loc 1 47 5 is_stmt 1 discriminator 2
  47:test/System_Mode_test.cpp ****         printString("C: i="); printInt(i); printString("\n");
 264              		.loc 1 47 14 is_stmt 0 discriminator 2
 265 01dc 93072000 		li	a5,2
 266 01e0 63E29704 		bgtu	s1,a5,.L17
  48:test/System_Mode_test.cpp ****     }
 267              		.loc 1 48 9 is_stmt 1 discriminator 1
  48:test/System_Mode_test.cpp ****     }
 268              		.loc 1 48 20 is_stmt 0 discriminator 1
 269 01e4 17050000 		lla	a0,.LC5
 269      13050500 
 270 01ec 97000000 		call	_Z11printStringPKc
 270      E7800000 
 271              	.LVL36:
  48:test/System_Mode_test.cpp ****     }
GAS LISTING /tmp/cch81QQA.s 			page 8


 272              		.loc 1 48 31 is_stmt 1 discriminator 1
  48:test/System_Mode_test.cpp ****     }
 273              		.loc 1 48 39 is_stmt 0 discriminator 1
 274 01f4 13060000 		li	a2,0
 275 01f8 9305A000 		li	a1,10
 276 01fc 13850400 		mv	a0,s1
 277 0200 97000000 		call	_Z8printIntiii
 277      E7800000 
 278              	.LVL37:
  48:test/System_Mode_test.cpp ****     }
 279              		.loc 1 48 44 is_stmt 1 discriminator 1
  48:test/System_Mode_test.cpp ****     }
 280              		.loc 1 48 55 is_stmt 0 discriminator 1
 281 0208 17050000 		lla	a0,.LC1
 281      13050500 
 282 0210 97000000 		call	_Z11printStringPKc
 282      E7800000 
 283              	.LVL38:
  47:test/System_Mode_test.cpp ****         printString("C: i="); printInt(i); printString("\n");
 284              		.loc 1 47 5 discriminator 1
 285 0218 9B841400 		addiw	s1,s1,1
 286              	.LVL39:
 287 021c 93F4F40F 		andi	s1,s1,0xff
 288              	.LVL40:
 289 0220 6FF0DFFB 		j	.L18
 290              	.L17:
  51:test/System_Mode_test.cpp ****     __asm__ ("li t1, 7");
 291              		.loc 1 51 5 is_stmt 1
  51:test/System_Mode_test.cpp ****     __asm__ ("li t1, 7");
 292              		.loc 1 51 16 is_stmt 0
 293 0224 17050000 		lla	a0,.LC6
 293      13050500 
 294 022c 97000000 		call	_Z11printStringPKc
 294      E7800000 
 295              	.LVL41:
  52:test/System_Mode_test.cpp ****     thread_dispatch();
 296              		.loc 1 52 5 is_stmt 1
  52:test/System_Mode_test.cpp ****     thread_dispatch();
 297              		.loc 1 52 25 is_stmt 0
 298              	#APP
 299              	# 52 "test/System_Mode_test.cpp" 1
  53:test/System_Mode_test.cpp **** 
 300              		li t1, 7
 301              	# 0 "" 2
 302              		.loc 1 53 5 is_stmt 1
  53:test/System_Mode_test.cpp **** 
 303              		.loc 1 53 20 is_stmt 0
 304              	#NO_APP
 305 0238 97000000 		call	_Z15thread_dispatchv
 305      E7800000 
 306              	.LVL42:
  55:test/System_Mode_test.cpp ****     __asm__ ("mv %[t1], t1" : [t1] "=r"(t1));
 307              		.loc 1 55 5 is_stmt 1
  56:test/System_Mode_test.cpp **** 
 308              		.loc 1 56 5
  56:test/System_Mode_test.cpp **** 
 309              		.loc 1 56 45 is_stmt 0
GAS LISTING /tmp/cch81QQA.s 			page 9


 310              	#APP
 311              	# 56 "test/System_Mode_test.cpp" 1
 312              		mv s2, t1
 313              	# 0 "" 2
 314              	.LVL43:
  58:test/System_Mode_test.cpp **** 
 315              		.loc 1 58 5 is_stmt 1
  58:test/System_Mode_test.cpp **** 
 316              		.loc 1 58 16 is_stmt 0
 317              	#NO_APP
 318 0244 17050000 		lla	a0,.LC7
 318      13050500 
 319 024c 97000000 		call	_Z11printStringPKc
 319      E7800000 
 320              	.LVL44:
  58:test/System_Mode_test.cpp **** 
 321              		.loc 1 58 28 is_stmt 1
  58:test/System_Mode_test.cpp **** 
 322              		.loc 1 58 36 is_stmt 0
 323 0254 13060000 		li	a2,0
 324 0258 9305A000 		li	a1,10
 325 025c 1B050900 		sext.w	a0,s2
 326 0260 97000000 		call	_Z8printIntiii
 326      E7800000 
 327              	.LVL45:
  58:test/System_Mode_test.cpp **** 
 328              		.loc 1 58 42 is_stmt 1
  58:test/System_Mode_test.cpp **** 
 329              		.loc 1 58 53 is_stmt 0
 330 0268 17050000 		lla	a0,.LC1
 330      13050500 
 331 0270 97000000 		call	_Z11printStringPKc
 331      E7800000 
 332              	.LVL46:
  60:test/System_Mode_test.cpp ****     printString("C: fibonaci="); printInt(result); printString("\n");
 333              		.loc 1 60 5 is_stmt 1
  60:test/System_Mode_test.cpp ****     printString("C: fibonaci="); printInt(result); printString("\n");
 334              		.loc 1 60 30 is_stmt 0
 335 0278 1305C000 		li	a0,12
 336 027c 97000000 		call	_ZL9fibonaccim
 336      E7800000 
 337              	.LVL47:
 338 0284 13090500 		mv	s2,a0
 339              	.LVL48:
  61:test/System_Mode_test.cpp **** 
 340              		.loc 1 61 5 is_stmt 1
  61:test/System_Mode_test.cpp **** 
 341              		.loc 1 61 16 is_stmt 0
 342 0288 17050000 		lla	a0,.LC8
 342      13050500 
 343              	.LVL49:
 344 0290 97000000 		call	_Z11printStringPKc
 344      E7800000 
 345              	.LVL50:
  61:test/System_Mode_test.cpp **** 
 346              		.loc 1 61 34 is_stmt 1
  61:test/System_Mode_test.cpp **** 
GAS LISTING /tmp/cch81QQA.s 			page 10


 347              		.loc 1 61 42 is_stmt 0
 348 0298 13060000 		li	a2,0
 349 029c 9305A000 		li	a1,10
 350 02a0 1B050900 		sext.w	a0,s2
 351 02a4 97000000 		call	_Z8printIntiii
 351      E7800000 
 352              	.LVL51:
  61:test/System_Mode_test.cpp **** 
 353              		.loc 1 61 52 is_stmt 1
  61:test/System_Mode_test.cpp **** 
 354              		.loc 1 61 63 is_stmt 0
 355 02ac 17050000 		lla	a0,.LC1
 355      13050500 
 356 02b4 97000000 		call	_Z11printStringPKc
 356      E7800000 
 357              	.LVL52:
 358              	.L20:
  63:test/System_Mode_test.cpp ****         printString("C: i="); printInt(i); printString("\n");
 359              		.loc 1 63 5 is_stmt 1 discriminator 2
  63:test/System_Mode_test.cpp ****         printString("C: i="); printInt(i); printString("\n");
 360              		.loc 1 63 14 is_stmt 0 discriminator 2
 361 02bc 93075000 		li	a5,5
 362 02c0 63E29704 		bgtu	s1,a5,.L19
  64:test/System_Mode_test.cpp ****     }
 363              		.loc 1 64 9 is_stmt 1 discriminator 1
  64:test/System_Mode_test.cpp ****     }
 364              		.loc 1 64 20 is_stmt 0 discriminator 1
 365 02c4 17050000 		lla	a0,.LC5
 365      13050500 
 366 02cc 97000000 		call	_Z11printStringPKc
 366      E7800000 
 367              	.LVL53:
  64:test/System_Mode_test.cpp ****     }
 368              		.loc 1 64 31 is_stmt 1 discriminator 1
  64:test/System_Mode_test.cpp ****     }
 369              		.loc 1 64 39 is_stmt 0 discriminator 1
 370 02d4 13060000 		li	a2,0
 371 02d8 9305A000 		li	a1,10
 372 02dc 13850400 		mv	a0,s1
 373 02e0 97000000 		call	_Z8printIntiii
 373      E7800000 
 374              	.LVL54:
  64:test/System_Mode_test.cpp ****     }
 375              		.loc 1 64 44 is_stmt 1 discriminator 1
  64:test/System_Mode_test.cpp ****     }
 376              		.loc 1 64 55 is_stmt 0 discriminator 1
 377 02e8 17050000 		lla	a0,.LC1
 377      13050500 
 378 02f0 97000000 		call	_Z11printStringPKc
 378      E7800000 
 379              	.LVL55:
  63:test/System_Mode_test.cpp ****         printString("C: i="); printInt(i); printString("\n");
 380              		.loc 1 63 5 discriminator 1
 381 02f8 9B841400 		addiw	s1,s1,1
 382              	.LVL56:
 383 02fc 93F4F40F 		andi	s1,s1,0xff
 384              	.LVL57:
GAS LISTING /tmp/cch81QQA.s 			page 11


 385 0300 6FF0DFFB 		j	.L20
 386              	.L19:
  67:test/System_Mode_test.cpp ****     finishedC = true;
 387              		.loc 1 67 5 is_stmt 1
  67:test/System_Mode_test.cpp ****     finishedC = true;
 388              		.loc 1 67 16 is_stmt 0
 389 0304 17050000 		lla	a0,.LC9
 389      13050500 
 390 030c 97000000 		call	_Z11printStringPKc
 390      E7800000 
 391              	.LVL58:
  68:test/System_Mode_test.cpp ****     thread_dispatch();
 392              		.loc 1 68 5 is_stmt 1
  68:test/System_Mode_test.cpp ****     thread_dispatch();
 393              		.loc 1 68 15 is_stmt 0
 394 0314 93071000 		li	a5,1
 395 0318 17070000 		sb	a5,_ZL9finishedC,a4
 395      2300F700 
  69:test/System_Mode_test.cpp **** }
 396              		.loc 1 69 5 is_stmt 1
  69:test/System_Mode_test.cpp **** }
 397              		.loc 1 69 20 is_stmt 0
 398 0320 97000000 		call	_Z15thread_dispatchv
 398      E7800000 
 399              	.LVL59:
  70:test/System_Mode_test.cpp **** 
 400              		.loc 1 70 1
 401 0328 83308101 		ld	ra,24(sp)
 402              		.cfi_restore 1
 403 032c 03340101 		ld	s0,16(sp)
 404              		.cfi_restore 8
 405 0330 83348100 		ld	s1,8(sp)
 406              		.cfi_restore 9
 407              	.LVL60:
 408 0334 03390100 		ld	s2,0(sp)
 409              		.cfi_restore 18
 410              	.LVL61:
 411 0338 13010102 		addi	sp,sp,32
 412              		.cfi_def_cfa_register 2
 413 033c 67800000 		jr	ra
 414              		.cfi_endproc
 415              	.LFE35:
 417              		.align	2
 419              	_ZL11workerBodyBPv:
 420              	.LFB34:
  29:test/System_Mode_test.cpp ****     for (uint64 i = 0; i < 16; i++) {
 421              		.loc 1 29 36 is_stmt 1
 422              		.cfi_startproc
 423              	.LVL62:
 424 0340 130101FE 		addi	sp,sp,-32
 425              		.cfi_def_cfa_offset 32
 426 0344 233C1100 		sd	ra,24(sp)
 427 0348 23388100 		sd	s0,16(sp)
 428 034c 23349100 		sd	s1,8(sp)
 429 0350 23302101 		sd	s2,0(sp)
 430              		.cfi_offset 1, -8
 431              		.cfi_offset 8, -16
GAS LISTING /tmp/cch81QQA.s 			page 12


 432              		.cfi_offset 9, -24
 433              		.cfi_offset 18, -32
 434 0354 13040102 		addi	s0,sp,32
 435              		.cfi_def_cfa 8, 0
  30:test/System_Mode_test.cpp ****         printString("B: i="); printInt(i); printString("\n");
 436              		.loc 1 30 5
 437              	.LVL63:
 438              	.LBB2:
  30:test/System_Mode_test.cpp ****         printString("B: i="); printInt(i); printString("\n");
 439              		.loc 1 30 17 is_stmt 0
 440 0358 13090000 		li	s2,0
 441 035c 6F000004 		j	.L29
 442              	.LVL64:
 443              	.L25:
 444              	.LBB3:
 445              	.LBB4:
 446              	.LBB5:
  34:test/System_Mode_test.cpp ****         }
 447              		.loc 1 34 13 is_stmt 1 discriminator 2
  34:test/System_Mode_test.cpp ****         }
 448              		.loc 1 34 28 is_stmt 0 discriminator 2
 449 0360 97000000 		call	_Z15thread_dispatchv
 449      E7800000 
 450              	.LVL65:
 451              	.LBE5:
  32:test/System_Mode_test.cpp ****             for (uint64 k = 0; k < 30000; k++) { /* busy wait */ }
 452              		.loc 1 32 9 discriminator 2
 453 0368 93841400 		addi	s1,s1,1
 454              	.LVL66:
 455              	.L27:
  32:test/System_Mode_test.cpp ****             for (uint64 k = 0; k < 30000; k++) { /* busy wait */ }
 456              		.loc 1 32 30 discriminator 1
 457 036c B7270000 		li	a5,8192
 458 0370 9387F770 		addi	a5,a5,1807
 459 0374 63EE9700 		bgtu	s1,a5,.L24
 460              	.LBB7:
 461              	.LBB6:
  33:test/System_Mode_test.cpp ****             thread_dispatch();
 462              		.loc 1 33 25
 463 0378 13070000 		li	a4,0
 464              	.L26:
 465              	.LVL67:
  33:test/System_Mode_test.cpp ****             thread_dispatch();
 466              		.loc 1 33 34 discriminator 3
 467 037c B7770000 		li	a5,28672
 468 0380 9387F752 		addi	a5,a5,1327
 469 0384 E3EEE7FC 		bgtu	a4,a5,.L25
  33:test/System_Mode_test.cpp ****             thread_dispatch();
 470              		.loc 1 33 13 discriminator 2
 471 0388 13071700 		addi	a4,a4,1
 472              	.LVL68:
 473 038c 6FF01FFF 		j	.L26
 474              	.LVL69:
 475              	.L24:
 476              	.LBE6:
 477              	.LBE7:
 478              	.LBE4:
GAS LISTING /tmp/cch81QQA.s 			page 13


  36:test/System_Mode_test.cpp ****             asm volatile("csrr t6, sepc");
 479              		.loc 1 36 9 is_stmt 1
 480 0390 9307A000 		li	a5,10
 481 0394 6306F904 		beq	s2,a5,.L31
 482              	.L28:
 483              	.LBE3:
  30:test/System_Mode_test.cpp ****         printString("B: i="); printInt(i); printString("\n");
 484              		.loc 1 30 5 is_stmt 0 discriminator 2
 485 0398 13091900 		addi	s2,s2,1
 486              	.LVL70:
 487              	.L29:
  30:test/System_Mode_test.cpp ****         printString("B: i="); printInt(i); printString("\n");
 488              		.loc 1 30 26 discriminator 1
 489 039c 9307F000 		li	a5,15
 490 03a0 63E42705 		bgtu	s2,a5,.L23
 491              	.LBB9:
  31:test/System_Mode_test.cpp ****         for (uint64 j = 0; j < 10000; j++) {
 492              		.loc 1 31 9 is_stmt 1
  31:test/System_Mode_test.cpp ****         for (uint64 j = 0; j < 10000; j++) {
 493              		.loc 1 31 20 is_stmt 0
 494 03a4 17050000 		lla	a0,.LC10
 494      13050500 
 495 03ac 97000000 		call	_Z11printStringPKc
 495      E7800000 
 496              	.LVL71:
  31:test/System_Mode_test.cpp ****         for (uint64 j = 0; j < 10000; j++) {
 497              		.loc 1 31 31 is_stmt 1
  31:test/System_Mode_test.cpp ****         for (uint64 j = 0; j < 10000; j++) {
 498              		.loc 1 31 39 is_stmt 0
 499 03b4 13060000 		li	a2,0
 500 03b8 9305A000 		li	a1,10
 501 03bc 1B050900 		sext.w	a0,s2
 502 03c0 97000000 		call	_Z8printIntiii
 502      E7800000 
 503              	.LVL72:
  31:test/System_Mode_test.cpp ****         for (uint64 j = 0; j < 10000; j++) {
 504              		.loc 1 31 44 is_stmt 1
  31:test/System_Mode_test.cpp ****         for (uint64 j = 0; j < 10000; j++) {
 505              		.loc 1 31 55 is_stmt 0
 506 03c8 17050000 		lla	a0,.LC1
 506      13050500 
 507 03d0 97000000 		call	_Z11printStringPKc
 507      E7800000 
 508              	.LVL73:
  32:test/System_Mode_test.cpp ****             for (uint64 k = 0; k < 30000; k++) { /* busy wait */ }
 509              		.loc 1 32 9 is_stmt 1
 510              	.LBB8:
  32:test/System_Mode_test.cpp ****             for (uint64 k = 0; k < 30000; k++) { /* busy wait */ }
 511              		.loc 1 32 21 is_stmt 0
 512 03d8 93040000 		li	s1,0
 513 03dc 6FF01FF9 		j	.L27
 514              	.LVL74:
 515              	.L31:
 516              	.LBE8:
  37:test/System_Mode_test.cpp ****         }
 517              		.loc 1 37 13 is_stmt 1
  37:test/System_Mode_test.cpp ****         }
GAS LISTING /tmp/cch81QQA.s 			page 14


 518              		.loc 1 37 42 is_stmt 0
 519              	#APP
 520              	# 37 "test/System_Mode_test.cpp" 1
 521              		csrr t6, sepc
 522              	# 0 "" 2
 523              	#NO_APP
 524 03e4 6FF05FFB 		j	.L28
 525              	.LVL75:
 526              	.L23:
 527              	.LBE9:
 528              	.LBE2:
  40:test/System_Mode_test.cpp ****     finishedB = true;
 529              		.loc 1 40 5 is_stmt 1
  40:test/System_Mode_test.cpp ****     finishedB = true;
 530              		.loc 1 40 16 is_stmt 0
 531 03e8 17050000 		lla	a0,.LC11
 531      13050500 
 532 03f0 97000000 		call	_Z11printStringPKc
 532      E7800000 
 533              	.LVL76:
  41:test/System_Mode_test.cpp ****     thread_dispatch();
 534              		.loc 1 41 5 is_stmt 1
  41:test/System_Mode_test.cpp ****     thread_dispatch();
 535              		.loc 1 41 15 is_stmt 0
 536 03f8 93071000 		li	a5,1
 537 03fc 17070000 		sb	a5,_ZL9finishedB,a4
 537      2300F700 
  42:test/System_Mode_test.cpp **** }
 538              		.loc 1 42 5 is_stmt 1
  42:test/System_Mode_test.cpp **** }
 539              		.loc 1 42 20 is_stmt 0
 540 0404 97000000 		call	_Z15thread_dispatchv
 540      E7800000 
 541              	.LVL77:
  43:test/System_Mode_test.cpp **** 
 542              		.loc 1 43 1
 543 040c 83308101 		ld	ra,24(sp)
 544              		.cfi_restore 1
 545 0410 03340101 		ld	s0,16(sp)
 546              		.cfi_restore 8
 547 0414 83348100 		ld	s1,8(sp)
 548              		.cfi_restore 9
 549 0418 03390100 		ld	s2,0(sp)
 550              		.cfi_restore 18
 551              	.LVL78:
 552 041c 13010102 		addi	sp,sp,32
 553              		.cfi_def_cfa_register 2
 554 0420 67800000 		jr	ra
 555              		.cfi_endproc
 556              	.LFE34:
 558              		.align	2
 560              	_ZL11workerBodyAPv:
 561              	.LFB33:
  17:test/System_Mode_test.cpp ****     for (uint64 i = 0; i < 10; i++) {
 562              		.loc 1 17 36 is_stmt 1
 563              		.cfi_startproc
 564              	.LVL79:
GAS LISTING /tmp/cch81QQA.s 			page 15


 565 0424 130101FE 		addi	sp,sp,-32
 566              		.cfi_def_cfa_offset 32
 567 0428 233C1100 		sd	ra,24(sp)
 568 042c 23388100 		sd	s0,16(sp)
 569 0430 23349100 		sd	s1,8(sp)
 570 0434 23302101 		sd	s2,0(sp)
 571              		.cfi_offset 1, -8
 572              		.cfi_offset 8, -16
 573              		.cfi_offset 9, -24
 574              		.cfi_offset 18, -32
 575 0438 13040102 		addi	s0,sp,32
 576              		.cfi_def_cfa 8, 0
  18:test/System_Mode_test.cpp ****         printString("A: i="); printInt(i); printString("\n");
 577              		.loc 1 18 5
 578              	.LVL80:
 579              	.LBB10:
  18:test/System_Mode_test.cpp ****         printString("A: i="); printInt(i); printString("\n");
 580              		.loc 1 18 17 is_stmt 0
 581 043c 13090000 		li	s2,0
 582 0440 6F008003 		j	.L38
 583              	.LVL81:
 584              	.L35:
 585              	.LBB11:
 586              	.LBB12:
 587              	.LBB13:
  22:test/System_Mode_test.cpp ****         }
 588              		.loc 1 22 13 is_stmt 1 discriminator 2
  22:test/System_Mode_test.cpp ****         }
 589              		.loc 1 22 28 is_stmt 0 discriminator 2
 590 0444 97000000 		call	_Z15thread_dispatchv
 590      E7800000 
 591              	.LVL82:
 592              	.LBE13:
  20:test/System_Mode_test.cpp ****             for (uint64 k = 0; k < 30000; k++) { /* busy wait */ }
 593              		.loc 1 20 9 discriminator 2
 594 044c 93841400 		addi	s1,s1,1
 595              	.LVL83:
 596              	.L37:
  20:test/System_Mode_test.cpp ****             for (uint64 k = 0; k < 30000; k++) { /* busy wait */ }
 597              		.loc 1 20 30 discriminator 1
 598 0450 B7270000 		li	a5,8192
 599 0454 9387F770 		addi	a5,a5,1807
 600 0458 63EE9700 		bgtu	s1,a5,.L34
 601              	.LBB15:
 602              	.LBB14:
  21:test/System_Mode_test.cpp ****             thread_dispatch();
 603              		.loc 1 21 25
 604 045c 13070000 		li	a4,0
 605              	.L36:
 606              	.LVL84:
  21:test/System_Mode_test.cpp ****             thread_dispatch();
 607              		.loc 1 21 34 discriminator 3
 608 0460 B7770000 		li	a5,28672
 609 0464 9387F752 		addi	a5,a5,1327
 610 0468 E3EEE7FC 		bgtu	a4,a5,.L35
  21:test/System_Mode_test.cpp ****             thread_dispatch();
 611              		.loc 1 21 13 discriminator 2
GAS LISTING /tmp/cch81QQA.s 			page 16


 612 046c 13071700 		addi	a4,a4,1
 613              	.LVL85:
 614 0470 6FF01FFF 		j	.L36
 615              	.LVL86:
 616              	.L34:
 617              	.LBE14:
 618              	.LBE15:
 619              	.LBE12:
 620              	.LBE11:
  18:test/System_Mode_test.cpp ****         printString("A: i="); printInt(i); printString("\n");
 621              		.loc 1 18 5 discriminator 2
 622 0474 13091900 		addi	s2,s2,1
 623              	.LVL87:
 624              	.L38:
  18:test/System_Mode_test.cpp ****         printString("A: i="); printInt(i); printString("\n");
 625              		.loc 1 18 26 discriminator 1
 626 0478 93079000 		li	a5,9
 627 047c 63E02705 		bgtu	s2,a5,.L33
 628              	.LBB17:
  19:test/System_Mode_test.cpp ****         for (uint64 j = 0; j < 10000; j++) {
 629              		.loc 1 19 9 is_stmt 1
  19:test/System_Mode_test.cpp ****         for (uint64 j = 0; j < 10000; j++) {
 630              		.loc 1 19 20 is_stmt 0
 631 0480 17050000 		lla	a0,.LC12
 631      13050500 
 632 0488 97000000 		call	_Z11printStringPKc
 632      E7800000 
 633              	.LVL88:
  19:test/System_Mode_test.cpp ****         for (uint64 j = 0; j < 10000; j++) {
 634              		.loc 1 19 31 is_stmt 1
  19:test/System_Mode_test.cpp ****         for (uint64 j = 0; j < 10000; j++) {
 635              		.loc 1 19 39 is_stmt 0
 636 0490 13060000 		li	a2,0
 637 0494 9305A000 		li	a1,10
 638 0498 1B050900 		sext.w	a0,s2
 639 049c 97000000 		call	_Z8printIntiii
 639      E7800000 
 640              	.LVL89:
  19:test/System_Mode_test.cpp ****         for (uint64 j = 0; j < 10000; j++) {
 641              		.loc 1 19 44 is_stmt 1
  19:test/System_Mode_test.cpp ****         for (uint64 j = 0; j < 10000; j++) {
 642              		.loc 1 19 55 is_stmt 0
 643 04a4 17050000 		lla	a0,.LC1
 643      13050500 
 644 04ac 97000000 		call	_Z11printStringPKc
 644      E7800000 
 645              	.LVL90:
  20:test/System_Mode_test.cpp ****             for (uint64 k = 0; k < 30000; k++) { /* busy wait */ }
 646              		.loc 1 20 9 is_stmt 1
 647              	.LBB16:
  20:test/System_Mode_test.cpp ****             for (uint64 k = 0; k < 30000; k++) { /* busy wait */ }
 648              		.loc 1 20 21 is_stmt 0
 649 04b4 93040000 		li	s1,0
 650 04b8 6FF09FF9 		j	.L37
 651              	.LVL91:
 652              	.L33:
 653              	.LBE16:
GAS LISTING /tmp/cch81QQA.s 			page 17


 654              	.LBE17:
 655              	.LBE10:
  25:test/System_Mode_test.cpp ****     finishedA = true;
 656              		.loc 1 25 5 is_stmt 1
  25:test/System_Mode_test.cpp ****     finishedA = true;
 657              		.loc 1 25 16 is_stmt 0
 658 04bc 17050000 		lla	a0,.LC9
 658      13050500 
 659 04c4 97000000 		call	_Z11printStringPKc
 659      E7800000 
 660              	.LVL92:
  26:test/System_Mode_test.cpp **** }
 661              		.loc 1 26 5 is_stmt 1
  26:test/System_Mode_test.cpp **** }
 662              		.loc 1 26 15 is_stmt 0
 663 04cc 93071000 		li	a5,1
 664 04d0 17070000 		sb	a5,_ZL9finishedA,a4
 664      2300F700 
  27:test/System_Mode_test.cpp **** 
 665              		.loc 1 27 1
 666 04d8 83308101 		ld	ra,24(sp)
 667              		.cfi_restore 1
 668 04dc 03340101 		ld	s0,16(sp)
 669              		.cfi_restore 8
 670 04e0 83348100 		ld	s1,8(sp)
 671              		.cfi_restore 9
 672 04e4 03390100 		ld	s2,0(sp)
 673              		.cfi_restore 18
 674              	.LVL93:
 675 04e8 13010102 		addi	sp,sp,32
 676              		.cfi_def_cfa_register 2
 677 04ec 67800000 		jr	ra
 678              		.cfi_endproc
 679              	.LFE33:
 681              		.align	2
 682              		.globl	_Z16System_Mode_testv
 684              	_Z16System_Mode_testv:
 685              	.LFB37:
  93:test/System_Mode_test.cpp **** 
  94:test/System_Mode_test.cpp **** 
  95:test/System_Mode_test.cpp **** void System_Mode_test() {
 686              		.loc 1 95 25 is_stmt 1
 687              		.cfi_startproc
 688 04f0 130101FD 		addi	sp,sp,-48
 689              		.cfi_def_cfa_offset 48
 690 04f4 23341102 		sd	ra,40(sp)
 691 04f8 23308102 		sd	s0,32(sp)
 692              		.cfi_offset 1, -8
 693              		.cfi_offset 8, -16
 694 04fc 13040103 		addi	s0,sp,48
 695              		.cfi_def_cfa 8, 0
  96:test/System_Mode_test.cpp ****     thread_t threads[4];
 696              		.loc 1 96 5
  97:test/System_Mode_test.cpp ****     thread_create(&threads[0], workerBodyA, nullptr);
 697              		.loc 1 97 5
 698              		.loc 1 97 18 is_stmt 0
 699 0500 13060000 		li	a2,0
GAS LISTING /tmp/cch81QQA.s 			page 18


 700 0504 97050000 		lla	a1,_ZL11workerBodyAPv
 700      93850500 
 701 050c 130504FD 		addi	a0,s0,-48
 702 0510 97000000 		call	_Z13thread_createPP3TCBPFvPvES2_
 702      E7800000 
 703              	.LVL94:
  98:test/System_Mode_test.cpp ****     printString("ThreadA created\n");
 704              		.loc 1 98 5 is_stmt 1
 705              		.loc 1 98 16 is_stmt 0
 706 0518 17050000 		lla	a0,.LC13
 706      13050500 
 707 0520 97000000 		call	_Z11printStringPKc
 707      E7800000 
 708              	.LVL95:
  99:test/System_Mode_test.cpp **** 
 100:test/System_Mode_test.cpp ****     thread_create(&threads[1], workerBodyB, nullptr);
 709              		.loc 1 100 5 is_stmt 1
 710              		.loc 1 100 18 is_stmt 0
 711 0528 13060000 		li	a2,0
 712 052c 97050000 		lla	a1,_ZL11workerBodyBPv
 712      93850500 
 713 0534 130584FD 		addi	a0,s0,-40
 714 0538 97000000 		call	_Z13thread_createPP3TCBPFvPvES2_
 714      E7800000 
 715              	.LVL96:
 101:test/System_Mode_test.cpp ****     printString("ThreadB created\n");
 716              		.loc 1 101 5 is_stmt 1
 717              		.loc 1 101 16 is_stmt 0
 718 0540 17050000 		lla	a0,.LC14
 718      13050500 
 719 0548 97000000 		call	_Z11printStringPKc
 719      E7800000 
 720              	.LVL97:
 102:test/System_Mode_test.cpp **** 
 103:test/System_Mode_test.cpp ****     thread_create(&threads[2], workerBodyC, nullptr);
 721              		.loc 1 103 5 is_stmt 1
 722              		.loc 1 103 18 is_stmt 0
 723 0550 13060000 		li	a2,0
 724 0554 97050000 		lla	a1,_ZL11workerBodyCPv
 724      93850500 
 725 055c 130504FE 		addi	a0,s0,-32
 726 0560 97000000 		call	_Z13thread_createPP3TCBPFvPvES2_
 726      E7800000 
 727              	.LVL98:
 104:test/System_Mode_test.cpp ****     printString("ThreadC created\n");
 728              		.loc 1 104 5 is_stmt 1
 729              		.loc 1 104 16 is_stmt 0
 730 0568 17050000 		lla	a0,.LC15
 730      13050500 
 731 0570 97000000 		call	_Z11printStringPKc
 731      E7800000 
 732              	.LVL99:
 105:test/System_Mode_test.cpp **** 
 106:test/System_Mode_test.cpp ****     thread_create(&threads[3], workerBodyD, nullptr);
 733              		.loc 1 106 5 is_stmt 1
 734              		.loc 1 106 18 is_stmt 0
 735 0578 13060000 		li	a2,0
GAS LISTING /tmp/cch81QQA.s 			page 19


 736 057c 97050000 		lla	a1,_ZL11workerBodyDPv
 736      93850500 
 737 0584 130584FE 		addi	a0,s0,-24
 738 0588 97000000 		call	_Z13thread_createPP3TCBPFvPvES2_
 738      E7800000 
 739              	.LVL100:
 107:test/System_Mode_test.cpp ****     printString("ThreadD created\n");
 740              		.loc 1 107 5 is_stmt 1
 741              		.loc 1 107 16 is_stmt 0
 742 0590 17050000 		lla	a0,.LC16
 742      13050500 
 743 0598 97000000 		call	_Z11printStringPKc
 743      E7800000 
 744              	.LVL101:
 745 05a0 6F00C000 		j	.L42
 746              	.L41:
 108:test/System_Mode_test.cpp **** 
 109:test/System_Mode_test.cpp ****     while (!(finishedA && finishedB && finishedC && finishedD)) {
 110:test/System_Mode_test.cpp ****         thread_dispatch();
 747              		.loc 1 110 9 is_stmt 1
 748              		.loc 1 110 24 is_stmt 0
 749 05a4 97000000 		call	_Z15thread_dispatchv
 749      E7800000 
 750              	.LVL102:
 751              	.L42:
 109:test/System_Mode_test.cpp ****         thread_dispatch();
 752              		.loc 1 109 5 is_stmt 1
 109:test/System_Mode_test.cpp ****         thread_dispatch();
 753              		.loc 1 109 24 is_stmt 0
 754 05ac 97070000 		lla	a5,_ZL9finishedA
 754      93870700 
 755 05b4 83C70700 		lbu	a5,0(a5)
 756 05b8 93F7F70F 		andi	a5,a5,0xff
 109:test/System_Mode_test.cpp ****         thread_dispatch();
 757              		.loc 1 109 12
 758 05bc E38407FE 		beqz	a5,.L41
 109:test/System_Mode_test.cpp ****         thread_dispatch();
 759              		.loc 1 109 24 discriminator 2
 760 05c0 97070000 		lla	a5,_ZL9finishedB
 760      93870700 
 761 05c8 83C70700 		lbu	a5,0(a5)
 762 05cc 93F7F70F 		andi	a5,a5,0xff
 763 05d0 E38A07FC 		beqz	a5,.L41
 109:test/System_Mode_test.cpp ****         thread_dispatch();
 764              		.loc 1 109 37 discriminator 4
 765 05d4 97070000 		lla	a5,_ZL9finishedC
 765      93870700 
 766 05dc 83C70700 		lbu	a5,0(a5)
 767 05e0 93F7F70F 		andi	a5,a5,0xff
 768 05e4 E38007FC 		beqz	a5,.L41
 109:test/System_Mode_test.cpp ****         thread_dispatch();
 769              		.loc 1 109 62 discriminator 6
 770 05e8 97070000 		lla	a5,_ZL9finishedD
 770      93870700 
 771 05f0 83C70700 		lbu	a5,0(a5)
 772 05f4 93F7F70F 		andi	a5,a5,0xff
 109:test/System_Mode_test.cpp ****         thread_dispatch();
GAS LISTING /tmp/cch81QQA.s 			page 20


 773              		.loc 1 109 12 discriminator 6
 774 05f8 E38607FA 		beqz	a5,.L41
 111:test/System_Mode_test.cpp ****     }
 112:test/System_Mode_test.cpp **** 
 113:test/System_Mode_test.cpp **** }
 775              		.loc 1 113 1
 776 05fc 83308102 		ld	ra,40(sp)
 777              		.cfi_restore 1
 778 0600 03340102 		ld	s0,32(sp)
 779              		.cfi_restore 8
 780 0604 13010103 		addi	sp,sp,48
 781              		.cfi_def_cfa_register 2
 782 0608 67800000 		jr	ra
 783              		.cfi_endproc
 784              	.LFE37:
 786              		.section	.rodata.str1.8,"aMS",@progbits,1
 787              		.align	3
 788              	.LC0:
 789 0000 443A2069 		.string	"D: i="
 789      3D00
 790 0006 0000     		.zero	2
 791              	.LC1:
 792 0008 0A00     		.string	"\n"
 793 000a 00000000 		.zero	6
 793      0000
 794              	.LC2:
 795 0010 443A2064 		.string	"D: dispatch\n"
 795      69737061 
 795      7463680A 
 795      00
 796 001d 000000   		.zero	3
 797              	.LC3:
 798 0020 443A2066 		.string	"D: fibonaci="
 798      69626F6E 
 798      6163693D 
 798      00
 799 002d 000000   		.zero	3
 800              	.LC4:
 801 0030 44206669 		.string	"D finished!\n"
 801      6E697368 
 801      6564210A 
 801      00
 802 003d 000000   		.zero	3
 803              	.LC5:
 804 0040 433A2069 		.string	"C: i="
 804      3D00
 805 0046 0000     		.zero	2
 806              	.LC6:
 807 0048 433A2064 		.string	"C: dispatch\n"
 807      69737061 
 807      7463680A 
 807      00
 808 0055 000000   		.zero	3
 809              	.LC7:
 810 0058 433A2074 		.string	"C: t1="
 810      313D00
 811 005f 00       		.zero	1
GAS LISTING /tmp/cch81QQA.s 			page 21


 812              	.LC8:
 813 0060 433A2066 		.string	"C: fibonaci="
 813      69626F6E 
 813      6163693D 
 813      00
 814 006d 000000   		.zero	3
 815              	.LC9:
 816 0070 41206669 		.string	"A finished!\n"
 816      6E697368 
 816      6564210A 
 816      00
 817 007d 000000   		.zero	3
 818              	.LC10:
 819 0080 423A2069 		.string	"B: i="
 819      3D00
 820 0086 0000     		.zero	2
 821              	.LC11:
 822 0088 42206669 		.string	"B finished!\n"
 822      6E697368 
 822      6564210A 
 822      00
 823 0095 000000   		.zero	3
 824              	.LC12:
 825 0098 413A2069 		.string	"A: i="
 825      3D00
 826 009e 0000     		.zero	2
 827              	.LC13:
 828 00a0 54687265 		.string	"ThreadA created\n"
 828      61644120 
 828      63726561 
 828      7465640A 
 828      00
 829 00b1 00000000 		.zero	7
 829      000000
 830              	.LC14:
 831 00b8 54687265 		.string	"ThreadB created\n"
 831      61644220 
 831      63726561 
 831      7465640A 
 831      00
 832 00c9 00000000 		.zero	7
 832      000000
 833              	.LC15:
 834 00d0 54687265 		.string	"ThreadC created\n"
 834      61644320 
 834      63726561 
 834      7465640A 
 834      00
 835 00e1 00000000 		.zero	7
 835      000000
 836              	.LC16:
 837 00e8 54687265 		.string	"ThreadD created\n"
 837      61644420 
 837      63726561 
 837      7465640A 
 837      00
 838              		.section	.sbss,"aw",@nobits
GAS LISTING /tmp/cch81QQA.s 			page 22


 841              	_ZL9finishedD:
 842 0000 00       		.zero	1
 845              	_ZL9finishedC:
 846 0001 00       		.zero	1
 849              	_ZL9finishedB:
 850 0002 00       		.zero	1
 853              	_ZL9finishedA:
 854 0003 00       		.zero	1
 855              		.text
 856              	.Letext0:
 857              		.file 2 "test/../h/../lib/hw.h"
 858              		.file 3 "test/../h/../h/list.hpp"
 859              		.file 4 "test/../h/../h/tcb.hpp"
 860              		.file 5 "test/../h/syscall_c.hpp"
 861              		.file 6 "test/printing.hpp"
GAS LISTING /tmp/cch81QQA.s 			page 23

