GAS LISTING /tmp/ccyhoPws.s 			page 1


   1              		.file	"Threads_CPP_API_test.cpp"
   2              		.option nopic
   3              		.option norelax
   4              		.text
   5              	.Ltext0:
   6              		.align	2
   8              	_ZL9fibonaccim:
   9              	.LFB35:
  10              		.file 1 "test/Threads_CPP_API_test.cpp"
   1:test/Threads_CPP_API_test.cpp **** #include "../h/syscall_cpp.hpp"
   2:test/Threads_CPP_API_test.cpp **** 
   3:test/Threads_CPP_API_test.cpp **** #include "printing.hpp"
   4:test/Threads_CPP_API_test.cpp **** 
   5:test/Threads_CPP_API_test.cpp **** static volatile bool finishedA = false;
   6:test/Threads_CPP_API_test.cpp **** static volatile bool finishedB = false;
   7:test/Threads_CPP_API_test.cpp **** static volatile bool finishedC = false;
   8:test/Threads_CPP_API_test.cpp **** static volatile bool finishedD = false;
   9:test/Threads_CPP_API_test.cpp **** 
  10:test/Threads_CPP_API_test.cpp **** static uint64 fibonacci(uint64 n) {
  11              		.loc 1 10 35
  12              		.cfi_startproc
  13              	.LVL0:
  11:test/Threads_CPP_API_test.cpp ****     if (n == 0 || n == 1) { return n; }
  14              		.loc 1 11 5
  15 0000 93071000 		li	a5,1
  16 0004 63F8A706 		bleu	a0,a5,.L6
  10:test/Threads_CPP_API_test.cpp ****     if (n == 0 || n == 1) { return n; }
  17              		.loc 1 10 35 is_stmt 0
  18 0008 130101FE 		addi	sp,sp,-32
  19              		.cfi_def_cfa_offset 32
  20 000c 233C1100 		sd	ra,24(sp)
  21 0010 23388100 		sd	s0,16(sp)
  22 0014 23349100 		sd	s1,8(sp)
  23 0018 23302101 		sd	s2,0(sp)
  24              		.cfi_offset 1, -8
  25              		.cfi_offset 8, -16
  26              		.cfi_offset 9, -24
  27              		.cfi_offset 18, -32
  28 001c 13040102 		addi	s0,sp,32
  29              		.cfi_def_cfa 8, 0
  30 0020 93040500 		mv	s1,a0
  12:test/Threads_CPP_API_test.cpp ****     if (n % 10 == 0) { thread_dispatch(); }
  31              		.loc 1 12 5 is_stmt 1
  32              		.loc 1 12 11 is_stmt 0
  33 0024 9307A000 		li	a5,10
  34 0028 B377F502 		remu	a5,a0,a5
  35              		.loc 1 12 5
  36 002c 638E0702 		beqz	a5,.L9
  37              	.LVL1:
  38              	.L3:
  13:test/Threads_CPP_API_test.cpp ****     return fibonacci(n - 1) + fibonacci(n - 2);
  39              		.loc 1 13 5 is_stmt 1
  40              		.loc 1 13 21 is_stmt 0
  41 0030 1385F4FF 		addi	a0,s1,-1
  42 0034 97000000 		call	_ZL9fibonaccim
  42      E7800000 
  43              	.LVL2:
GAS LISTING /tmp/ccyhoPws.s 			page 2


  44 003c 13090500 		mv	s2,a0
  45              		.loc 1 13 40
  46 0040 1385E4FF 		addi	a0,s1,-2
  47 0044 97000000 		call	_ZL9fibonaccim
  47      E7800000 
  48              	.LVL3:
  49              		.loc 1 13 46
  50 004c 3305A900 		add	a0,s2,a0
  14:test/Threads_CPP_API_test.cpp **** }
  51              		.loc 1 14 1
  52 0050 83308101 		ld	ra,24(sp)
  53              		.cfi_remember_state
  54              		.cfi_restore 1
  55 0054 03340101 		ld	s0,16(sp)
  56              		.cfi_restore 8
  57 0058 83348100 		ld	s1,8(sp)
  58              		.cfi_restore 9
  59              	.LVL4:
  60 005c 03390100 		ld	s2,0(sp)
  61              		.cfi_restore 18
  62 0060 13010102 		addi	sp,sp,32
  63              		.cfi_def_cfa_register 2
  64 0064 67800000 		jr	ra
  65              	.LVL5:
  66              	.L9:
  67              		.cfi_restore_state
  12:test/Threads_CPP_API_test.cpp ****     if (n % 10 == 0) { thread_dispatch(); }
  68              		.loc 1 12 24 is_stmt 1 discriminator 1
  12:test/Threads_CPP_API_test.cpp ****     if (n % 10 == 0) { thread_dispatch(); }
  69              		.loc 1 12 39 is_stmt 0 discriminator 1
  70 0068 97000000 		call	_Z15thread_dispatchv
  70      E7800000 
  71              	.LVL6:
  72 0070 6FF01FFC 		j	.L3
  73              	.LVL7:
  74              	.L6:
  75              		.cfi_def_cfa_register 2
  76              		.cfi_restore 1
  77              		.cfi_restore 8
  78              		.cfi_restore 9
  79              		.cfi_restore 18
  80              		.loc 1 14 1
  81 0074 67800000 		ret
  82              		.cfi_endproc
  83              	.LFE35:
  85              		.section	.text._ZN7WorkerAD2Ev,"axG",@progbits,_ZN7WorkerAD5Ev,comdat
  86              		.align	2
  87              		.weak	_ZN7WorkerAD2Ev
  89              	_ZN7WorkerAD2Ev:
  90              	.LFB73:
  15:test/Threads_CPP_API_test.cpp **** 
  16:test/Threads_CPP_API_test.cpp **** class WorkerA: public Thread {
  91              		.loc 1 16 7 is_stmt 1
  92              		.cfi_startproc
  93              	.LVL8:
  94 0000 130101FF 		addi	sp,sp,-16
  95              		.cfi_def_cfa_offset 16
GAS LISTING /tmp/ccyhoPws.s 			page 3


  96 0004 23341100 		sd	ra,8(sp)
  97 0008 23308100 		sd	s0,0(sp)
  98              		.cfi_offset 1, -8
  99              		.cfi_offset 8, -16
 100 000c 13040101 		addi	s0,sp,16
 101              		.cfi_def_cfa 8, 0
 102              	.LBB28:
 103              		.loc 1 16 7 is_stmt 0
 104 0010 97070000 		lla	a5,_ZTV7WorkerA+16
 104      93870700 
 105 0018 2330F500 		sd	a5,0(a0)
 106 001c 97000000 		call	_ZN6ThreadD2Ev
 106      E7800000 
 107              	.LVL9:
 108              	.LBE28:
 109 0024 83308100 		ld	ra,8(sp)
 110              		.cfi_restore 1
 111 0028 03340100 		ld	s0,0(sp)
 112              		.cfi_restore 8
 113 002c 13010101 		addi	sp,sp,16
 114              		.cfi_def_cfa_register 2
 115 0030 67800000 		jr	ra
 116              		.cfi_endproc
 117              	.LFE73:
 119              		.weak	_ZN7WorkerAD1Ev
 120              		.set	_ZN7WorkerAD1Ev,_ZN7WorkerAD2Ev
 121              		.section	.text._ZN7WorkerAD0Ev,"axG",@progbits,_ZN7WorkerAD5Ev,comdat
 122              		.align	2
 123              		.weak	_ZN7WorkerAD0Ev
 125              	_ZN7WorkerAD0Ev:
 126              	.LFB75:
 127              		.loc 1 16 7 is_stmt 1
 128              		.cfi_startproc
 129              	.LVL10:
 130 0000 130101FE 		addi	sp,sp,-32
 131              		.cfi_def_cfa_offset 32
 132 0004 233C1100 		sd	ra,24(sp)
 133 0008 23388100 		sd	s0,16(sp)
 134 000c 23349100 		sd	s1,8(sp)
 135              		.cfi_offset 1, -8
 136              		.cfi_offset 8, -16
 137              		.cfi_offset 9, -24
 138 0010 13040102 		addi	s0,sp,32
 139              		.cfi_def_cfa 8, 0
 140 0014 93040500 		mv	s1,a0
 141              	.LVL11:
 142              	.LBB29:
 143              	.LBB30:
 144              		.loc 1 16 7 is_stmt 0
 145 0018 97070000 		lla	a5,_ZTV7WorkerA+16
 145      93870700 
 146 0020 2330F500 		sd	a5,0(a0)
 147 0024 97000000 		call	_ZN6ThreadD2Ev
 147      E7800000 
 148              	.LVL12:
 149              	.LBE30:
 150              	.LBE29:
GAS LISTING /tmp/ccyhoPws.s 			page 4


 151 002c 13850400 		mv	a0,s1
 152 0030 97000000 		call	_ZdlPv
 152      E7800000 
 153              	.LVL13:
 154 0038 83308101 		ld	ra,24(sp)
 155              		.cfi_restore 1
 156 003c 03340101 		ld	s0,16(sp)
 157              		.cfi_restore 8
 158 0040 83348100 		ld	s1,8(sp)
 159              		.cfi_restore 9
 160              	.LVL14:
 161 0044 13010102 		addi	sp,sp,32
 162              		.cfi_def_cfa_register 2
 163 0048 67800000 		jr	ra
 164              		.cfi_endproc
 165              	.LFE75:
 167              		.section	.text._ZN7WorkerBD2Ev,"axG",@progbits,_ZN7WorkerBD5Ev,comdat
 168              		.align	2
 169              		.weak	_ZN7WorkerBD2Ev
 171              	_ZN7WorkerBD2Ev:
 172              	.LFB69:
  17:test/Threads_CPP_API_test.cpp ****     void workerBodyA(void* arg);
  18:test/Threads_CPP_API_test.cpp **** public:
  19:test/Threads_CPP_API_test.cpp ****     WorkerA():Thread() {}
  20:test/Threads_CPP_API_test.cpp **** 
  21:test/Threads_CPP_API_test.cpp ****     void run() override {
  22:test/Threads_CPP_API_test.cpp ****         workerBodyA(nullptr);
  23:test/Threads_CPP_API_test.cpp ****     }
  24:test/Threads_CPP_API_test.cpp **** };
  25:test/Threads_CPP_API_test.cpp **** 
  26:test/Threads_CPP_API_test.cpp **** class WorkerB: public Thread {
 173              		.loc 1 26 7 is_stmt 1
 174              		.cfi_startproc
 175              	.LVL15:
 176 0000 130101FF 		addi	sp,sp,-16
 177              		.cfi_def_cfa_offset 16
 178 0004 23341100 		sd	ra,8(sp)
 179 0008 23308100 		sd	s0,0(sp)
 180              		.cfi_offset 1, -8
 181              		.cfi_offset 8, -16
 182 000c 13040101 		addi	s0,sp,16
 183              		.cfi_def_cfa 8, 0
 184              	.LBB31:
 185              		.loc 1 26 7 is_stmt 0
 186 0010 97070000 		lla	a5,_ZTV7WorkerB+16
 186      93870700 
 187 0018 2330F500 		sd	a5,0(a0)
 188 001c 97000000 		call	_ZN6ThreadD2Ev
 188      E7800000 
 189              	.LVL16:
 190              	.LBE31:
 191 0024 83308100 		ld	ra,8(sp)
 192              		.cfi_restore 1
 193 0028 03340100 		ld	s0,0(sp)
 194              		.cfi_restore 8
 195 002c 13010101 		addi	sp,sp,16
 196              		.cfi_def_cfa_register 2
GAS LISTING /tmp/ccyhoPws.s 			page 5


 197 0030 67800000 		jr	ra
 198              		.cfi_endproc
 199              	.LFE69:
 201              		.weak	_ZN7WorkerBD1Ev
 202              		.set	_ZN7WorkerBD1Ev,_ZN7WorkerBD2Ev
 203              		.section	.text._ZN7WorkerBD0Ev,"axG",@progbits,_ZN7WorkerBD5Ev,comdat
 204              		.align	2
 205              		.weak	_ZN7WorkerBD0Ev
 207              	_ZN7WorkerBD0Ev:
 208              	.LFB71:
 209              		.loc 1 26 7 is_stmt 1
 210              		.cfi_startproc
 211              	.LVL17:
 212 0000 130101FE 		addi	sp,sp,-32
 213              		.cfi_def_cfa_offset 32
 214 0004 233C1100 		sd	ra,24(sp)
 215 0008 23388100 		sd	s0,16(sp)
 216 000c 23349100 		sd	s1,8(sp)
 217              		.cfi_offset 1, -8
 218              		.cfi_offset 8, -16
 219              		.cfi_offset 9, -24
 220 0010 13040102 		addi	s0,sp,32
 221              		.cfi_def_cfa 8, 0
 222 0014 93040500 		mv	s1,a0
 223              	.LVL18:
 224              	.LBB32:
 225              	.LBB33:
 226              		.loc 1 26 7 is_stmt 0
 227 0018 97070000 		lla	a5,_ZTV7WorkerB+16
 227      93870700 
 228 0020 2330F500 		sd	a5,0(a0)
 229 0024 97000000 		call	_ZN6ThreadD2Ev
 229      E7800000 
 230              	.LVL19:
 231              	.LBE33:
 232              	.LBE32:
 233 002c 13850400 		mv	a0,s1
 234 0030 97000000 		call	_ZdlPv
 234      E7800000 
 235              	.LVL20:
 236 0038 83308101 		ld	ra,24(sp)
 237              		.cfi_restore 1
 238 003c 03340101 		ld	s0,16(sp)
 239              		.cfi_restore 8
 240 0040 83348100 		ld	s1,8(sp)
 241              		.cfi_restore 9
 242              	.LVL21:
 243 0044 13010102 		addi	sp,sp,32
 244              		.cfi_def_cfa_register 2
 245 0048 67800000 		jr	ra
 246              		.cfi_endproc
 247              	.LFE71:
 249              		.section	.text._ZN7WorkerCD2Ev,"axG",@progbits,_ZN7WorkerCD5Ev,comdat
 250              		.align	2
 251              		.weak	_ZN7WorkerCD2Ev
 253              	_ZN7WorkerCD2Ev:
 254              	.LFB65:
GAS LISTING /tmp/ccyhoPws.s 			page 6


  27:test/Threads_CPP_API_test.cpp ****     void workerBodyB(void* arg);
  28:test/Threads_CPP_API_test.cpp **** public:
  29:test/Threads_CPP_API_test.cpp ****     WorkerB():Thread() {}
  30:test/Threads_CPP_API_test.cpp **** 
  31:test/Threads_CPP_API_test.cpp ****     void run() override {
  32:test/Threads_CPP_API_test.cpp ****         workerBodyB(nullptr);
  33:test/Threads_CPP_API_test.cpp ****     }
  34:test/Threads_CPP_API_test.cpp **** };
  35:test/Threads_CPP_API_test.cpp **** 
  36:test/Threads_CPP_API_test.cpp **** class WorkerC: public Thread {
 255              		.loc 1 36 7 is_stmt 1
 256              		.cfi_startproc
 257              	.LVL22:
 258 0000 130101FF 		addi	sp,sp,-16
 259              		.cfi_def_cfa_offset 16
 260 0004 23341100 		sd	ra,8(sp)
 261 0008 23308100 		sd	s0,0(sp)
 262              		.cfi_offset 1, -8
 263              		.cfi_offset 8, -16
 264 000c 13040101 		addi	s0,sp,16
 265              		.cfi_def_cfa 8, 0
 266              	.LBB34:
 267              		.loc 1 36 7 is_stmt 0
 268 0010 97070000 		lla	a5,_ZTV7WorkerC+16
 268      93870700 
 269 0018 2330F500 		sd	a5,0(a0)
 270 001c 97000000 		call	_ZN6ThreadD2Ev
 270      E7800000 
 271              	.LVL23:
 272              	.LBE34:
 273 0024 83308100 		ld	ra,8(sp)
 274              		.cfi_restore 1
 275 0028 03340100 		ld	s0,0(sp)
 276              		.cfi_restore 8
 277 002c 13010101 		addi	sp,sp,16
 278              		.cfi_def_cfa_register 2
 279 0030 67800000 		jr	ra
 280              		.cfi_endproc
 281              	.LFE65:
 283              		.weak	_ZN7WorkerCD1Ev
 284              		.set	_ZN7WorkerCD1Ev,_ZN7WorkerCD2Ev
 285              		.section	.text._ZN7WorkerCD0Ev,"axG",@progbits,_ZN7WorkerCD5Ev,comdat
 286              		.align	2
 287              		.weak	_ZN7WorkerCD0Ev
 289              	_ZN7WorkerCD0Ev:
 290              	.LFB67:
 291              		.loc 1 36 7 is_stmt 1
 292              		.cfi_startproc
 293              	.LVL24:
 294 0000 130101FE 		addi	sp,sp,-32
 295              		.cfi_def_cfa_offset 32
 296 0004 233C1100 		sd	ra,24(sp)
 297 0008 23388100 		sd	s0,16(sp)
 298 000c 23349100 		sd	s1,8(sp)
 299              		.cfi_offset 1, -8
 300              		.cfi_offset 8, -16
 301              		.cfi_offset 9, -24
GAS LISTING /tmp/ccyhoPws.s 			page 7


 302 0010 13040102 		addi	s0,sp,32
 303              		.cfi_def_cfa 8, 0
 304 0014 93040500 		mv	s1,a0
 305              	.LVL25:
 306              	.LBB35:
 307              	.LBB36:
 308              		.loc 1 36 7 is_stmt 0
 309 0018 97070000 		lla	a5,_ZTV7WorkerC+16
 309      93870700 
 310 0020 2330F500 		sd	a5,0(a0)
 311 0024 97000000 		call	_ZN6ThreadD2Ev
 311      E7800000 
 312              	.LVL26:
 313              	.LBE36:
 314              	.LBE35:
 315 002c 13850400 		mv	a0,s1
 316 0030 97000000 		call	_ZdlPv
 316      E7800000 
 317              	.LVL27:
 318 0038 83308101 		ld	ra,24(sp)
 319              		.cfi_restore 1
 320 003c 03340101 		ld	s0,16(sp)
 321              		.cfi_restore 8
 322 0040 83348100 		ld	s1,8(sp)
 323              		.cfi_restore 9
 324              	.LVL28:
 325 0044 13010102 		addi	sp,sp,32
 326              		.cfi_def_cfa_register 2
 327 0048 67800000 		jr	ra
 328              		.cfi_endproc
 329              	.LFE67:
 331              		.section	.text._ZN7WorkerDD2Ev,"axG",@progbits,_ZN7WorkerDD5Ev,comdat
 332              		.align	2
 333              		.weak	_ZN7WorkerDD2Ev
 335              	_ZN7WorkerDD2Ev:
 336              	.LFB61:
  37:test/Threads_CPP_API_test.cpp ****     void workerBodyC(void* arg);
  38:test/Threads_CPP_API_test.cpp **** public:
  39:test/Threads_CPP_API_test.cpp ****     WorkerC():Thread() {}
  40:test/Threads_CPP_API_test.cpp **** 
  41:test/Threads_CPP_API_test.cpp ****     void run() override {
  42:test/Threads_CPP_API_test.cpp ****         workerBodyC(nullptr);
  43:test/Threads_CPP_API_test.cpp ****     }
  44:test/Threads_CPP_API_test.cpp **** };
  45:test/Threads_CPP_API_test.cpp **** 
  46:test/Threads_CPP_API_test.cpp **** class WorkerD: public Thread {
 337              		.loc 1 46 7 is_stmt 1
 338              		.cfi_startproc
 339              	.LVL29:
 340 0000 130101FF 		addi	sp,sp,-16
 341              		.cfi_def_cfa_offset 16
 342 0004 23341100 		sd	ra,8(sp)
 343 0008 23308100 		sd	s0,0(sp)
 344              		.cfi_offset 1, -8
 345              		.cfi_offset 8, -16
 346 000c 13040101 		addi	s0,sp,16
 347              		.cfi_def_cfa 8, 0
GAS LISTING /tmp/ccyhoPws.s 			page 8


 348              	.LBB37:
 349              		.loc 1 46 7 is_stmt 0
 350 0010 97070000 		lla	a5,_ZTV7WorkerD+16
 350      93870700 
 351 0018 2330F500 		sd	a5,0(a0)
 352 001c 97000000 		call	_ZN6ThreadD2Ev
 352      E7800000 
 353              	.LVL30:
 354              	.LBE37:
 355 0024 83308100 		ld	ra,8(sp)
 356              		.cfi_restore 1
 357 0028 03340100 		ld	s0,0(sp)
 358              		.cfi_restore 8
 359 002c 13010101 		addi	sp,sp,16
 360              		.cfi_def_cfa_register 2
 361 0030 67800000 		jr	ra
 362              		.cfi_endproc
 363              	.LFE61:
 365              		.weak	_ZN7WorkerDD1Ev
 366              		.set	_ZN7WorkerDD1Ev,_ZN7WorkerDD2Ev
 367              		.section	.text._ZN7WorkerDD0Ev,"axG",@progbits,_ZN7WorkerDD5Ev,comdat
 368              		.align	2
 369              		.weak	_ZN7WorkerDD0Ev
 371              	_ZN7WorkerDD0Ev:
 372              	.LFB63:
 373              		.loc 1 46 7 is_stmt 1
 374              		.cfi_startproc
 375              	.LVL31:
 376 0000 130101FE 		addi	sp,sp,-32
 377              		.cfi_def_cfa_offset 32
 378 0004 233C1100 		sd	ra,24(sp)
 379 0008 23388100 		sd	s0,16(sp)
 380 000c 23349100 		sd	s1,8(sp)
 381              		.cfi_offset 1, -8
 382              		.cfi_offset 8, -16
 383              		.cfi_offset 9, -24
 384 0010 13040102 		addi	s0,sp,32
 385              		.cfi_def_cfa 8, 0
 386 0014 93040500 		mv	s1,a0
 387              	.LVL32:
 388              	.LBB38:
 389              	.LBB39:
 390              		.loc 1 46 7 is_stmt 0
 391 0018 97070000 		lla	a5,_ZTV7WorkerD+16
 391      93870700 
 392 0020 2330F500 		sd	a5,0(a0)
 393 0024 97000000 		call	_ZN6ThreadD2Ev
 393      E7800000 
 394              	.LVL33:
 395              	.LBE39:
 396              	.LBE38:
 397 002c 13850400 		mv	a0,s1
 398 0030 97000000 		call	_ZdlPv
 398      E7800000 
 399              	.LVL34:
 400 0038 83308101 		ld	ra,24(sp)
 401              		.cfi_restore 1
GAS LISTING /tmp/ccyhoPws.s 			page 9


 402 003c 03340101 		ld	s0,16(sp)
 403              		.cfi_restore 8
 404 0040 83348100 		ld	s1,8(sp)
 405              		.cfi_restore 9
 406              	.LVL35:
 407 0044 13010102 		addi	sp,sp,32
 408              		.cfi_def_cfa_register 2
 409 0048 67800000 		jr	ra
 410              		.cfi_endproc
 411              	.LFE63:
 413              		.text
 414              		.align	2
 415              		.globl	_ZN7WorkerA11workerBodyAEPv
 417              	_ZN7WorkerA11workerBodyAEPv:
 418              	.LFB52:
  47:test/Threads_CPP_API_test.cpp ****     void workerBodyD(void* arg);
  48:test/Threads_CPP_API_test.cpp **** public:
  49:test/Threads_CPP_API_test.cpp ****     WorkerD():Thread() {}
  50:test/Threads_CPP_API_test.cpp **** 
  51:test/Threads_CPP_API_test.cpp ****     void run() override {
  52:test/Threads_CPP_API_test.cpp ****         workerBodyD(nullptr);
  53:test/Threads_CPP_API_test.cpp ****     }
  54:test/Threads_CPP_API_test.cpp **** };
  55:test/Threads_CPP_API_test.cpp **** 
  56:test/Threads_CPP_API_test.cpp **** void WorkerA::workerBodyA(void *arg) {
 419              		.loc 1 56 38 is_stmt 1
 420              		.cfi_startproc
 421              	.LVL36:
 422 0078 130101FE 		addi	sp,sp,-32
 423              		.cfi_def_cfa_offset 32
 424 007c 233C1100 		sd	ra,24(sp)
 425 0080 23388100 		sd	s0,16(sp)
 426 0084 23349100 		sd	s1,8(sp)
 427 0088 23302101 		sd	s2,0(sp)
 428              		.cfi_offset 1, -8
 429              		.cfi_offset 8, -16
 430              		.cfi_offset 9, -24
 431              		.cfi_offset 18, -32
 432 008c 13040102 		addi	s0,sp,32
 433              		.cfi_def_cfa 8, 0
  57:test/Threads_CPP_API_test.cpp ****     for (uint64 i = 0; i < 10; i++) {
 434              		.loc 1 57 5
 435              	.LVL37:
 436              	.LBB40:
 437              		.loc 1 57 17 is_stmt 0
 438 0090 13090000 		li	s2,0
 439 0094 6F008003 		j	.L32
 440              	.LVL38:
 441              	.L29:
 442              	.LBB41:
 443              	.LBB42:
 444              	.LBB43:
  58:test/Threads_CPP_API_test.cpp ****         printString("A: i="); printInt(i); printString("\n");
  59:test/Threads_CPP_API_test.cpp ****         for (uint64 j = 0; j < 10000; j++) {
  60:test/Threads_CPP_API_test.cpp ****             for (uint64 k = 0; k < 30000; k++) { /* busy wait */ }
  61:test/Threads_CPP_API_test.cpp ****             thread_dispatch();
 445              		.loc 1 61 13 is_stmt 1 discriminator 2
GAS LISTING /tmp/ccyhoPws.s 			page 10


 446              		.loc 1 61 28 is_stmt 0 discriminator 2
 447 0098 97000000 		call	_Z15thread_dispatchv
 447      E7800000 
 448              	.LVL39:
 449              	.LBE43:
  59:test/Threads_CPP_API_test.cpp ****             for (uint64 k = 0; k < 30000; k++) { /* busy wait */ }
 450              		.loc 1 59 9 discriminator 2
 451 00a0 93841400 		addi	s1,s1,1
 452              	.LVL40:
 453              	.L31:
  59:test/Threads_CPP_API_test.cpp ****             for (uint64 k = 0; k < 30000; k++) { /* busy wait */ }
 454              		.loc 1 59 30 discriminator 1
 455 00a4 B7270000 		li	a5,8192
 456 00a8 9387F770 		addi	a5,a5,1807
 457 00ac 63EE9700 		bgtu	s1,a5,.L28
 458              	.LBB45:
 459              	.LBB44:
  60:test/Threads_CPP_API_test.cpp ****             thread_dispatch();
 460              		.loc 1 60 25
 461 00b0 13070000 		li	a4,0
 462              	.L30:
 463              	.LVL41:
  60:test/Threads_CPP_API_test.cpp ****             thread_dispatch();
 464              		.loc 1 60 34 discriminator 3
 465 00b4 B7770000 		li	a5,28672
 466 00b8 9387F752 		addi	a5,a5,1327
 467 00bc E3EEE7FC 		bgtu	a4,a5,.L29
  60:test/Threads_CPP_API_test.cpp ****             thread_dispatch();
 468              		.loc 1 60 13 discriminator 2
 469 00c0 13071700 		addi	a4,a4,1
 470              	.LVL42:
 471 00c4 6FF01FFF 		j	.L30
 472              	.LVL43:
 473              	.L28:
 474              	.LBE44:
 475              	.LBE45:
 476              	.LBE42:
 477              	.LBE41:
  57:test/Threads_CPP_API_test.cpp ****         printString("A: i="); printInt(i); printString("\n");
 478              		.loc 1 57 5 discriminator 2
 479 00c8 13091900 		addi	s2,s2,1
 480              	.LVL44:
 481              	.L32:
  57:test/Threads_CPP_API_test.cpp ****         printString("A: i="); printInt(i); printString("\n");
 482              		.loc 1 57 26 discriminator 1
 483 00cc 93079000 		li	a5,9
 484 00d0 63E02705 		bgtu	s2,a5,.L27
 485              	.LBB47:
  58:test/Threads_CPP_API_test.cpp ****         for (uint64 j = 0; j < 10000; j++) {
 486              		.loc 1 58 9 is_stmt 1
  58:test/Threads_CPP_API_test.cpp ****         for (uint64 j = 0; j < 10000; j++) {
 487              		.loc 1 58 20 is_stmt 0
 488 00d4 17050000 		lla	a0,.LC0
 488      13050500 
 489 00dc 97000000 		call	_Z11printStringPKc
 489      E7800000 
 490              	.LVL45:
GAS LISTING /tmp/ccyhoPws.s 			page 11


  58:test/Threads_CPP_API_test.cpp ****         for (uint64 j = 0; j < 10000; j++) {
 491              		.loc 1 58 31 is_stmt 1
  58:test/Threads_CPP_API_test.cpp ****         for (uint64 j = 0; j < 10000; j++) {
 492              		.loc 1 58 39 is_stmt 0
 493 00e4 13060000 		li	a2,0
 494 00e8 9305A000 		li	a1,10
 495 00ec 1B050900 		sext.w	a0,s2
 496 00f0 97000000 		call	_Z8printIntiii
 496      E7800000 
 497              	.LVL46:
  58:test/Threads_CPP_API_test.cpp ****         for (uint64 j = 0; j < 10000; j++) {
 498              		.loc 1 58 44 is_stmt 1
  58:test/Threads_CPP_API_test.cpp ****         for (uint64 j = 0; j < 10000; j++) {
 499              		.loc 1 58 55 is_stmt 0
 500 00f8 17050000 		lla	a0,.LC1
 500      13050500 
 501 0100 97000000 		call	_Z11printStringPKc
 501      E7800000 
 502              	.LVL47:
  59:test/Threads_CPP_API_test.cpp ****             for (uint64 k = 0; k < 30000; k++) { /* busy wait */ }
 503              		.loc 1 59 9 is_stmt 1
 504              	.LBB46:
  59:test/Threads_CPP_API_test.cpp ****             for (uint64 k = 0; k < 30000; k++) { /* busy wait */ }
 505              		.loc 1 59 21 is_stmt 0
 506 0108 93040000 		li	s1,0
 507 010c 6FF09FF9 		j	.L31
 508              	.LVL48:
 509              	.L27:
 510              	.LBE46:
 511              	.LBE47:
 512              	.LBE40:
  62:test/Threads_CPP_API_test.cpp ****         }
  63:test/Threads_CPP_API_test.cpp ****     }
  64:test/Threads_CPP_API_test.cpp ****     printString("A finished!\n");
 513              		.loc 1 64 5 is_stmt 1
 514              		.loc 1 64 16 is_stmt 0
 515 0110 17050000 		lla	a0,.LC2
 515      13050500 
 516 0118 97000000 		call	_Z11printStringPKc
 516      E7800000 
 517              	.LVL49:
  65:test/Threads_CPP_API_test.cpp ****     finishedA = true;
 518              		.loc 1 65 5 is_stmt 1
 519              		.loc 1 65 15 is_stmt 0
 520 0120 93071000 		li	a5,1
 521 0124 17070000 		sb	a5,_ZL9finishedA,a4
 521      2300F700 
  66:test/Threads_CPP_API_test.cpp **** }
 522              		.loc 1 66 1
 523 012c 83308101 		ld	ra,24(sp)
 524              		.cfi_restore 1
 525 0130 03340101 		ld	s0,16(sp)
 526              		.cfi_restore 8
 527 0134 83348100 		ld	s1,8(sp)
 528              		.cfi_restore 9
 529 0138 03390100 		ld	s2,0(sp)
 530              		.cfi_restore 18
GAS LISTING /tmp/ccyhoPws.s 			page 12


 531              	.LVL50:
 532 013c 13010102 		addi	sp,sp,32
 533              		.cfi_def_cfa_register 2
 534 0140 67800000 		jr	ra
 535              		.cfi_endproc
 536              	.LFE52:
 538              		.section	.text._ZN7WorkerA3runEv,"axG",@progbits,_ZN7WorkerA3runEv,comdat
 539              		.align	2
 540              		.weak	_ZN7WorkerA3runEv
 542              	_ZN7WorkerA3runEv:
 543              	.LFB39:
  21:test/Threads_CPP_API_test.cpp ****         workerBodyA(nullptr);
 544              		.loc 1 21 10 is_stmt 1
 545              		.cfi_startproc
 546              	.LVL51:
 547 0000 130101FF 		addi	sp,sp,-16
 548              		.cfi_def_cfa_offset 16
 549 0004 23341100 		sd	ra,8(sp)
 550 0008 23308100 		sd	s0,0(sp)
 551              		.cfi_offset 1, -8
 552              		.cfi_offset 8, -16
 553 000c 13040101 		addi	s0,sp,16
 554              		.cfi_def_cfa 8, 0
  22:test/Threads_CPP_API_test.cpp ****     }
 555              		.loc 1 22 9
  22:test/Threads_CPP_API_test.cpp ****     }
 556              		.loc 1 22 20 is_stmt 0
 557 0010 93050000 		li	a1,0
 558 0014 97000000 		call	_ZN7WorkerA11workerBodyAEPv
 558      E7800000 
 559              	.LVL52:
  23:test/Threads_CPP_API_test.cpp **** };
 560              		.loc 1 23 5
 561 001c 83308100 		ld	ra,8(sp)
 562              		.cfi_restore 1
 563 0020 03340100 		ld	s0,0(sp)
 564              		.cfi_restore 8
 565 0024 13010101 		addi	sp,sp,16
 566              		.cfi_def_cfa_register 2
 567 0028 67800000 		jr	ra
 568              		.cfi_endproc
 569              	.LFE39:
 571              		.text
 572              		.align	2
 573              		.globl	_ZN7WorkerB11workerBodyBEPv
 575              	_ZN7WorkerB11workerBodyBEPv:
 576              	.LFB53:
  67:test/Threads_CPP_API_test.cpp **** 
  68:test/Threads_CPP_API_test.cpp **** void WorkerB::workerBodyB(void *arg) {
 577              		.loc 1 68 38 is_stmt 1
 578              		.cfi_startproc
 579              	.LVL53:
 580 0144 130101FE 		addi	sp,sp,-32
 581              		.cfi_def_cfa_offset 32
 582 0148 233C1100 		sd	ra,24(sp)
 583 014c 23388100 		sd	s0,16(sp)
 584 0150 23349100 		sd	s1,8(sp)
GAS LISTING /tmp/ccyhoPws.s 			page 13


 585 0154 23302101 		sd	s2,0(sp)
 586              		.cfi_offset 1, -8
 587              		.cfi_offset 8, -16
 588              		.cfi_offset 9, -24
 589              		.cfi_offset 18, -32
 590 0158 13040102 		addi	s0,sp,32
 591              		.cfi_def_cfa 8, 0
  69:test/Threads_CPP_API_test.cpp ****     for (uint64 i = 0; i < 16; i++) {
 592              		.loc 1 69 5
 593              	.LVL54:
 594              	.LBB48:
 595              		.loc 1 69 17 is_stmt 0
 596 015c 13090000 		li	s2,0
 597 0160 6F008003 		j	.L42
 598              	.LVL55:
 599              	.L39:
 600              	.LBB49:
 601              	.LBB50:
 602              	.LBB51:
  70:test/Threads_CPP_API_test.cpp ****         printString("B: i="); printInt(i); printString("\n");
  71:test/Threads_CPP_API_test.cpp ****         for (uint64 j = 0; j < 10000; j++) {
  72:test/Threads_CPP_API_test.cpp ****             for (uint64 k = 0; k < 30000; k++) { /* busy wait */ }
  73:test/Threads_CPP_API_test.cpp ****             thread_dispatch();
 603              		.loc 1 73 13 is_stmt 1 discriminator 2
 604              		.loc 1 73 28 is_stmt 0 discriminator 2
 605 0164 97000000 		call	_Z15thread_dispatchv
 605      E7800000 
 606              	.LVL56:
 607              	.LBE51:
  71:test/Threads_CPP_API_test.cpp ****             for (uint64 k = 0; k < 30000; k++) { /* busy wait */ }
 608              		.loc 1 71 9 discriminator 2
 609 016c 93841400 		addi	s1,s1,1
 610              	.LVL57:
 611              	.L41:
  71:test/Threads_CPP_API_test.cpp ****             for (uint64 k = 0; k < 30000; k++) { /* busy wait */ }
 612              		.loc 1 71 30 discriminator 1
 613 0170 B7270000 		li	a5,8192
 614 0174 9387F770 		addi	a5,a5,1807
 615 0178 63EE9700 		bgtu	s1,a5,.L38
 616              	.LBB53:
 617              	.LBB52:
  72:test/Threads_CPP_API_test.cpp ****             thread_dispatch();
 618              		.loc 1 72 25
 619 017c 13070000 		li	a4,0
 620              	.L40:
 621              	.LVL58:
  72:test/Threads_CPP_API_test.cpp ****             thread_dispatch();
 622              		.loc 1 72 34 discriminator 3
 623 0180 B7770000 		li	a5,28672
 624 0184 9387F752 		addi	a5,a5,1327
 625 0188 E3EEE7FC 		bgtu	a4,a5,.L39
  72:test/Threads_CPP_API_test.cpp ****             thread_dispatch();
 626              		.loc 1 72 13 discriminator 2
 627 018c 13071700 		addi	a4,a4,1
 628              	.LVL59:
 629 0190 6FF01FFF 		j	.L40
 630              	.LVL60:
GAS LISTING /tmp/ccyhoPws.s 			page 14


 631              	.L38:
 632              	.LBE52:
 633              	.LBE53:
 634              	.LBE50:
 635              	.LBE49:
  69:test/Threads_CPP_API_test.cpp ****         printString("B: i="); printInt(i); printString("\n");
 636              		.loc 1 69 5 discriminator 2
 637 0194 13091900 		addi	s2,s2,1
 638              	.LVL61:
 639              	.L42:
  69:test/Threads_CPP_API_test.cpp ****         printString("B: i="); printInt(i); printString("\n");
 640              		.loc 1 69 26 discriminator 1
 641 0198 9307F000 		li	a5,15
 642 019c 63E02705 		bgtu	s2,a5,.L37
 643              	.LBB55:
  70:test/Threads_CPP_API_test.cpp ****         for (uint64 j = 0; j < 10000; j++) {
 644              		.loc 1 70 9 is_stmt 1
  70:test/Threads_CPP_API_test.cpp ****         for (uint64 j = 0; j < 10000; j++) {
 645              		.loc 1 70 20 is_stmt 0
 646 01a0 17050000 		lla	a0,.LC3
 646      13050500 
 647 01a8 97000000 		call	_Z11printStringPKc
 647      E7800000 
 648              	.LVL62:
  70:test/Threads_CPP_API_test.cpp ****         for (uint64 j = 0; j < 10000; j++) {
 649              		.loc 1 70 31 is_stmt 1
  70:test/Threads_CPP_API_test.cpp ****         for (uint64 j = 0; j < 10000; j++) {
 650              		.loc 1 70 39 is_stmt 0
 651 01b0 13060000 		li	a2,0
 652 01b4 9305A000 		li	a1,10
 653 01b8 1B050900 		sext.w	a0,s2
 654 01bc 97000000 		call	_Z8printIntiii
 654      E7800000 
 655              	.LVL63:
  70:test/Threads_CPP_API_test.cpp ****         for (uint64 j = 0; j < 10000; j++) {
 656              		.loc 1 70 44 is_stmt 1
  70:test/Threads_CPP_API_test.cpp ****         for (uint64 j = 0; j < 10000; j++) {
 657              		.loc 1 70 55 is_stmt 0
 658 01c4 17050000 		lla	a0,.LC1
 658      13050500 
 659 01cc 97000000 		call	_Z11printStringPKc
 659      E7800000 
 660              	.LVL64:
  71:test/Threads_CPP_API_test.cpp ****             for (uint64 k = 0; k < 30000; k++) { /* busy wait */ }
 661              		.loc 1 71 9 is_stmt 1
 662              	.LBB54:
  71:test/Threads_CPP_API_test.cpp ****             for (uint64 k = 0; k < 30000; k++) { /* busy wait */ }
 663              		.loc 1 71 21 is_stmt 0
 664 01d4 93040000 		li	s1,0
 665 01d8 6FF09FF9 		j	.L41
 666              	.LVL65:
 667              	.L37:
 668              	.LBE54:
 669              	.LBE55:
 670              	.LBE48:
  74:test/Threads_CPP_API_test.cpp ****         }
  75:test/Threads_CPP_API_test.cpp ****     }
GAS LISTING /tmp/ccyhoPws.s 			page 15


  76:test/Threads_CPP_API_test.cpp ****     printString("B finished!\n");
 671              		.loc 1 76 5 is_stmt 1
 672              		.loc 1 76 16 is_stmt 0
 673 01dc 17050000 		lla	a0,.LC4
 673      13050500 
 674 01e4 97000000 		call	_Z11printStringPKc
 674      E7800000 
 675              	.LVL66:
  77:test/Threads_CPP_API_test.cpp ****     finishedB = true;
 676              		.loc 1 77 5 is_stmt 1
 677              		.loc 1 77 15 is_stmt 0
 678 01ec 93071000 		li	a5,1
 679 01f0 17070000 		sb	a5,_ZL9finishedB,a4
 679      2300F700 
  78:test/Threads_CPP_API_test.cpp ****     thread_dispatch();
 680              		.loc 1 78 5 is_stmt 1
 681              		.loc 1 78 20 is_stmt 0
 682 01f8 97000000 		call	_Z15thread_dispatchv
 682      E7800000 
 683              	.LVL67:
  79:test/Threads_CPP_API_test.cpp **** }
 684              		.loc 1 79 1
 685 0200 83308101 		ld	ra,24(sp)
 686              		.cfi_restore 1
 687 0204 03340101 		ld	s0,16(sp)
 688              		.cfi_restore 8
 689 0208 83348100 		ld	s1,8(sp)
 690              		.cfi_restore 9
 691 020c 03390100 		ld	s2,0(sp)
 692              		.cfi_restore 18
 693              	.LVL68:
 694 0210 13010102 		addi	sp,sp,32
 695              		.cfi_def_cfa_register 2
 696 0214 67800000 		jr	ra
 697              		.cfi_endproc
 698              	.LFE53:
 700              		.section	.text._ZN7WorkerB3runEv,"axG",@progbits,_ZN7WorkerB3runEv,comdat
 701              		.align	2
 702              		.weak	_ZN7WorkerB3runEv
 704              	_ZN7WorkerB3runEv:
 705              	.LFB43:
  31:test/Threads_CPP_API_test.cpp ****         workerBodyB(nullptr);
 706              		.loc 1 31 10 is_stmt 1
 707              		.cfi_startproc
 708              	.LVL69:
 709 0000 130101FF 		addi	sp,sp,-16
 710              		.cfi_def_cfa_offset 16
 711 0004 23341100 		sd	ra,8(sp)
 712 0008 23308100 		sd	s0,0(sp)
 713              		.cfi_offset 1, -8
 714              		.cfi_offset 8, -16
 715 000c 13040101 		addi	s0,sp,16
 716              		.cfi_def_cfa 8, 0
  32:test/Threads_CPP_API_test.cpp ****     }
 717              		.loc 1 32 9
  32:test/Threads_CPP_API_test.cpp ****     }
 718              		.loc 1 32 20 is_stmt 0
GAS LISTING /tmp/ccyhoPws.s 			page 16


 719 0010 93050000 		li	a1,0
 720 0014 97000000 		call	_ZN7WorkerB11workerBodyBEPv
 720      E7800000 
 721              	.LVL70:
  33:test/Threads_CPP_API_test.cpp **** };
 722              		.loc 1 33 5
 723 001c 83308100 		ld	ra,8(sp)
 724              		.cfi_restore 1
 725 0020 03340100 		ld	s0,0(sp)
 726              		.cfi_restore 8
 727 0024 13010101 		addi	sp,sp,16
 728              		.cfi_def_cfa_register 2
 729 0028 67800000 		jr	ra
 730              		.cfi_endproc
 731              	.LFE43:
 733              		.text
 734              		.align	2
 735              		.globl	_ZN7WorkerC11workerBodyCEPv
 737              	_ZN7WorkerC11workerBodyCEPv:
 738              	.LFB54:
  80:test/Threads_CPP_API_test.cpp **** 
  81:test/Threads_CPP_API_test.cpp **** void WorkerC::workerBodyC(void *arg) {
 739              		.loc 1 81 38 is_stmt 1
 740              		.cfi_startproc
 741              	.LVL71:
 742 0218 130101FE 		addi	sp,sp,-32
 743              		.cfi_def_cfa_offset 32
 744 021c 233C1100 		sd	ra,24(sp)
 745 0220 23388100 		sd	s0,16(sp)
 746 0224 23349100 		sd	s1,8(sp)
 747 0228 23302101 		sd	s2,0(sp)
 748              		.cfi_offset 1, -8
 749              		.cfi_offset 8, -16
 750              		.cfi_offset 9, -24
 751              		.cfi_offset 18, -32
 752 022c 13040102 		addi	s0,sp,32
 753              		.cfi_def_cfa 8, 0
  82:test/Threads_CPP_API_test.cpp ****     uint8 i = 0;
 754              		.loc 1 82 5
 755              	.LVL72:
 756              		.loc 1 82 11 is_stmt 0
 757 0230 93040000 		li	s1,0
 758              	.LVL73:
 759              	.L48:
  83:test/Threads_CPP_API_test.cpp ****     for (; i < 3; i++) {
 760              		.loc 1 83 5 is_stmt 1 discriminator 2
 761              		.loc 1 83 14 is_stmt 0 discriminator 2
 762 0234 93072000 		li	a5,2
 763 0238 63E29704 		bgtu	s1,a5,.L47
  84:test/Threads_CPP_API_test.cpp ****         printString("C: i="); printInt(i); printString("\n");
 764              		.loc 1 84 9 is_stmt 1 discriminator 1
 765              		.loc 1 84 20 is_stmt 0 discriminator 1
 766 023c 17050000 		lla	a0,.LC5
 766      13050500 
 767 0244 97000000 		call	_Z11printStringPKc
 767      E7800000 
 768              	.LVL74:
GAS LISTING /tmp/ccyhoPws.s 			page 17


 769              		.loc 1 84 31 is_stmt 1 discriminator 1
 770              		.loc 1 84 39 is_stmt 0 discriminator 1
 771 024c 13060000 		li	a2,0
 772 0250 9305A000 		li	a1,10
 773 0254 13850400 		mv	a0,s1
 774 0258 97000000 		call	_Z8printIntiii
 774      E7800000 
 775              	.LVL75:
 776              		.loc 1 84 44 is_stmt 1 discriminator 1
 777              		.loc 1 84 55 is_stmt 0 discriminator 1
 778 0260 17050000 		lla	a0,.LC1
 778      13050500 
 779 0268 97000000 		call	_Z11printStringPKc
 779      E7800000 
 780              	.LVL76:
  83:test/Threads_CPP_API_test.cpp ****     for (; i < 3; i++) {
 781              		.loc 1 83 5 discriminator 1
 782 0270 9B841400 		addiw	s1,s1,1
 783              	.LVL77:
 784 0274 93F4F40F 		andi	s1,s1,0xff
 785              	.LVL78:
 786 0278 6FF0DFFB 		j	.L48
 787              	.L47:
  85:test/Threads_CPP_API_test.cpp ****     }
  86:test/Threads_CPP_API_test.cpp **** 
  87:test/Threads_CPP_API_test.cpp ****     printString("C: dispatch\n");
 788              		.loc 1 87 5 is_stmt 1
 789              		.loc 1 87 16 is_stmt 0
 790 027c 17050000 		lla	a0,.LC6
 790      13050500 
 791 0284 97000000 		call	_Z11printStringPKc
 791      E7800000 
 792              	.LVL79:
  88:test/Threads_CPP_API_test.cpp ****     __asm__ ("li t1, 7");
 793              		.loc 1 88 5 is_stmt 1
 794              		.loc 1 88 25 is_stmt 0
 795              	#APP
 796              	# 88 "test/Threads_CPP_API_test.cpp" 1
  89              	    thread_dispatch();
 797              		li t1, 7
 798              	# 0 "" 2
 799              		.loc 1 89 5 is_stmt 1
 800              		.loc 1 89 20 is_stmt 0
 801              	#NO_APP
 802 0290 97000000 		call	_Z15thread_dispatchv
 802      E7800000 
 803              	.LVL80:
  90:test/Threads_CPP_API_test.cpp **** 
  91:test/Threads_CPP_API_test.cpp ****     uint64 t1 = 0;
 804              		.loc 1 91 5 is_stmt 1
  92:test/Threads_CPP_API_test.cpp ****     __asm__ ("mv %[t1], t1" : [t1] "=r"(t1));
 805              		.loc 1 92 5
 806              		.loc 1 92 45 is_stmt 0
 807              	#APP
 808              	# 92 "test/Threads_CPP_API_test.cpp" 1
  93              	
 809              		mv s2, t1
GAS LISTING /tmp/ccyhoPws.s 			page 18


 810              	# 0 "" 2
 811              	.LVL81:
  94:test/Threads_CPP_API_test.cpp ****     printString("C: t1="); printInt(t1); printString("\n");
 812              		.loc 1 94 5 is_stmt 1
 813              		.loc 1 94 16 is_stmt 0
 814              	#NO_APP
 815 029c 17050000 		lla	a0,.LC7
 815      13050500 
 816 02a4 97000000 		call	_Z11printStringPKc
 816      E7800000 
 817              	.LVL82:
 818              		.loc 1 94 28 is_stmt 1
 819              		.loc 1 94 36 is_stmt 0
 820 02ac 13060000 		li	a2,0
 821 02b0 9305A000 		li	a1,10
 822 02b4 1B050900 		sext.w	a0,s2
 823 02b8 97000000 		call	_Z8printIntiii
 823      E7800000 
 824              	.LVL83:
 825              		.loc 1 94 42 is_stmt 1
 826              		.loc 1 94 53 is_stmt 0
 827 02c0 17050000 		lla	a0,.LC1
 827      13050500 
 828 02c8 97000000 		call	_Z11printStringPKc
 828      E7800000 
 829              	.LVL84:
  95:test/Threads_CPP_API_test.cpp **** 
  96:test/Threads_CPP_API_test.cpp ****     uint64 result = fibonacci(12);
 830              		.loc 1 96 5 is_stmt 1
 831              		.loc 1 96 30 is_stmt 0
 832 02d0 1305C000 		li	a0,12
 833 02d4 97000000 		call	_ZL9fibonaccim
 833      E7800000 
 834              	.LVL85:
 835 02dc 13090500 		mv	s2,a0
 836              	.LVL86:
  97:test/Threads_CPP_API_test.cpp ****     printString("C: fibonaci="); printInt(result); printString("\n");
 837              		.loc 1 97 5 is_stmt 1
 838              		.loc 1 97 16 is_stmt 0
 839 02e0 17050000 		lla	a0,.LC8
 839      13050500 
 840              	.LVL87:
 841 02e8 97000000 		call	_Z11printStringPKc
 841      E7800000 
 842              	.LVL88:
 843              		.loc 1 97 34 is_stmt 1
 844              		.loc 1 97 42 is_stmt 0
 845 02f0 13060000 		li	a2,0
 846 02f4 9305A000 		li	a1,10
 847 02f8 1B050900 		sext.w	a0,s2
 848 02fc 97000000 		call	_Z8printIntiii
 848      E7800000 
 849              	.LVL89:
 850              		.loc 1 97 52 is_stmt 1
 851              		.loc 1 97 63 is_stmt 0
 852 0304 17050000 		lla	a0,.LC1
 852      13050500 
GAS LISTING /tmp/ccyhoPws.s 			page 19


 853 030c 97000000 		call	_Z11printStringPKc
 853      E7800000 
 854              	.LVL90:
 855              	.L50:
  98:test/Threads_CPP_API_test.cpp **** 
  99:test/Threads_CPP_API_test.cpp ****     for (; i < 6; i++) {
 856              		.loc 1 99 5 is_stmt 1 discriminator 2
 857              		.loc 1 99 14 is_stmt 0 discriminator 2
 858 0314 93075000 		li	a5,5
 859 0318 63E29704 		bgtu	s1,a5,.L49
 100:test/Threads_CPP_API_test.cpp ****         printString("C: i="); printInt(i); printString("\n");
 860              		.loc 1 100 9 is_stmt 1 discriminator 1
 861              		.loc 1 100 20 is_stmt 0 discriminator 1
 862 031c 17050000 		lla	a0,.LC5
 862      13050500 
 863 0324 97000000 		call	_Z11printStringPKc
 863      E7800000 
 864              	.LVL91:
 865              		.loc 1 100 31 is_stmt 1 discriminator 1
 866              		.loc 1 100 39 is_stmt 0 discriminator 1
 867 032c 13060000 		li	a2,0
 868 0330 9305A000 		li	a1,10
 869 0334 13850400 		mv	a0,s1
 870 0338 97000000 		call	_Z8printIntiii
 870      E7800000 
 871              	.LVL92:
 872              		.loc 1 100 44 is_stmt 1 discriminator 1
 873              		.loc 1 100 55 is_stmt 0 discriminator 1
 874 0340 17050000 		lla	a0,.LC1
 874      13050500 
 875 0348 97000000 		call	_Z11printStringPKc
 875      E7800000 
 876              	.LVL93:
  99:test/Threads_CPP_API_test.cpp ****         printString("C: i="); printInt(i); printString("\n");
 877              		.loc 1 99 5 discriminator 1
 878 0350 9B841400 		addiw	s1,s1,1
 879              	.LVL94:
 880 0354 93F4F40F 		andi	s1,s1,0xff
 881              	.LVL95:
 882 0358 6FF0DFFB 		j	.L50
 883              	.L49:
 101:test/Threads_CPP_API_test.cpp ****     }
 102:test/Threads_CPP_API_test.cpp **** 
 103:test/Threads_CPP_API_test.cpp ****     printString("A finished!\n");
 884              		.loc 1 103 5 is_stmt 1
 885              		.loc 1 103 16 is_stmt 0
 886 035c 17050000 		lla	a0,.LC2
 886      13050500 
 887 0364 97000000 		call	_Z11printStringPKc
 887      E7800000 
 888              	.LVL96:
 104:test/Threads_CPP_API_test.cpp ****     finishedC = true;
 889              		.loc 1 104 5 is_stmt 1
 890              		.loc 1 104 15 is_stmt 0
 891 036c 93071000 		li	a5,1
 892 0370 17070000 		sb	a5,_ZL9finishedC,a4
 892      2300F700 
GAS LISTING /tmp/ccyhoPws.s 			page 20


 105:test/Threads_CPP_API_test.cpp ****     thread_dispatch();
 893              		.loc 1 105 5 is_stmt 1
 894              		.loc 1 105 20 is_stmt 0
 895 0378 97000000 		call	_Z15thread_dispatchv
 895      E7800000 
 896              	.LVL97:
 106:test/Threads_CPP_API_test.cpp **** }
 897              		.loc 1 106 1
 898 0380 83308101 		ld	ra,24(sp)
 899              		.cfi_restore 1
 900 0384 03340101 		ld	s0,16(sp)
 901              		.cfi_restore 8
 902 0388 83348100 		ld	s1,8(sp)
 903              		.cfi_restore 9
 904              	.LVL98:
 905 038c 03390100 		ld	s2,0(sp)
 906              		.cfi_restore 18
 907              	.LVL99:
 908 0390 13010102 		addi	sp,sp,32
 909              		.cfi_def_cfa_register 2
 910 0394 67800000 		jr	ra
 911              		.cfi_endproc
 912              	.LFE54:
 914              		.section	.text._ZN7WorkerC3runEv,"axG",@progbits,_ZN7WorkerC3runEv,comdat
 915              		.align	2
 916              		.weak	_ZN7WorkerC3runEv
 918              	_ZN7WorkerC3runEv:
 919              	.LFB47:
  41:test/Threads_CPP_API_test.cpp ****         workerBodyC(nullptr);
 920              		.loc 1 41 10 is_stmt 1
 921              		.cfi_startproc
 922              	.LVL100:
 923 0000 130101FF 		addi	sp,sp,-16
 924              		.cfi_def_cfa_offset 16
 925 0004 23341100 		sd	ra,8(sp)
 926 0008 23308100 		sd	s0,0(sp)
 927              		.cfi_offset 1, -8
 928              		.cfi_offset 8, -16
 929 000c 13040101 		addi	s0,sp,16
 930              		.cfi_def_cfa 8, 0
  42:test/Threads_CPP_API_test.cpp ****     }
 931              		.loc 1 42 9
  42:test/Threads_CPP_API_test.cpp ****     }
 932              		.loc 1 42 20 is_stmt 0
 933 0010 93050000 		li	a1,0
 934 0014 97000000 		call	_ZN7WorkerC11workerBodyCEPv
 934      E7800000 
 935              	.LVL101:
  43:test/Threads_CPP_API_test.cpp **** };
 936              		.loc 1 43 5
 937 001c 83308100 		ld	ra,8(sp)
 938              		.cfi_restore 1
 939 0020 03340100 		ld	s0,0(sp)
 940              		.cfi_restore 8
 941 0024 13010101 		addi	sp,sp,16
 942              		.cfi_def_cfa_register 2
 943 0028 67800000 		jr	ra
GAS LISTING /tmp/ccyhoPws.s 			page 21


 944              		.cfi_endproc
 945              	.LFE47:
 947              		.text
 948              		.align	2
 949              		.globl	_ZN7WorkerD11workerBodyDEPv
 951              	_ZN7WorkerD11workerBodyDEPv:
 952              	.LFB55:
 107:test/Threads_CPP_API_test.cpp **** 
 108:test/Threads_CPP_API_test.cpp **** void WorkerD::workerBodyD(void* arg) {
 953              		.loc 1 108 38 is_stmt 1
 954              		.cfi_startproc
 955              	.LVL102:
 956 0398 130101FE 		addi	sp,sp,-32
 957              		.cfi_def_cfa_offset 32
 958 039c 233C1100 		sd	ra,24(sp)
 959 03a0 23388100 		sd	s0,16(sp)
 960 03a4 23349100 		sd	s1,8(sp)
 961 03a8 23302101 		sd	s2,0(sp)
 962              		.cfi_offset 1, -8
 963              		.cfi_offset 8, -16
 964              		.cfi_offset 9, -24
 965              		.cfi_offset 18, -32
 966 03ac 13040102 		addi	s0,sp,32
 967              		.cfi_def_cfa 8, 0
 109:test/Threads_CPP_API_test.cpp ****     uint8 i = 10;
 968              		.loc 1 109 5
 969              	.LVL103:
 970              		.loc 1 109 11 is_stmt 0
 971 03b0 9304A000 		li	s1,10
 972              	.LVL104:
 973              	.L56:
 110:test/Threads_CPP_API_test.cpp ****     for (; i < 13; i++) {
 974              		.loc 1 110 5 is_stmt 1 discriminator 2
 975              		.loc 1 110 14 is_stmt 0 discriminator 2
 976 03b4 9307C000 		li	a5,12
 977 03b8 63E29704 		bgtu	s1,a5,.L55
 111:test/Threads_CPP_API_test.cpp ****         printString("D: i="); printInt(i); printString("\n");
 978              		.loc 1 111 9 is_stmt 1 discriminator 1
 979              		.loc 1 111 20 is_stmt 0 discriminator 1
 980 03bc 17050000 		lla	a0,.LC9
 980      13050500 
 981 03c4 97000000 		call	_Z11printStringPKc
 981      E7800000 
 982              	.LVL105:
 983              		.loc 1 111 31 is_stmt 1 discriminator 1
 984              		.loc 1 111 39 is_stmt 0 discriminator 1
 985 03cc 13060000 		li	a2,0
 986 03d0 9305A000 		li	a1,10
 987 03d4 13850400 		mv	a0,s1
 988 03d8 97000000 		call	_Z8printIntiii
 988      E7800000 
 989              	.LVL106:
 990              		.loc 1 111 44 is_stmt 1 discriminator 1
 991              		.loc 1 111 55 is_stmt 0 discriminator 1
 992 03e0 17050000 		lla	a0,.LC1
 992      13050500 
 993 03e8 97000000 		call	_Z11printStringPKc
GAS LISTING /tmp/ccyhoPws.s 			page 22


 993      E7800000 
 994              	.LVL107:
 110:test/Threads_CPP_API_test.cpp ****     for (; i < 13; i++) {
 995              		.loc 1 110 5 discriminator 1
 996 03f0 9B841400 		addiw	s1,s1,1
 997              	.LVL108:
 998 03f4 93F4F40F 		andi	s1,s1,0xff
 999              	.LVL109:
 1000 03f8 6FF0DFFB 		j	.L56
 1001              	.L55:
 112:test/Threads_CPP_API_test.cpp ****     }
 113:test/Threads_CPP_API_test.cpp **** 
 114:test/Threads_CPP_API_test.cpp ****     printString("D: dispatch\n");
 1002              		.loc 1 114 5 is_stmt 1
 1003              		.loc 1 114 16 is_stmt 0
 1004 03fc 17050000 		lla	a0,.LC10
 1004      13050500 
 1005 0404 97000000 		call	_Z11printStringPKc
 1005      E7800000 
 1006              	.LVL110:
 115:test/Threads_CPP_API_test.cpp ****     __asm__ ("li t1, 5");
 1007              		.loc 1 115 5 is_stmt 1
 1008              		.loc 1 115 25 is_stmt 0
 1009              	#APP
 1010              	# 115 "test/Threads_CPP_API_test.cpp" 1
 116              	    thread_dispatch();
 1011              		li t1, 5
 1012              	# 0 "" 2
 1013              		.loc 1 116 5 is_stmt 1
 1014              		.loc 1 116 20 is_stmt 0
 1015              	#NO_APP
 1016 0410 97000000 		call	_Z15thread_dispatchv
 1016      E7800000 
 1017              	.LVL111:
 117:test/Threads_CPP_API_test.cpp **** 
 118:test/Threads_CPP_API_test.cpp ****     uint64 result = fibonacci(16);
 1018              		.loc 1 118 5 is_stmt 1
 1019              		.loc 1 118 30 is_stmt 0
 1020 0418 13050001 		li	a0,16
 1021 041c 97000000 		call	_ZL9fibonaccim
 1021      E7800000 
 1022              	.LVL112:
 1023 0424 13090500 		mv	s2,a0
 1024              	.LVL113:
 119:test/Threads_CPP_API_test.cpp ****     printString("D: fibonaci="); printInt(result); printString("\n");
 1025              		.loc 1 119 5 is_stmt 1
 1026              		.loc 1 119 16 is_stmt 0
 1027 0428 17050000 		lla	a0,.LC11
 1027      13050500 
 1028              	.LVL114:
 1029 0430 97000000 		call	_Z11printStringPKc
 1029      E7800000 
 1030              	.LVL115:
 1031              		.loc 1 119 34 is_stmt 1
 1032              		.loc 1 119 42 is_stmt 0
 1033 0438 13060000 		li	a2,0
 1034 043c 9305A000 		li	a1,10
GAS LISTING /tmp/ccyhoPws.s 			page 23


 1035 0440 1B050900 		sext.w	a0,s2
 1036 0444 97000000 		call	_Z8printIntiii
 1036      E7800000 
 1037              	.LVL116:
 1038              		.loc 1 119 52 is_stmt 1
 1039              		.loc 1 119 63 is_stmt 0
 1040 044c 17050000 		lla	a0,.LC1
 1040      13050500 
 1041 0454 97000000 		call	_Z11printStringPKc
 1041      E7800000 
 1042              	.LVL117:
 1043              	.L58:
 120:test/Threads_CPP_API_test.cpp **** 
 121:test/Threads_CPP_API_test.cpp ****     for (; i < 16; i++) {
 1044              		.loc 1 121 5 is_stmt 1 discriminator 2
 1045              		.loc 1 121 14 is_stmt 0 discriminator 2
 1046 045c 9307F000 		li	a5,15
 1047 0460 63E29704 		bgtu	s1,a5,.L57
 122:test/Threads_CPP_API_test.cpp ****         printString("D: i="); printInt(i); printString("\n");
 1048              		.loc 1 122 9 is_stmt 1 discriminator 1
 1049              		.loc 1 122 20 is_stmt 0 discriminator 1
 1050 0464 17050000 		lla	a0,.LC9
 1050      13050500 
 1051 046c 97000000 		call	_Z11printStringPKc
 1051      E7800000 
 1052              	.LVL118:
 1053              		.loc 1 122 31 is_stmt 1 discriminator 1
 1054              		.loc 1 122 39 is_stmt 0 discriminator 1
 1055 0474 13060000 		li	a2,0
 1056 0478 9305A000 		li	a1,10
 1057 047c 13850400 		mv	a0,s1
 1058 0480 97000000 		call	_Z8printIntiii
 1058      E7800000 
 1059              	.LVL119:
 1060              		.loc 1 122 44 is_stmt 1 discriminator 1
 1061              		.loc 1 122 55 is_stmt 0 discriminator 1
 1062 0488 17050000 		lla	a0,.LC1
 1062      13050500 
 1063 0490 97000000 		call	_Z11printStringPKc
 1063      E7800000 
 1064              	.LVL120:
 121:test/Threads_CPP_API_test.cpp ****         printString("D: i="); printInt(i); printString("\n");
 1065              		.loc 1 121 5 discriminator 1
 1066 0498 9B841400 		addiw	s1,s1,1
 1067              	.LVL121:
 1068 049c 93F4F40F 		andi	s1,s1,0xff
 1069              	.LVL122:
 1070 04a0 6FF0DFFB 		j	.L58
 1071              	.L57:
 123:test/Threads_CPP_API_test.cpp ****     }
 124:test/Threads_CPP_API_test.cpp **** 
 125:test/Threads_CPP_API_test.cpp ****     printString("D finished!\n");
 1072              		.loc 1 125 5 is_stmt 1
 1073              		.loc 1 125 16 is_stmt 0
 1074 04a4 17050000 		lla	a0,.LC12
 1074      13050500 
 1075 04ac 97000000 		call	_Z11printStringPKc
GAS LISTING /tmp/ccyhoPws.s 			page 24


 1075      E7800000 
 1076              	.LVL123:
 126:test/Threads_CPP_API_test.cpp ****     finishedD = true;
 1077              		.loc 1 126 5 is_stmt 1
 1078              		.loc 1 126 15 is_stmt 0
 1079 04b4 93071000 		li	a5,1
 1080 04b8 17070000 		sb	a5,_ZL9finishedD,a4
 1080      2300F700 
 127:test/Threads_CPP_API_test.cpp ****     thread_dispatch();
 1081              		.loc 1 127 5 is_stmt 1
 1082              		.loc 1 127 20 is_stmt 0
 1083 04c0 97000000 		call	_Z15thread_dispatchv
 1083      E7800000 
 1084              	.LVL124:
 128:test/Threads_CPP_API_test.cpp **** }
 1085              		.loc 1 128 1
 1086 04c8 83308101 		ld	ra,24(sp)
 1087              		.cfi_restore 1
 1088 04cc 03340101 		ld	s0,16(sp)
 1089              		.cfi_restore 8
 1090 04d0 83348100 		ld	s1,8(sp)
 1091              		.cfi_restore 9
 1092              	.LVL125:
 1093 04d4 03390100 		ld	s2,0(sp)
 1094              		.cfi_restore 18
 1095              	.LVL126:
 1096 04d8 13010102 		addi	sp,sp,32
 1097              		.cfi_def_cfa_register 2
 1098 04dc 67800000 		jr	ra
 1099              		.cfi_endproc
 1100              	.LFE55:
 1102              		.section	.text._ZN7WorkerD3runEv,"axG",@progbits,_ZN7WorkerD3runEv,comdat
 1103              		.align	2
 1104              		.weak	_ZN7WorkerD3runEv
 1106              	_ZN7WorkerD3runEv:
 1107              	.LFB51:
  51:test/Threads_CPP_API_test.cpp ****         workerBodyD(nullptr);
 1108              		.loc 1 51 10 is_stmt 1
 1109              		.cfi_startproc
 1110              	.LVL127:
 1111 0000 130101FF 		addi	sp,sp,-16
 1112              		.cfi_def_cfa_offset 16
 1113 0004 23341100 		sd	ra,8(sp)
 1114 0008 23308100 		sd	s0,0(sp)
 1115              		.cfi_offset 1, -8
 1116              		.cfi_offset 8, -16
 1117 000c 13040101 		addi	s0,sp,16
 1118              		.cfi_def_cfa 8, 0
  52:test/Threads_CPP_API_test.cpp ****     }
 1119              		.loc 1 52 9
  52:test/Threads_CPP_API_test.cpp ****     }
 1120              		.loc 1 52 20 is_stmt 0
 1121 0010 93050000 		li	a1,0
 1122 0014 97000000 		call	_ZN7WorkerD11workerBodyDEPv
 1122      E7800000 
 1123              	.LVL128:
  53:test/Threads_CPP_API_test.cpp **** };
GAS LISTING /tmp/ccyhoPws.s 			page 25


 1124              		.loc 1 53 5
 1125 001c 83308100 		ld	ra,8(sp)
 1126              		.cfi_restore 1
 1127 0020 03340100 		ld	s0,0(sp)
 1128              		.cfi_restore 8
 1129 0024 13010101 		addi	sp,sp,16
 1130              		.cfi_def_cfa_register 2
 1131 0028 67800000 		jr	ra
 1132              		.cfi_endproc
 1133              	.LFE51:
 1135              		.text
 1136              		.align	2
 1137              		.globl	_Z20Threads_CPP_API_testv
 1139              	_Z20Threads_CPP_API_testv:
 1140              	.LFB56:
 129:test/Threads_CPP_API_test.cpp **** 
 130:test/Threads_CPP_API_test.cpp **** 
 131:test/Threads_CPP_API_test.cpp **** void Threads_CPP_API_test() {
 1141              		.loc 1 131 29 is_stmt 1
 1142              		.cfi_startproc
 1143              		.cfi_personality 0x9b,DW.ref.__gxx_personality_v0
 1144              		.cfi_lsda 0x1b,.LLSDA56
 1145 04e0 130101FC 		addi	sp,sp,-64
 1146              		.cfi_def_cfa_offset 64
 1147 04e4 233C1102 		sd	ra,56(sp)
 1148 04e8 23388102 		sd	s0,48(sp)
 1149 04ec 23349102 		sd	s1,40(sp)
 1150 04f0 23302103 		sd	s2,32(sp)
 1151              		.cfi_offset 1, -8
 1152              		.cfi_offset 8, -16
 1153              		.cfi_offset 9, -24
 1154              		.cfi_offset 18, -32
 1155 04f4 13040104 		addi	s0,sp,64
 1156              		.cfi_def_cfa 8, 0
 132:test/Threads_CPP_API_test.cpp ****     Thread* threads[4];
 1157              		.loc 1 132 5
 133:test/Threads_CPP_API_test.cpp **** 
 134:test/Threads_CPP_API_test.cpp ****     threads[0] = new WorkerA();
 1158              		.loc 1 134 5
 1159              		.loc 1 134 30 is_stmt 0
 1160 04f8 13050002 		li	a0,32
 1161              	.LEHB0:
 1162 04fc 97000000 		call	_Znwm
 1162      E7800000 
 1163              	.LVL129:
 1164              	.LEHE0:
 1165 0504 93040500 		mv	s1,a0
 1166              	.LVL130:
 1167              	.LEHB1:
 1168              	.LBB56:
 1169              	.LBB57:
  19:test/Threads_CPP_API_test.cpp **** 
 1170              		.loc 1 19 22
 1171 0508 97000000 		call	_ZN6ThreadC2Ev
 1171      E7800000 
 1172              	.LVL131:
 1173              	.LEHE1:
GAS LISTING /tmp/ccyhoPws.s 			page 26


 1174 0510 97070000 		lla	a5,_ZTV7WorkerA+16
 1174      93870700 
 1175 0518 23B0F400 		sd	a5,0(s1)
 1176              	.LVL132:
 1177              	.LBE57:
 1178              	.LBE56:
 1179              		.loc 1 134 16
 1180 051c 233094FC 		sd	s1,-64(s0)
 135:test/Threads_CPP_API_test.cpp ****     printString("ThreadA created\n");
 1181              		.loc 1 135 5 is_stmt 1
 1182              		.loc 1 135 16 is_stmt 0
 1183 0520 17050000 		lla	a0,.LC13
 1183      13050500 
 1184              	.LEHB2:
 1185 0528 97000000 		call	_Z11printStringPKc
 1185      E7800000 
 1186              	.LVL133:
 136:test/Threads_CPP_API_test.cpp **** 
 137:test/Threads_CPP_API_test.cpp ****     threads[1] = new WorkerB();
 1187              		.loc 1 137 5 is_stmt 1
 1188              		.loc 1 137 30 is_stmt 0
 1189 0530 13050002 		li	a0,32
 1190 0534 97000000 		call	_Znwm
 1190      E7800000 
 1191              	.LVL134:
 1192              	.LEHE2:
 1193 053c 93040500 		mv	s1,a0
 1194              	.LVL135:
 1195              	.LEHB3:
 1196              	.LBB58:
 1197              	.LBB59:
  29:test/Threads_CPP_API_test.cpp **** 
 1198              		.loc 1 29 22
 1199 0540 97000000 		call	_ZN6ThreadC2Ev
 1199      E7800000 
 1200              	.LVL136:
 1201              	.LEHE3:
 1202 0548 97070000 		lla	a5,_ZTV7WorkerB+16
 1202      93870700 
 1203 0550 23B0F400 		sd	a5,0(s1)
 1204              	.LVL137:
 1205              	.LBE59:
 1206              	.LBE58:
 1207              		.loc 1 137 16
 1208 0554 233494FC 		sd	s1,-56(s0)
 138:test/Threads_CPP_API_test.cpp ****     printString("ThreadB created\n");
 1209              		.loc 1 138 5 is_stmt 1
 1210              		.loc 1 138 16 is_stmt 0
 1211 0558 17050000 		lla	a0,.LC14
 1211      13050500 
 1212              	.LEHB4:
 1213 0560 97000000 		call	_Z11printStringPKc
 1213      E7800000 
 1214              	.LVL138:
 139:test/Threads_CPP_API_test.cpp **** 
 140:test/Threads_CPP_API_test.cpp ****     threads[2] = new WorkerC();
 1215              		.loc 1 140 5 is_stmt 1
GAS LISTING /tmp/ccyhoPws.s 			page 27


 1216              		.loc 1 140 30 is_stmt 0
 1217 0568 13050002 		li	a0,32
 1218 056c 97000000 		call	_Znwm
 1218      E7800000 
 1219              	.LVL139:
 1220              	.LEHE4:
 1221 0574 93040500 		mv	s1,a0
 1222              	.LVL140:
 1223              	.LEHB5:
 1224              	.LBB60:
 1225              	.LBB61:
  39:test/Threads_CPP_API_test.cpp **** 
 1226              		.loc 1 39 22
 1227 0578 97000000 		call	_ZN6ThreadC2Ev
 1227      E7800000 
 1228              	.LVL141:
 1229              	.LEHE5:
 1230 0580 97070000 		lla	a5,_ZTV7WorkerC+16
 1230      93870700 
 1231 0588 23B0F400 		sd	a5,0(s1)
 1232              	.LVL142:
 1233              	.LBE61:
 1234              	.LBE60:
 1235              		.loc 1 140 16
 1236 058c 233894FC 		sd	s1,-48(s0)
 141:test/Threads_CPP_API_test.cpp ****     printString("ThreadC created\n");
 1237              		.loc 1 141 5 is_stmt 1
 1238              		.loc 1 141 16 is_stmt 0
 1239 0590 17050000 		lla	a0,.LC15
 1239      13050500 
 1240              	.LEHB6:
 1241 0598 97000000 		call	_Z11printStringPKc
 1241      E7800000 
 1242              	.LVL143:
 142:test/Threads_CPP_API_test.cpp **** 
 143:test/Threads_CPP_API_test.cpp ****     threads[3] = new WorkerD();
 1243              		.loc 1 143 5 is_stmt 1
 1244              		.loc 1 143 30 is_stmt 0
 1245 05a0 13050002 		li	a0,32
 1246 05a4 97000000 		call	_Znwm
 1246      E7800000 
 1247              	.LVL144:
 1248              	.LEHE6:
 1249 05ac 93040500 		mv	s1,a0
 1250              	.LVL145:
 1251              	.LEHB7:
 1252              	.LBB62:
 1253              	.LBB63:
  49:test/Threads_CPP_API_test.cpp **** 
 1254              		.loc 1 49 22
 1255 05b0 97000000 		call	_ZN6ThreadC2Ev
 1255      E7800000 
 1256              	.LVL146:
 1257              	.LEHE7:
 1258 05b8 97070000 		lla	a5,_ZTV7WorkerD+16
 1258      93870700 
 1259 05c0 23B0F400 		sd	a5,0(s1)
GAS LISTING /tmp/ccyhoPws.s 			page 28


 1260              	.LVL147:
 1261              	.LBE63:
 1262              	.LBE62:
 1263              		.loc 1 143 16
 1264 05c4 233C94FC 		sd	s1,-40(s0)
 144:test/Threads_CPP_API_test.cpp ****     printString("ThreadD created\n");
 1265              		.loc 1 144 5 is_stmt 1
 1266              		.loc 1 144 16 is_stmt 0
 1267 05c8 17050000 		lla	a0,.LC16
 1267      13050500 
 1268              	.LEHB8:
 1269 05d0 97000000 		call	_Z11printStringPKc
 1269      E7800000 
 1270              	.LVL148:
 1271              	.LBB64:
 145:test/Threads_CPP_API_test.cpp **** 
 146:test/Threads_CPP_API_test.cpp ****     for(int i=0; i<4; i++) {
 1272              		.loc 1 146 13
 1273 05d8 93040000 		li	s1,0
 1274              	.L64:
 1275              	.LVL149:
 1276              		.loc 1 146 19 discriminator 1
 1277 05dc 93073000 		li	a5,3
 1278 05e0 63C69702 		bgt	s1,a5,.L63
 147:test/Threads_CPP_API_test.cpp ****         threads[i]->start();
 1279              		.loc 1 147 9 is_stmt 1
 1280              		.loc 1 147 18 is_stmt 0
 1281 05e4 93973400 		slli	a5,s1,3
 1282 05e8 130704FE 		addi	a4,s0,-32
 1283 05ec B307F700 		add	a5,a4,a5
 1284              		.loc 1 147 26
 1285 05f0 03B507FE 		ld	a0,-32(a5)
 1286 05f4 97000000 		call	_ZN6Thread5startEv
 1286      E7800000 
 1287              	.LVL150:
 146:test/Threads_CPP_API_test.cpp ****         threads[i]->start();
 1288              		.loc 1 146 5
 1289 05fc 9B841400 		addiw	s1,s1,1
 1290              	.LVL151:
 1291 0600 6FF0DFFD 		j	.L64
 1292              	.LVL152:
 1293              	.L65:
 1294              	.LBE64:
 148:test/Threads_CPP_API_test.cpp ****     }
 149:test/Threads_CPP_API_test.cpp **** 
 150:test/Threads_CPP_API_test.cpp ****     while (!(finishedA && finishedB && finishedC && finishedD)) {
 151:test/Threads_CPP_API_test.cpp ****         Thread::dispatch();
 1295              		.loc 1 151 9 is_stmt 1
 1296              		.loc 1 151 25 is_stmt 0
 1297 0604 97000000 		call	_ZN6Thread8dispatchEv
 1297      E7800000 
 1298              	.LVL153:
 1299              	.L63:
 150:test/Threads_CPP_API_test.cpp ****         Thread::dispatch();
 1300              		.loc 1 150 5 is_stmt 1
 150:test/Threads_CPP_API_test.cpp ****         Thread::dispatch();
 1301              		.loc 1 150 24 is_stmt 0
GAS LISTING /tmp/ccyhoPws.s 			page 29


 1302 060c 97070000 		lla	a5,_ZL9finishedA
 1302      93870700 
 1303 0614 83C70700 		lbu	a5,0(a5)
 1304 0618 93F7F70F 		andi	a5,a5,0xff
 150:test/Threads_CPP_API_test.cpp ****         Thread::dispatch();
 1305              		.loc 1 150 12
 1306 061c E38407FE 		beqz	a5,.L65
 150:test/Threads_CPP_API_test.cpp ****         Thread::dispatch();
 1307              		.loc 1 150 24 discriminator 2
 1308 0620 97070000 		lla	a5,_ZL9finishedB
 1308      93870700 
 1309 0628 83C70700 		lbu	a5,0(a5)
 1310 062c 93F7F70F 		andi	a5,a5,0xff
 1311 0630 E38A07FC 		beqz	a5,.L65
 150:test/Threads_CPP_API_test.cpp ****         Thread::dispatch();
 1312              		.loc 1 150 37 discriminator 4
 1313 0634 97070000 		lla	a5,_ZL9finishedC
 1313      93870700 
 1314 063c 83C70700 		lbu	a5,0(a5)
 1315 0640 93F7F70F 		andi	a5,a5,0xff
 1316 0644 E38007FC 		beqz	a5,.L65
 150:test/Threads_CPP_API_test.cpp ****         Thread::dispatch();
 1317              		.loc 1 150 62 discriminator 6
 1318 0648 97070000 		lla	a5,_ZL9finishedD
 1318      93870700 
 1319 0650 83C70700 		lbu	a5,0(a5)
 1320 0654 93F7F70F 		andi	a5,a5,0xff
 150:test/Threads_CPP_API_test.cpp ****         Thread::dispatch();
 1321              		.loc 1 150 12 discriminator 6
 1322 0658 E38607FA 		beqz	a5,.L65
 1323              	.LBB65:
 152:test/Threads_CPP_API_test.cpp ****     }
 153:test/Threads_CPP_API_test.cpp **** 
 154:test/Threads_CPP_API_test.cpp ****     for (auto thread: threads) { delete thread; }
 1324              		.loc 1 154 23
 1325 065c 930404FC 		addi	s1,s0,-64
 1326              	.LVL154:
 1327 0660 6F008000 		j	.L66
 1328              	.LVL155:
 1329              	.L68:
 1330              		.loc 1 154 5 discriminator 5
 1331 0664 93848400 		addi	s1,s1,8
 1332              	.LVL156:
 1333              	.L66:
 1334              		.loc 1 154 23 discriminator 6
 1335 0668 930704FE 		addi	a5,s0,-32
 1336 066c 6386F408 		beq	s1,a5,.L62
 1337              		.loc 1 154 15 discriminator 2
 1338 0670 03B50400 		ld	a0,0(s1)
 1339              	.LVL157:
 1340              		.loc 1 154 34 is_stmt 1 discriminator 2
 1341              		.loc 1 154 47 is_stmt 0 discriminator 2
 1342 0674 E30805FE 		beqz	a0,.L68
 1343              		.loc 1 154 41 discriminator 3
 1344 0678 83370500 		ld	a5,0(a0)
 1345 067c 83B78700 		ld	a5,8(a5)
 1346 0680 E7800700 		jalr	a5
GAS LISTING /tmp/ccyhoPws.s 			page 30


 1347              	.LVL158:
 1348 0684 6FF01FFE 		j	.L68
 1349              	.LVL159:
 1350              	.L74:
 1351 0688 13090500 		mv	s2,a0
 1352              	.LBE65:
 134:test/Threads_CPP_API_test.cpp ****     printString("ThreadA created\n");
 1353              		.loc 1 134 30
 1354 068c 13850400 		mv	a0,s1
 1355 0690 97000000 		call	_ZdlPv
 1355      E7800000 
 1356              	.LVL160:
 1357 0698 13050900 		mv	a0,s2
 1358 069c 97000000 		call	_Unwind_Resume
 1358      E7800000 
 1359              	.LVL161:
 1360              	.L75:
 1361 06a4 13090500 		mv	s2,a0
 137:test/Threads_CPP_API_test.cpp ****     printString("ThreadB created\n");
 1362              		.loc 1 137 30
 1363 06a8 13850400 		mv	a0,s1
 1364 06ac 97000000 		call	_ZdlPv
 1364      E7800000 
 1365              	.LVL162:
 1366 06b4 13050900 		mv	a0,s2
 1367 06b8 97000000 		call	_Unwind_Resume
 1367      E7800000 
 1368              	.LVL163:
 1369              	.L76:
 1370 06c0 13090500 		mv	s2,a0
 140:test/Threads_CPP_API_test.cpp ****     printString("ThreadC created\n");
 1371              		.loc 1 140 30
 1372 06c4 13850400 		mv	a0,s1
 1373 06c8 97000000 		call	_ZdlPv
 1373      E7800000 
 1374              	.LVL164:
 1375 06d0 13050900 		mv	a0,s2
 1376 06d4 97000000 		call	_Unwind_Resume
 1376      E7800000 
 1377              	.LVL165:
 1378              	.L77:
 1379 06dc 13090500 		mv	s2,a0
 143:test/Threads_CPP_API_test.cpp ****     printString("ThreadD created\n");
 1380              		.loc 1 143 30
 1381 06e0 13850400 		mv	a0,s1
 1382 06e4 97000000 		call	_ZdlPv
 1382      E7800000 
 1383              	.LVL166:
 1384 06ec 13050900 		mv	a0,s2
 1385 06f0 97000000 		call	_Unwind_Resume
 1385      E7800000 
 1386              	.LVL167:
 1387              	.LEHE8:
 1388              	.L62:
 155:test/Threads_CPP_API_test.cpp **** }
 1389              		.loc 1 155 1
 1390 06f8 83308103 		ld	ra,56(sp)
GAS LISTING /tmp/ccyhoPws.s 			page 31


 1391              		.cfi_restore 1
 1392 06fc 03340103 		ld	s0,48(sp)
 1393              		.cfi_restore 8
 1394 0700 83348102 		ld	s1,40(sp)
 1395              		.cfi_restore 9
 1396              	.LVL168:
 1397 0704 03390102 		ld	s2,32(sp)
 1398              		.cfi_restore 18
 1399 0708 13010104 		addi	sp,sp,64
 1400              		.cfi_def_cfa_register 2
 1401 070c 67800000 		jr	ra
 1402              		.cfi_endproc
 1403              	.LFE56:
 1404              		.globl	__gxx_personality_v0
 1405              		.section	.gcc_except_table,"a",@progbits
 1406              	.LLSDA56:
 1407 0000 FF       		.byte	0xff
 1408 0001 FF       		.byte	0xff
 1409 0002 03       		.byte	0x3
 1410 0003 75       		.byte	0x75
 1411 0004 00000000 		.4byte	.LEHB0-.LFB56
 1412 0008 00000000 		.4byte	.LEHE0-.LEHB0
 1413 000c 00000000 		.4byte	0
 1414 0010 00       		.byte	0
 1415 0011 00000000 		.4byte	.LEHB1-.LFB56
 1416 0015 00000000 		.4byte	.LEHE1-.LEHB1
 1417 0019 00000000 		.4byte	.L74-.LFB56
 1418 001d 00       		.byte	0
 1419 001e 00000000 		.4byte	.LEHB2-.LFB56
 1420 0022 00000000 		.4byte	.LEHE2-.LEHB2
 1421 0026 00000000 		.4byte	0
 1422 002a 00       		.byte	0
 1423 002b 00000000 		.4byte	.LEHB3-.LFB56
 1424 002f 00000000 		.4byte	.LEHE3-.LEHB3
 1425 0033 00000000 		.4byte	.L75-.LFB56
 1426 0037 00       		.byte	0
 1427 0038 00000000 		.4byte	.LEHB4-.LFB56
 1428 003c 00000000 		.4byte	.LEHE4-.LEHB4
 1429 0040 00000000 		.4byte	0
 1430 0044 00       		.byte	0
 1431 0045 00000000 		.4byte	.LEHB5-.LFB56
 1432 0049 00000000 		.4byte	.LEHE5-.LEHB5
 1433 004d 00000000 		.4byte	.L76-.LFB56
 1434 0051 00       		.byte	0
 1435 0052 00000000 		.4byte	.LEHB6-.LFB56
 1436 0056 00000000 		.4byte	.LEHE6-.LEHB6
 1437 005a 00000000 		.4byte	0
 1438 005e 00       		.byte	0
 1439 005f 00000000 		.4byte	.LEHB7-.LFB56
 1440 0063 00000000 		.4byte	.LEHE7-.LEHB7
 1441 0067 00000000 		.4byte	.L77-.LFB56
 1442 006b 00       		.byte	0
 1443 006c 00000000 		.4byte	.LEHB8-.LFB56
 1444 0070 00000000 		.4byte	.LEHE8-.LEHB8
 1445 0074 00000000 		.4byte	0
 1446 0078 00       		.byte	0
 1447              		.text
GAS LISTING /tmp/ccyhoPws.s 			page 32


 1449              		.weak	_ZTV7WorkerA
 1450              		.section	.rodata._ZTV7WorkerA,"aG",@progbits,_ZTV7WorkerA,comdat
 1451              		.align	3
 1454              	_ZTV7WorkerA:
 1455 0000 00000000 		.dword	0
 1455      00000000 
 1456 0008 00000000 		.dword	0
 1456      00000000 
 1457 0010 00000000 		.dword	_ZN7WorkerAD1Ev
 1457      00000000 
 1458 0018 00000000 		.dword	_ZN7WorkerAD0Ev
 1458      00000000 
 1459 0020 00000000 		.dword	_ZN7WorkerA3runEv
 1459      00000000 
 1460              		.weak	_ZTV7WorkerB
 1461              		.section	.rodata._ZTV7WorkerB,"aG",@progbits,_ZTV7WorkerB,comdat
 1462              		.align	3
 1465              	_ZTV7WorkerB:
 1466 0000 00000000 		.dword	0
 1466      00000000 
 1467 0008 00000000 		.dword	0
 1467      00000000 
 1468 0010 00000000 		.dword	_ZN7WorkerBD1Ev
 1468      00000000 
 1469 0018 00000000 		.dword	_ZN7WorkerBD0Ev
 1469      00000000 
 1470 0020 00000000 		.dword	_ZN7WorkerB3runEv
 1470      00000000 
 1471              		.weak	_ZTV7WorkerC
 1472              		.section	.rodata._ZTV7WorkerC,"aG",@progbits,_ZTV7WorkerC,comdat
 1473              		.align	3
 1476              	_ZTV7WorkerC:
 1477 0000 00000000 		.dword	0
 1477      00000000 
 1478 0008 00000000 		.dword	0
 1478      00000000 
 1479 0010 00000000 		.dword	_ZN7WorkerCD1Ev
 1479      00000000 
 1480 0018 00000000 		.dword	_ZN7WorkerCD0Ev
 1480      00000000 
 1481 0020 00000000 		.dword	_ZN7WorkerC3runEv
 1481      00000000 
 1482              		.weak	_ZTV7WorkerD
 1483              		.section	.rodata._ZTV7WorkerD,"aG",@progbits,_ZTV7WorkerD,comdat
 1484              		.align	3
 1487              	_ZTV7WorkerD:
 1488 0000 00000000 		.dword	0
 1488      00000000 
 1489 0008 00000000 		.dword	0
 1489      00000000 
 1490 0010 00000000 		.dword	_ZN7WorkerDD1Ev
 1490      00000000 
 1491 0018 00000000 		.dword	_ZN7WorkerDD0Ev
 1491      00000000 
 1492 0020 00000000 		.dword	_ZN7WorkerD3runEv
 1492      00000000 
 1493              		.section	.rodata.str1.8,"aMS",@progbits,1
GAS LISTING /tmp/ccyhoPws.s 			page 33


 1494              		.align	3
 1495              	.LC0:
 1496 0000 413A2069 		.string	"A: i="
 1496      3D00
 1497 0006 0000     		.zero	2
 1498              	.LC1:
 1499 0008 0A00     		.string	"\n"
 1500 000a 00000000 		.zero	6
 1500      0000
 1501              	.LC2:
 1502 0010 41206669 		.string	"A finished!\n"
 1502      6E697368 
 1502      6564210A 
 1502      00
 1503 001d 000000   		.zero	3
 1504              	.LC3:
 1505 0020 423A2069 		.string	"B: i="
 1505      3D00
 1506 0026 0000     		.zero	2
 1507              	.LC4:
 1508 0028 42206669 		.string	"B finished!\n"
 1508      6E697368 
 1508      6564210A 
 1508      00
 1509 0035 000000   		.zero	3
 1510              	.LC5:
 1511 0038 433A2069 		.string	"C: i="
 1511      3D00
 1512 003e 0000     		.zero	2
 1513              	.LC6:
 1514 0040 433A2064 		.string	"C: dispatch\n"
 1514      69737061 
 1514      7463680A 
 1514      00
 1515 004d 000000   		.zero	3
 1516              	.LC7:
 1517 0050 433A2074 		.string	"C: t1="
 1517      313D00
 1518 0057 00       		.zero	1
 1519              	.LC8:
 1520 0058 433A2066 		.string	"C: fibonaci="
 1520      69626F6E 
 1520      6163693D 
 1520      00
 1521 0065 000000   		.zero	3
 1522              	.LC9:
 1523 0068 443A2069 		.string	"D: i="
 1523      3D00
 1524 006e 0000     		.zero	2
 1525              	.LC10:
 1526 0070 443A2064 		.string	"D: dispatch\n"
 1526      69737061 
 1526      7463680A 
 1526      00
 1527 007d 000000   		.zero	3
 1528              	.LC11:
 1529 0080 443A2066 		.string	"D: fibonaci="
GAS LISTING /tmp/ccyhoPws.s 			page 34


 1529      69626F6E 
 1529      6163693D 
 1529      00
 1530 008d 000000   		.zero	3
 1531              	.LC12:
 1532 0090 44206669 		.string	"D finished!\n"
 1532      6E697368 
 1532      6564210A 
 1532      00
 1533 009d 000000   		.zero	3
 1534              	.LC13:
 1535 00a0 54687265 		.string	"ThreadA created\n"
 1535      61644120 
 1535      63726561 
 1535      7465640A 
 1535      00
 1536 00b1 00000000 		.zero	7
 1536      000000
 1537              	.LC14:
 1538 00b8 54687265 		.string	"ThreadB created\n"
 1538      61644220 
 1538      63726561 
 1538      7465640A 
 1538      00
 1539 00c9 00000000 		.zero	7
 1539      000000
 1540              	.LC15:
 1541 00d0 54687265 		.string	"ThreadC created\n"
 1541      61644320 
 1541      63726561 
 1541      7465640A 
 1541      00
 1542 00e1 00000000 		.zero	7
 1542      000000
 1543              	.LC16:
 1544 00e8 54687265 		.string	"ThreadD created\n"
 1544      61644420 
 1544      63726561 
 1544      7465640A 
 1544      00
 1545              		.section	.sbss,"aw",@nobits
 1548              	_ZL9finishedD:
 1549 0000 00       		.zero	1
 1552              	_ZL9finishedC:
 1553 0001 00       		.zero	1
 1556              	_ZL9finishedB:
 1557 0002 00       		.zero	1
 1560              	_ZL9finishedA:
 1561 0003 00       		.zero	1
 1562              		.text
 1563              	.Letext0:
 1564              		.file 2 "test/../h/../lib/hw.h"
 1565              		.file 3 "test/../h/syscall_cpp.hpp"
 1566              		.file 4 "test/../h/syscall_c.hpp"
 1567              		.file 5 "test/printing.hpp"
 5419              		.align	3
 5422              	DW.ref.__gxx_personality_v0:
GAS LISTING /tmp/ccyhoPws.s 			page 35


 5423 0000 00000000 		.dword	__gxx_personality_v0
 5423      00000000 
 5424              		.ident	"GCC: (GNU) 8.3.0"
GAS LISTING /tmp/ccyhoPws.s 			page 36


DEFINED SYMBOLS
                            *ABS*:0000000000000000 Threads_CPP_API_test.cpp
     /tmp/ccyhoPws.s:8      .text:0000000000000000 _ZL9fibonaccim
     /tmp/ccyhoPws.s:12     .text:0000000000000000 .L0 
     /tmp/ccyhoPws.s:14     .text:0000000000000000 .L0 
     /tmp/ccyhoPws.s:15     .text:0000000000000000 .L0 
     /tmp/ccyhoPws.s:18     .text:0000000000000008 .L0 
     /tmp/ccyhoPws.s:19     .text:000000000000000c .L0 
     /tmp/ccyhoPws.s:24     .text:000000000000001c .L0 
     /tmp/ccyhoPws.s:25     .text:000000000000001c .L0 
     /tmp/ccyhoPws.s:26     .text:000000000000001c .L0 
     /tmp/ccyhoPws.s:27     .text:000000000000001c .L0 
     /tmp/ccyhoPws.s:29     .text:0000000000000020 .L0 
     /tmp/ccyhoPws.s:32     .text:0000000000000024 .L0 
     /tmp/ccyhoPws.s:33     .text:0000000000000024 .L0 
     /tmp/ccyhoPws.s:36     .text:000000000000002c .L0 
     /tmp/ccyhoPws.s:40     .text:0000000000000030 .L0 
     /tmp/ccyhoPws.s:41     .text:0000000000000030 .L0 
     /tmp/ccyhoPws.s:46     .text:0000000000000040 .L0 
     /tmp/ccyhoPws.s:50     .text:000000000000004c .L0 
     /tmp/ccyhoPws.s:52     .text:0000000000000050 .L0 
     /tmp/ccyhoPws.s:53     .text:0000000000000054 .L0 
     /tmp/ccyhoPws.s:54     .text:0000000000000054 .L0 
     /tmp/ccyhoPws.s:56     .text:0000000000000058 .L0 
     /tmp/ccyhoPws.s:58     .text:000000000000005c .L0 
     /tmp/ccyhoPws.s:61     .text:0000000000000060 .L0 
     /tmp/ccyhoPws.s:63     .text:0000000000000064 .L0 
     /tmp/ccyhoPws.s:67     .text:0000000000000068 .L0 
     /tmp/ccyhoPws.s:69     .text:0000000000000068 .L0 
     /tmp/ccyhoPws.s:70     .text:0000000000000068 .L0 
     /tmp/ccyhoPws.s:75     .text:0000000000000074 .L0 
     /tmp/ccyhoPws.s:76     .text:0000000000000074 .L0 
     /tmp/ccyhoPws.s:77     .text:0000000000000074 .L0 
     /tmp/ccyhoPws.s:78     .text:0000000000000074 .L0 
     /tmp/ccyhoPws.s:79     .text:0000000000000074 .L0 
     /tmp/ccyhoPws.s:81     .text:0000000000000074 .L0 
     /tmp/ccyhoPws.s:82     .text:0000000000000078 .L0 
     /tmp/ccyhoPws.s:89     .text._ZN7WorkerAD2Ev:0000000000000000 _ZN7WorkerAD2Ev
     /tmp/ccyhoPws.s:92     .text._ZN7WorkerAD2Ev:0000000000000000 .L0 
     /tmp/ccyhoPws.s:94     .text._ZN7WorkerAD2Ev:0000000000000000 .L0 
     /tmp/ccyhoPws.s:95     .text._ZN7WorkerAD2Ev:0000000000000004 .L0 
     /tmp/ccyhoPws.s:98     .text._ZN7WorkerAD2Ev:000000000000000c .L0 
     /tmp/ccyhoPws.s:99     .text._ZN7WorkerAD2Ev:000000000000000c .L0 
     /tmp/ccyhoPws.s:101    .text._ZN7WorkerAD2Ev:0000000000000010 .L0 
     /tmp/ccyhoPws.s:1454   .rodata._ZTV7WorkerA:0000000000000000 _ZTV7WorkerA
     /tmp/ccyhoPws.s:104    .text._ZN7WorkerAD2Ev:0000000000000010 .L0 
     /tmp/ccyhoPws.s:110    .text._ZN7WorkerAD2Ev:0000000000000028 .L0 
     /tmp/ccyhoPws.s:112    .text._ZN7WorkerAD2Ev:000000000000002c .L0 
     /tmp/ccyhoPws.s:114    .text._ZN7WorkerAD2Ev:0000000000000030 .L0 
     /tmp/ccyhoPws.s:116    .text._ZN7WorkerAD2Ev:0000000000000034 .L0 
     /tmp/ccyhoPws.s:89     .text._ZN7WorkerAD2Ev:0000000000000000 _ZN7WorkerAD1Ev
     /tmp/ccyhoPws.s:125    .text._ZN7WorkerAD0Ev:0000000000000000 _ZN7WorkerAD0Ev
     /tmp/ccyhoPws.s:128    .text._ZN7WorkerAD0Ev:0000000000000000 .L0 
     /tmp/ccyhoPws.s:130    .text._ZN7WorkerAD0Ev:0000000000000000 .L0 
     /tmp/ccyhoPws.s:131    .text._ZN7WorkerAD0Ev:0000000000000004 .L0 
     /tmp/ccyhoPws.s:135    .text._ZN7WorkerAD0Ev:0000000000000010 .L0 
     /tmp/ccyhoPws.s:136    .text._ZN7WorkerAD0Ev:0000000000000010 .L0 
GAS LISTING /tmp/ccyhoPws.s 			page 37


     /tmp/ccyhoPws.s:137    .text._ZN7WorkerAD0Ev:0000000000000010 .L0 
     /tmp/ccyhoPws.s:139    .text._ZN7WorkerAD0Ev:0000000000000014 .L0 
     /tmp/ccyhoPws.s:145    .text._ZN7WorkerAD0Ev:0000000000000018 .L0 
     /tmp/ccyhoPws.s:155    .text._ZN7WorkerAD0Ev:000000000000003c .L0 
     /tmp/ccyhoPws.s:157    .text._ZN7WorkerAD0Ev:0000000000000040 .L0 
     /tmp/ccyhoPws.s:159    .text._ZN7WorkerAD0Ev:0000000000000044 .L0 
     /tmp/ccyhoPws.s:162    .text._ZN7WorkerAD0Ev:0000000000000048 .L0 
     /tmp/ccyhoPws.s:164    .text._ZN7WorkerAD0Ev:000000000000004c .L0 
     /tmp/ccyhoPws.s:171    .text._ZN7WorkerBD2Ev:0000000000000000 _ZN7WorkerBD2Ev
     /tmp/ccyhoPws.s:174    .text._ZN7WorkerBD2Ev:0000000000000000 .L0 
     /tmp/ccyhoPws.s:176    .text._ZN7WorkerBD2Ev:0000000000000000 .L0 
     /tmp/ccyhoPws.s:177    .text._ZN7WorkerBD2Ev:0000000000000004 .L0 
     /tmp/ccyhoPws.s:180    .text._ZN7WorkerBD2Ev:000000000000000c .L0 
     /tmp/ccyhoPws.s:181    .text._ZN7WorkerBD2Ev:000000000000000c .L0 
     /tmp/ccyhoPws.s:183    .text._ZN7WorkerBD2Ev:0000000000000010 .L0 
     /tmp/ccyhoPws.s:1465   .rodata._ZTV7WorkerB:0000000000000000 _ZTV7WorkerB
     /tmp/ccyhoPws.s:186    .text._ZN7WorkerBD2Ev:0000000000000010 .L0 
     /tmp/ccyhoPws.s:192    .text._ZN7WorkerBD2Ev:0000000000000028 .L0 
     /tmp/ccyhoPws.s:194    .text._ZN7WorkerBD2Ev:000000000000002c .L0 
     /tmp/ccyhoPws.s:196    .text._ZN7WorkerBD2Ev:0000000000000030 .L0 
     /tmp/ccyhoPws.s:198    .text._ZN7WorkerBD2Ev:0000000000000034 .L0 
     /tmp/ccyhoPws.s:171    .text._ZN7WorkerBD2Ev:0000000000000000 _ZN7WorkerBD1Ev
     /tmp/ccyhoPws.s:207    .text._ZN7WorkerBD0Ev:0000000000000000 _ZN7WorkerBD0Ev
     /tmp/ccyhoPws.s:210    .text._ZN7WorkerBD0Ev:0000000000000000 .L0 
     /tmp/ccyhoPws.s:212    .text._ZN7WorkerBD0Ev:0000000000000000 .L0 
     /tmp/ccyhoPws.s:213    .text._ZN7WorkerBD0Ev:0000000000000004 .L0 
     /tmp/ccyhoPws.s:217    .text._ZN7WorkerBD0Ev:0000000000000010 .L0 
     /tmp/ccyhoPws.s:218    .text._ZN7WorkerBD0Ev:0000000000000010 .L0 
     /tmp/ccyhoPws.s:219    .text._ZN7WorkerBD0Ev:0000000000000010 .L0 
     /tmp/ccyhoPws.s:221    .text._ZN7WorkerBD0Ev:0000000000000014 .L0 
     /tmp/ccyhoPws.s:227    .text._ZN7WorkerBD0Ev:0000000000000018 .L0 
     /tmp/ccyhoPws.s:237    .text._ZN7WorkerBD0Ev:000000000000003c .L0 
     /tmp/ccyhoPws.s:239    .text._ZN7WorkerBD0Ev:0000000000000040 .L0 
     /tmp/ccyhoPws.s:241    .text._ZN7WorkerBD0Ev:0000000000000044 .L0 
     /tmp/ccyhoPws.s:244    .text._ZN7WorkerBD0Ev:0000000000000048 .L0 
     /tmp/ccyhoPws.s:246    .text._ZN7WorkerBD0Ev:000000000000004c .L0 
     /tmp/ccyhoPws.s:253    .text._ZN7WorkerCD2Ev:0000000000000000 _ZN7WorkerCD2Ev
     /tmp/ccyhoPws.s:256    .text._ZN7WorkerCD2Ev:0000000000000000 .L0 
     /tmp/ccyhoPws.s:258    .text._ZN7WorkerCD2Ev:0000000000000000 .L0 
     /tmp/ccyhoPws.s:259    .text._ZN7WorkerCD2Ev:0000000000000004 .L0 
     /tmp/ccyhoPws.s:262    .text._ZN7WorkerCD2Ev:000000000000000c .L0 
     /tmp/ccyhoPws.s:263    .text._ZN7WorkerCD2Ev:000000000000000c .L0 
     /tmp/ccyhoPws.s:265    .text._ZN7WorkerCD2Ev:0000000000000010 .L0 
     /tmp/ccyhoPws.s:1476   .rodata._ZTV7WorkerC:0000000000000000 _ZTV7WorkerC
     /tmp/ccyhoPws.s:268    .text._ZN7WorkerCD2Ev:0000000000000010 .L0 
     /tmp/ccyhoPws.s:274    .text._ZN7WorkerCD2Ev:0000000000000028 .L0 
     /tmp/ccyhoPws.s:276    .text._ZN7WorkerCD2Ev:000000000000002c .L0 
     /tmp/ccyhoPws.s:278    .text._ZN7WorkerCD2Ev:0000000000000030 .L0 
     /tmp/ccyhoPws.s:280    .text._ZN7WorkerCD2Ev:0000000000000034 .L0 
     /tmp/ccyhoPws.s:253    .text._ZN7WorkerCD2Ev:0000000000000000 _ZN7WorkerCD1Ev
     /tmp/ccyhoPws.s:289    .text._ZN7WorkerCD0Ev:0000000000000000 _ZN7WorkerCD0Ev
     /tmp/ccyhoPws.s:292    .text._ZN7WorkerCD0Ev:0000000000000000 .L0 
     /tmp/ccyhoPws.s:294    .text._ZN7WorkerCD0Ev:0000000000000000 .L0 
     /tmp/ccyhoPws.s:295    .text._ZN7WorkerCD0Ev:0000000000000004 .L0 
     /tmp/ccyhoPws.s:299    .text._ZN7WorkerCD0Ev:0000000000000010 .L0 
     /tmp/ccyhoPws.s:300    .text._ZN7WorkerCD0Ev:0000000000000010 .L0 
     /tmp/ccyhoPws.s:301    .text._ZN7WorkerCD0Ev:0000000000000010 .L0 
GAS LISTING /tmp/ccyhoPws.s 			page 38


     /tmp/ccyhoPws.s:303    .text._ZN7WorkerCD0Ev:0000000000000014 .L0 
     /tmp/ccyhoPws.s:309    .text._ZN7WorkerCD0Ev:0000000000000018 .L0 
     /tmp/ccyhoPws.s:319    .text._ZN7WorkerCD0Ev:000000000000003c .L0 
     /tmp/ccyhoPws.s:321    .text._ZN7WorkerCD0Ev:0000000000000040 .L0 
     /tmp/ccyhoPws.s:323    .text._ZN7WorkerCD0Ev:0000000000000044 .L0 
     /tmp/ccyhoPws.s:326    .text._ZN7WorkerCD0Ev:0000000000000048 .L0 
     /tmp/ccyhoPws.s:328    .text._ZN7WorkerCD0Ev:000000000000004c .L0 
     /tmp/ccyhoPws.s:335    .text._ZN7WorkerDD2Ev:0000000000000000 _ZN7WorkerDD2Ev
     /tmp/ccyhoPws.s:338    .text._ZN7WorkerDD2Ev:0000000000000000 .L0 
     /tmp/ccyhoPws.s:340    .text._ZN7WorkerDD2Ev:0000000000000000 .L0 
     /tmp/ccyhoPws.s:341    .text._ZN7WorkerDD2Ev:0000000000000004 .L0 
     /tmp/ccyhoPws.s:344    .text._ZN7WorkerDD2Ev:000000000000000c .L0 
     /tmp/ccyhoPws.s:345    .text._ZN7WorkerDD2Ev:000000000000000c .L0 
     /tmp/ccyhoPws.s:347    .text._ZN7WorkerDD2Ev:0000000000000010 .L0 
     /tmp/ccyhoPws.s:1487   .rodata._ZTV7WorkerD:0000000000000000 _ZTV7WorkerD
     /tmp/ccyhoPws.s:350    .text._ZN7WorkerDD2Ev:0000000000000010 .L0 
     /tmp/ccyhoPws.s:356    .text._ZN7WorkerDD2Ev:0000000000000028 .L0 
     /tmp/ccyhoPws.s:358    .text._ZN7WorkerDD2Ev:000000000000002c .L0 
     /tmp/ccyhoPws.s:360    .text._ZN7WorkerDD2Ev:0000000000000030 .L0 
     /tmp/ccyhoPws.s:362    .text._ZN7WorkerDD2Ev:0000000000000034 .L0 
     /tmp/ccyhoPws.s:335    .text._ZN7WorkerDD2Ev:0000000000000000 _ZN7WorkerDD1Ev
     /tmp/ccyhoPws.s:371    .text._ZN7WorkerDD0Ev:0000000000000000 _ZN7WorkerDD0Ev
     /tmp/ccyhoPws.s:374    .text._ZN7WorkerDD0Ev:0000000000000000 .L0 
     /tmp/ccyhoPws.s:376    .text._ZN7WorkerDD0Ev:0000000000000000 .L0 
     /tmp/ccyhoPws.s:377    .text._ZN7WorkerDD0Ev:0000000000000004 .L0 
     /tmp/ccyhoPws.s:381    .text._ZN7WorkerDD0Ev:0000000000000010 .L0 
     /tmp/ccyhoPws.s:382    .text._ZN7WorkerDD0Ev:0000000000000010 .L0 
     /tmp/ccyhoPws.s:383    .text._ZN7WorkerDD0Ev:0000000000000010 .L0 
     /tmp/ccyhoPws.s:385    .text._ZN7WorkerDD0Ev:0000000000000014 .L0 
     /tmp/ccyhoPws.s:391    .text._ZN7WorkerDD0Ev:0000000000000018 .L0 
     /tmp/ccyhoPws.s:401    .text._ZN7WorkerDD0Ev:000000000000003c .L0 
     /tmp/ccyhoPws.s:403    .text._ZN7WorkerDD0Ev:0000000000000040 .L0 
     /tmp/ccyhoPws.s:405    .text._ZN7WorkerDD0Ev:0000000000000044 .L0 
     /tmp/ccyhoPws.s:408    .text._ZN7WorkerDD0Ev:0000000000000048 .L0 
     /tmp/ccyhoPws.s:410    .text._ZN7WorkerDD0Ev:000000000000004c .L0 
     /tmp/ccyhoPws.s:417    .text:0000000000000078 _ZN7WorkerA11workerBodyAEPv
     /tmp/ccyhoPws.s:420    .text:0000000000000078 .L0 
     /tmp/ccyhoPws.s:422    .text:0000000000000078 .L0 
     /tmp/ccyhoPws.s:423    .text:000000000000007c .L0 
     /tmp/ccyhoPws.s:428    .text:000000000000008c .L0 
     /tmp/ccyhoPws.s:429    .text:000000000000008c .L0 
     /tmp/ccyhoPws.s:430    .text:000000000000008c .L0 
     /tmp/ccyhoPws.s:431    .text:000000000000008c .L0 
     /tmp/ccyhoPws.s:433    .text:0000000000000090 .L0 
     /tmp/ccyhoPws.s:437    .text:0000000000000090 .L0 
     /tmp/ccyhoPws.s:438    .text:0000000000000090 .L0 
     /tmp/ccyhoPws.s:446    .text:0000000000000098 .L0 
     /tmp/ccyhoPws.s:447    .text:0000000000000098 .L0 
     /tmp/ccyhoPws.s:451    .text:00000000000000a0 .L0 
     /tmp/ccyhoPws.s:455    .text:00000000000000a4 .L0 
     /tmp/ccyhoPws.s:461    .text:00000000000000b0 .L0 
     /tmp/ccyhoPws.s:465    .text:00000000000000b4 .L0 
     /tmp/ccyhoPws.s:469    .text:00000000000000c0 .L0 
     /tmp/ccyhoPws.s:479    .text:00000000000000c8 .L0 
     /tmp/ccyhoPws.s:483    .text:00000000000000cc .L0 
     /tmp/ccyhoPws.s:487    .text:00000000000000d4 .L0 
     /tmp/ccyhoPws.s:488    .text:00000000000000d4 .L0 
GAS LISTING /tmp/ccyhoPws.s 			page 39


     /tmp/ccyhoPws.s:492    .text:00000000000000e4 .L0 
     /tmp/ccyhoPws.s:493    .text:00000000000000e4 .L0 
     /tmp/ccyhoPws.s:499    .text:00000000000000f8 .L0 
     /tmp/ccyhoPws.s:500    .text:00000000000000f8 .L0 
     /tmp/ccyhoPws.s:505    .text:0000000000000108 .L0 
     /tmp/ccyhoPws.s:506    .text:0000000000000108 .L0 
     /tmp/ccyhoPws.s:514    .text:0000000000000110 .L0 
     /tmp/ccyhoPws.s:515    .text:0000000000000110 .L0 
     /tmp/ccyhoPws.s:519    .text:0000000000000120 .L0 
     /tmp/ccyhoPws.s:520    .text:0000000000000120 .L0 
     /tmp/ccyhoPws.s:1560   .sbss:0000000000000003 _ZL9finishedA
     /tmp/ccyhoPws.s:523    .text:000000000000012c .L0 
     /tmp/ccyhoPws.s:524    .text:0000000000000130 .L0 
     /tmp/ccyhoPws.s:526    .text:0000000000000134 .L0 
     /tmp/ccyhoPws.s:528    .text:0000000000000138 .L0 
     /tmp/ccyhoPws.s:530    .text:000000000000013c .L0 
     /tmp/ccyhoPws.s:533    .text:0000000000000140 .L0 
     /tmp/ccyhoPws.s:535    .text:0000000000000144 .L0 
     /tmp/ccyhoPws.s:542    .text._ZN7WorkerA3runEv:0000000000000000 _ZN7WorkerA3runEv
     /tmp/ccyhoPws.s:545    .text._ZN7WorkerA3runEv:0000000000000000 .L0 
     /tmp/ccyhoPws.s:547    .text._ZN7WorkerA3runEv:0000000000000000 .L0 
     /tmp/ccyhoPws.s:548    .text._ZN7WorkerA3runEv:0000000000000004 .L0 
     /tmp/ccyhoPws.s:551    .text._ZN7WorkerA3runEv:000000000000000c .L0 
     /tmp/ccyhoPws.s:552    .text._ZN7WorkerA3runEv:000000000000000c .L0 
     /tmp/ccyhoPws.s:554    .text._ZN7WorkerA3runEv:0000000000000010 .L0 
     /tmp/ccyhoPws.s:556    .text._ZN7WorkerA3runEv:0000000000000010 .L0 
     /tmp/ccyhoPws.s:557    .text._ZN7WorkerA3runEv:0000000000000010 .L0 
     /tmp/ccyhoPws.s:561    .text._ZN7WorkerA3runEv:000000000000001c .L0 
     /tmp/ccyhoPws.s:562    .text._ZN7WorkerA3runEv:0000000000000020 .L0 
     /tmp/ccyhoPws.s:564    .text._ZN7WorkerA3runEv:0000000000000024 .L0 
     /tmp/ccyhoPws.s:566    .text._ZN7WorkerA3runEv:0000000000000028 .L0 
     /tmp/ccyhoPws.s:568    .text._ZN7WorkerA3runEv:000000000000002c .L0 
     /tmp/ccyhoPws.s:575    .text:0000000000000144 _ZN7WorkerB11workerBodyBEPv
     /tmp/ccyhoPws.s:578    .text:0000000000000144 .L0 
     /tmp/ccyhoPws.s:580    .text:0000000000000144 .L0 
     /tmp/ccyhoPws.s:581    .text:0000000000000148 .L0 
     /tmp/ccyhoPws.s:586    .text:0000000000000158 .L0 
     /tmp/ccyhoPws.s:587    .text:0000000000000158 .L0 
     /tmp/ccyhoPws.s:588    .text:0000000000000158 .L0 
     /tmp/ccyhoPws.s:589    .text:0000000000000158 .L0 
     /tmp/ccyhoPws.s:591    .text:000000000000015c .L0 
     /tmp/ccyhoPws.s:595    .text:000000000000015c .L0 
     /tmp/ccyhoPws.s:596    .text:000000000000015c .L0 
     /tmp/ccyhoPws.s:604    .text:0000000000000164 .L0 
     /tmp/ccyhoPws.s:605    .text:0000000000000164 .L0 
     /tmp/ccyhoPws.s:609    .text:000000000000016c .L0 
     /tmp/ccyhoPws.s:613    .text:0000000000000170 .L0 
     /tmp/ccyhoPws.s:619    .text:000000000000017c .L0 
     /tmp/ccyhoPws.s:623    .text:0000000000000180 .L0 
     /tmp/ccyhoPws.s:627    .text:000000000000018c .L0 
     /tmp/ccyhoPws.s:637    .text:0000000000000194 .L0 
     /tmp/ccyhoPws.s:641    .text:0000000000000198 .L0 
     /tmp/ccyhoPws.s:645    .text:00000000000001a0 .L0 
     /tmp/ccyhoPws.s:646    .text:00000000000001a0 .L0 
     /tmp/ccyhoPws.s:650    .text:00000000000001b0 .L0 
     /tmp/ccyhoPws.s:651    .text:00000000000001b0 .L0 
     /tmp/ccyhoPws.s:657    .text:00000000000001c4 .L0 
GAS LISTING /tmp/ccyhoPws.s 			page 40


     /tmp/ccyhoPws.s:658    .text:00000000000001c4 .L0 
     /tmp/ccyhoPws.s:663    .text:00000000000001d4 .L0 
     /tmp/ccyhoPws.s:664    .text:00000000000001d4 .L0 
     /tmp/ccyhoPws.s:672    .text:00000000000001dc .L0 
     /tmp/ccyhoPws.s:673    .text:00000000000001dc .L0 
     /tmp/ccyhoPws.s:677    .text:00000000000001ec .L0 
     /tmp/ccyhoPws.s:678    .text:00000000000001ec .L0 
     /tmp/ccyhoPws.s:1556   .sbss:0000000000000002 _ZL9finishedB
     /tmp/ccyhoPws.s:681    .text:00000000000001f8 .L0 
     /tmp/ccyhoPws.s:682    .text:00000000000001f8 .L0 
     /tmp/ccyhoPws.s:685    .text:0000000000000200 .L0 
     /tmp/ccyhoPws.s:686    .text:0000000000000204 .L0 
     /tmp/ccyhoPws.s:688    .text:0000000000000208 .L0 
     /tmp/ccyhoPws.s:690    .text:000000000000020c .L0 
     /tmp/ccyhoPws.s:692    .text:0000000000000210 .L0 
     /tmp/ccyhoPws.s:695    .text:0000000000000214 .L0 
     /tmp/ccyhoPws.s:697    .text:0000000000000218 .L0 
     /tmp/ccyhoPws.s:704    .text._ZN7WorkerB3runEv:0000000000000000 _ZN7WorkerB3runEv
     /tmp/ccyhoPws.s:707    .text._ZN7WorkerB3runEv:0000000000000000 .L0 
     /tmp/ccyhoPws.s:709    .text._ZN7WorkerB3runEv:0000000000000000 .L0 
     /tmp/ccyhoPws.s:710    .text._ZN7WorkerB3runEv:0000000000000004 .L0 
     /tmp/ccyhoPws.s:713    .text._ZN7WorkerB3runEv:000000000000000c .L0 
     /tmp/ccyhoPws.s:714    .text._ZN7WorkerB3runEv:000000000000000c .L0 
     /tmp/ccyhoPws.s:716    .text._ZN7WorkerB3runEv:0000000000000010 .L0 
     /tmp/ccyhoPws.s:718    .text._ZN7WorkerB3runEv:0000000000000010 .L0 
     /tmp/ccyhoPws.s:719    .text._ZN7WorkerB3runEv:0000000000000010 .L0 
     /tmp/ccyhoPws.s:723    .text._ZN7WorkerB3runEv:000000000000001c .L0 
     /tmp/ccyhoPws.s:724    .text._ZN7WorkerB3runEv:0000000000000020 .L0 
     /tmp/ccyhoPws.s:726    .text._ZN7WorkerB3runEv:0000000000000024 .L0 
     /tmp/ccyhoPws.s:728    .text._ZN7WorkerB3runEv:0000000000000028 .L0 
     /tmp/ccyhoPws.s:730    .text._ZN7WorkerB3runEv:000000000000002c .L0 
     /tmp/ccyhoPws.s:737    .text:0000000000000218 _ZN7WorkerC11workerBodyCEPv
     /tmp/ccyhoPws.s:740    .text:0000000000000218 .L0 
     /tmp/ccyhoPws.s:742    .text:0000000000000218 .L0 
     /tmp/ccyhoPws.s:743    .text:000000000000021c .L0 
     /tmp/ccyhoPws.s:748    .text:000000000000022c .L0 
     /tmp/ccyhoPws.s:749    .text:000000000000022c .L0 
     /tmp/ccyhoPws.s:750    .text:000000000000022c .L0 
     /tmp/ccyhoPws.s:751    .text:000000000000022c .L0 
     /tmp/ccyhoPws.s:753    .text:0000000000000230 .L0 
     /tmp/ccyhoPws.s:756    .text:0000000000000230 .L0 
     /tmp/ccyhoPws.s:757    .text:0000000000000230 .L0 
     /tmp/ccyhoPws.s:761    .text:0000000000000234 .L0 
     /tmp/ccyhoPws.s:762    .text:0000000000000234 .L0 
     /tmp/ccyhoPws.s:765    .text:000000000000023c .L0 
     /tmp/ccyhoPws.s:766    .text:000000000000023c .L0 
     /tmp/ccyhoPws.s:770    .text:000000000000024c .L0 
     /tmp/ccyhoPws.s:771    .text:000000000000024c .L0 
     /tmp/ccyhoPws.s:777    .text:0000000000000260 .L0 
     /tmp/ccyhoPws.s:778    .text:0000000000000260 .L0 
     /tmp/ccyhoPws.s:782    .text:0000000000000270 .L0 
     /tmp/ccyhoPws.s:789    .text:000000000000027c .L0 
     /tmp/ccyhoPws.s:790    .text:000000000000027c .L0 
     /tmp/ccyhoPws.s:794    .text:000000000000028c .L0 
test/Threads_CPP_API_test.cpp:88     .text:000000000000028c .L0 
     /tmp/ccyhoPws.s:800    .text:0000000000000290 .L0 
     /tmp/ccyhoPws.s:802    .text:0000000000000290 .L0 
GAS LISTING /tmp/ccyhoPws.s 			page 41


     /tmp/ccyhoPws.s:805    .text:0000000000000298 .L0 
     /tmp/ccyhoPws.s:806    .text:0000000000000298 .L0 
test/Threads_CPP_API_test.cpp:92     .text:0000000000000298 .L0 
     /tmp/ccyhoPws.s:813    .text:000000000000029c .L0 
     /tmp/ccyhoPws.s:815    .text:000000000000029c .L0 
     /tmp/ccyhoPws.s:819    .text:00000000000002ac .L0 
     /tmp/ccyhoPws.s:820    .text:00000000000002ac .L0 
     /tmp/ccyhoPws.s:826    .text:00000000000002c0 .L0 
     /tmp/ccyhoPws.s:827    .text:00000000000002c0 .L0 
     /tmp/ccyhoPws.s:831    .text:00000000000002d0 .L0 
     /tmp/ccyhoPws.s:832    .text:00000000000002d0 .L0 
     /tmp/ccyhoPws.s:838    .text:00000000000002e0 .L0 
     /tmp/ccyhoPws.s:839    .text:00000000000002e0 .L0 
     /tmp/ccyhoPws.s:844    .text:00000000000002f0 .L0 
     /tmp/ccyhoPws.s:845    .text:00000000000002f0 .L0 
     /tmp/ccyhoPws.s:851    .text:0000000000000304 .L0 
     /tmp/ccyhoPws.s:852    .text:0000000000000304 .L0 
     /tmp/ccyhoPws.s:857    .text:0000000000000314 .L0 
     /tmp/ccyhoPws.s:858    .text:0000000000000314 .L0 
     /tmp/ccyhoPws.s:861    .text:000000000000031c .L0 
     /tmp/ccyhoPws.s:862    .text:000000000000031c .L0 
     /tmp/ccyhoPws.s:866    .text:000000000000032c .L0 
     /tmp/ccyhoPws.s:867    .text:000000000000032c .L0 
     /tmp/ccyhoPws.s:873    .text:0000000000000340 .L0 
     /tmp/ccyhoPws.s:874    .text:0000000000000340 .L0 
     /tmp/ccyhoPws.s:878    .text:0000000000000350 .L0 
     /tmp/ccyhoPws.s:885    .text:000000000000035c .L0 
     /tmp/ccyhoPws.s:886    .text:000000000000035c .L0 
     /tmp/ccyhoPws.s:890    .text:000000000000036c .L0 
     /tmp/ccyhoPws.s:891    .text:000000000000036c .L0 
     /tmp/ccyhoPws.s:1552   .sbss:0000000000000001 _ZL9finishedC
     /tmp/ccyhoPws.s:894    .text:0000000000000378 .L0 
     /tmp/ccyhoPws.s:895    .text:0000000000000378 .L0 
     /tmp/ccyhoPws.s:898    .text:0000000000000380 .L0 
     /tmp/ccyhoPws.s:899    .text:0000000000000384 .L0 
     /tmp/ccyhoPws.s:901    .text:0000000000000388 .L0 
     /tmp/ccyhoPws.s:903    .text:000000000000038c .L0 
     /tmp/ccyhoPws.s:906    .text:0000000000000390 .L0 
     /tmp/ccyhoPws.s:909    .text:0000000000000394 .L0 
     /tmp/ccyhoPws.s:911    .text:0000000000000398 .L0 
     /tmp/ccyhoPws.s:918    .text._ZN7WorkerC3runEv:0000000000000000 _ZN7WorkerC3runEv
     /tmp/ccyhoPws.s:921    .text._ZN7WorkerC3runEv:0000000000000000 .L0 
     /tmp/ccyhoPws.s:923    .text._ZN7WorkerC3runEv:0000000000000000 .L0 
     /tmp/ccyhoPws.s:924    .text._ZN7WorkerC3runEv:0000000000000004 .L0 
     /tmp/ccyhoPws.s:927    .text._ZN7WorkerC3runEv:000000000000000c .L0 
     /tmp/ccyhoPws.s:928    .text._ZN7WorkerC3runEv:000000000000000c .L0 
     /tmp/ccyhoPws.s:930    .text._ZN7WorkerC3runEv:0000000000000010 .L0 
     /tmp/ccyhoPws.s:932    .text._ZN7WorkerC3runEv:0000000000000010 .L0 
     /tmp/ccyhoPws.s:933    .text._ZN7WorkerC3runEv:0000000000000010 .L0 
     /tmp/ccyhoPws.s:937    .text._ZN7WorkerC3runEv:000000000000001c .L0 
     /tmp/ccyhoPws.s:938    .text._ZN7WorkerC3runEv:0000000000000020 .L0 
     /tmp/ccyhoPws.s:940    .text._ZN7WorkerC3runEv:0000000000000024 .L0 
     /tmp/ccyhoPws.s:942    .text._ZN7WorkerC3runEv:0000000000000028 .L0 
     /tmp/ccyhoPws.s:944    .text._ZN7WorkerC3runEv:000000000000002c .L0 
     /tmp/ccyhoPws.s:951    .text:0000000000000398 _ZN7WorkerD11workerBodyDEPv
     /tmp/ccyhoPws.s:954    .text:0000000000000398 .L0 
     /tmp/ccyhoPws.s:956    .text:0000000000000398 .L0 
GAS LISTING /tmp/ccyhoPws.s 			page 42


     /tmp/ccyhoPws.s:957    .text:000000000000039c .L0 
     /tmp/ccyhoPws.s:962    .text:00000000000003ac .L0 
     /tmp/ccyhoPws.s:963    .text:00000000000003ac .L0 
     /tmp/ccyhoPws.s:964    .text:00000000000003ac .L0 
     /tmp/ccyhoPws.s:965    .text:00000000000003ac .L0 
     /tmp/ccyhoPws.s:967    .text:00000000000003b0 .L0 
     /tmp/ccyhoPws.s:970    .text:00000000000003b0 .L0 
     /tmp/ccyhoPws.s:971    .text:00000000000003b0 .L0 
     /tmp/ccyhoPws.s:975    .text:00000000000003b4 .L0 
     /tmp/ccyhoPws.s:976    .text:00000000000003b4 .L0 
     /tmp/ccyhoPws.s:979    .text:00000000000003bc .L0 
     /tmp/ccyhoPws.s:980    .text:00000000000003bc .L0 
     /tmp/ccyhoPws.s:984    .text:00000000000003cc .L0 
     /tmp/ccyhoPws.s:985    .text:00000000000003cc .L0 
     /tmp/ccyhoPws.s:991    .text:00000000000003e0 .L0 
     /tmp/ccyhoPws.s:992    .text:00000000000003e0 .L0 
     /tmp/ccyhoPws.s:996    .text:00000000000003f0 .L0 
     /tmp/ccyhoPws.s:1003   .text:00000000000003fc .L0 
     /tmp/ccyhoPws.s:1004   .text:00000000000003fc .L0 
     /tmp/ccyhoPws.s:1008   .text:000000000000040c .L0 
test/Threads_CPP_API_test.cpp:115    .text:000000000000040c .L0 
     /tmp/ccyhoPws.s:1014   .text:0000000000000410 .L0 
     /tmp/ccyhoPws.s:1016   .text:0000000000000410 .L0 
     /tmp/ccyhoPws.s:1019   .text:0000000000000418 .L0 
     /tmp/ccyhoPws.s:1020   .text:0000000000000418 .L0 
     /tmp/ccyhoPws.s:1026   .text:0000000000000428 .L0 
     /tmp/ccyhoPws.s:1027   .text:0000000000000428 .L0 
     /tmp/ccyhoPws.s:1032   .text:0000000000000438 .L0 
     /tmp/ccyhoPws.s:1033   .text:0000000000000438 .L0 
     /tmp/ccyhoPws.s:1039   .text:000000000000044c .L0 
     /tmp/ccyhoPws.s:1040   .text:000000000000044c .L0 
     /tmp/ccyhoPws.s:1045   .text:000000000000045c .L0 
     /tmp/ccyhoPws.s:1046   .text:000000000000045c .L0 
     /tmp/ccyhoPws.s:1049   .text:0000000000000464 .L0 
     /tmp/ccyhoPws.s:1050   .text:0000000000000464 .L0 
     /tmp/ccyhoPws.s:1054   .text:0000000000000474 .L0 
     /tmp/ccyhoPws.s:1055   .text:0000000000000474 .L0 
     /tmp/ccyhoPws.s:1061   .text:0000000000000488 .L0 
     /tmp/ccyhoPws.s:1062   .text:0000000000000488 .L0 
     /tmp/ccyhoPws.s:1066   .text:0000000000000498 .L0 
     /tmp/ccyhoPws.s:1073   .text:00000000000004a4 .L0 
     /tmp/ccyhoPws.s:1074   .text:00000000000004a4 .L0 
     /tmp/ccyhoPws.s:1078   .text:00000000000004b4 .L0 
     /tmp/ccyhoPws.s:1079   .text:00000000000004b4 .L0 
     /tmp/ccyhoPws.s:1548   .sbss:0000000000000000 _ZL9finishedD
     /tmp/ccyhoPws.s:1082   .text:00000000000004c0 .L0 
     /tmp/ccyhoPws.s:1083   .text:00000000000004c0 .L0 
     /tmp/ccyhoPws.s:1086   .text:00000000000004c8 .L0 
     /tmp/ccyhoPws.s:1087   .text:00000000000004cc .L0 
     /tmp/ccyhoPws.s:1089   .text:00000000000004d0 .L0 
     /tmp/ccyhoPws.s:1091   .text:00000000000004d4 .L0 
     /tmp/ccyhoPws.s:1094   .text:00000000000004d8 .L0 
     /tmp/ccyhoPws.s:1097   .text:00000000000004dc .L0 
     /tmp/ccyhoPws.s:1099   .text:00000000000004e0 .L0 
     /tmp/ccyhoPws.s:1106   .text._ZN7WorkerD3runEv:0000000000000000 _ZN7WorkerD3runEv
     /tmp/ccyhoPws.s:1109   .text._ZN7WorkerD3runEv:0000000000000000 .L0 
     /tmp/ccyhoPws.s:1111   .text._ZN7WorkerD3runEv:0000000000000000 .L0 
GAS LISTING /tmp/ccyhoPws.s 			page 43


     /tmp/ccyhoPws.s:1112   .text._ZN7WorkerD3runEv:0000000000000004 .L0 
     /tmp/ccyhoPws.s:1115   .text._ZN7WorkerD3runEv:000000000000000c .L0 
     /tmp/ccyhoPws.s:1116   .text._ZN7WorkerD3runEv:000000000000000c .L0 
     /tmp/ccyhoPws.s:1118   .text._ZN7WorkerD3runEv:0000000000000010 .L0 
     /tmp/ccyhoPws.s:1120   .text._ZN7WorkerD3runEv:0000000000000010 .L0 
     /tmp/ccyhoPws.s:1121   .text._ZN7WorkerD3runEv:0000000000000010 .L0 
     /tmp/ccyhoPws.s:1125   .text._ZN7WorkerD3runEv:000000000000001c .L0 
     /tmp/ccyhoPws.s:1126   .text._ZN7WorkerD3runEv:0000000000000020 .L0 
     /tmp/ccyhoPws.s:1128   .text._ZN7WorkerD3runEv:0000000000000024 .L0 
     /tmp/ccyhoPws.s:1130   .text._ZN7WorkerD3runEv:0000000000000028 .L0 
     /tmp/ccyhoPws.s:1132   .text._ZN7WorkerD3runEv:000000000000002c .L0 
     /tmp/ccyhoPws.s:1139   .text:00000000000004e0 _Z20Threads_CPP_API_testv
     /tmp/ccyhoPws.s:1142   .text:00000000000004e0 .L0 
     /tmp/ccyhoPws.s:5422   .sdata.DW.ref.__gxx_personality_v0:0000000000000000 DW.ref.__gxx_personality_v0
     /tmp/ccyhoPws.s:1145   .text:00000000000004e0 .L0 
     /tmp/ccyhoPws.s:1146   .text:00000000000004e4 .L0 
     /tmp/ccyhoPws.s:1151   .text:00000000000004f4 .L0 
     /tmp/ccyhoPws.s:1152   .text:00000000000004f4 .L0 
     /tmp/ccyhoPws.s:1153   .text:00000000000004f4 .L0 
     /tmp/ccyhoPws.s:1154   .text:00000000000004f4 .L0 
     /tmp/ccyhoPws.s:1156   .text:00000000000004f8 .L0 
     /tmp/ccyhoPws.s:1158   .text:00000000000004f8 .L0 
     /tmp/ccyhoPws.s:1159   .text:00000000000004f8 .L0 
     /tmp/ccyhoPws.s:1160   .text:00000000000004f8 .L0 
     /tmp/ccyhoPws.s:1171   .text:0000000000000508 .L0 
     /tmp/ccyhoPws.s:1180   .text:000000000000051c .L0 
     /tmp/ccyhoPws.s:1182   .text:0000000000000520 .L0 
     /tmp/ccyhoPws.s:1183   .text:0000000000000520 .L0 
     /tmp/ccyhoPws.s:1188   .text:0000000000000530 .L0 
     /tmp/ccyhoPws.s:1189   .text:0000000000000530 .L0 
     /tmp/ccyhoPws.s:1199   .text:0000000000000540 .L0 
     /tmp/ccyhoPws.s:1208   .text:0000000000000554 .L0 
     /tmp/ccyhoPws.s:1210   .text:0000000000000558 .L0 
     /tmp/ccyhoPws.s:1211   .text:0000000000000558 .L0 
     /tmp/ccyhoPws.s:1216   .text:0000000000000568 .L0 
     /tmp/ccyhoPws.s:1217   .text:0000000000000568 .L0 
     /tmp/ccyhoPws.s:1227   .text:0000000000000578 .L0 
     /tmp/ccyhoPws.s:1236   .text:000000000000058c .L0 
     /tmp/ccyhoPws.s:1238   .text:0000000000000590 .L0 
     /tmp/ccyhoPws.s:1239   .text:0000000000000590 .L0 
     /tmp/ccyhoPws.s:1244   .text:00000000000005a0 .L0 
     /tmp/ccyhoPws.s:1245   .text:00000000000005a0 .L0 
     /tmp/ccyhoPws.s:1255   .text:00000000000005b0 .L0 
     /tmp/ccyhoPws.s:1264   .text:00000000000005c4 .L0 
     /tmp/ccyhoPws.s:1266   .text:00000000000005c8 .L0 
     /tmp/ccyhoPws.s:1267   .text:00000000000005c8 .L0 
     /tmp/ccyhoPws.s:1273   .text:00000000000005d8 .L0 
     /tmp/ccyhoPws.s:1277   .text:00000000000005dc .L0 
     /tmp/ccyhoPws.s:1280   .text:00000000000005e4 .L0 
     /tmp/ccyhoPws.s:1281   .text:00000000000005e4 .L0 
     /tmp/ccyhoPws.s:1285   .text:00000000000005f0 .L0 
     /tmp/ccyhoPws.s:1289   .text:00000000000005fc .L0 
     /tmp/ccyhoPws.s:1296   .text:0000000000000604 .L0 
     /tmp/ccyhoPws.s:1297   .text:0000000000000604 .L0 
     /tmp/ccyhoPws.s:1301   .text:000000000000060c .L0 
     /tmp/ccyhoPws.s:1302   .text:000000000000060c .L0 
     /tmp/ccyhoPws.s:1306   .text:000000000000061c .L0 
GAS LISTING /tmp/ccyhoPws.s 			page 44


     /tmp/ccyhoPws.s:1308   .text:0000000000000620 .L0 
     /tmp/ccyhoPws.s:1313   .text:0000000000000634 .L0 
     /tmp/ccyhoPws.s:1318   .text:0000000000000648 .L0 
     /tmp/ccyhoPws.s:1322   .text:0000000000000658 .L0 
     /tmp/ccyhoPws.s:1325   .text:000000000000065c .L0 
     /tmp/ccyhoPws.s:1331   .text:0000000000000664 .L0 
     /tmp/ccyhoPws.s:1335   .text:0000000000000668 .L0 
     /tmp/ccyhoPws.s:1338   .text:0000000000000670 .L0 
     /tmp/ccyhoPws.s:1341   .text:0000000000000674 .L0 
     /tmp/ccyhoPws.s:1342   .text:0000000000000674 .L0 
     /tmp/ccyhoPws.s:1344   .text:0000000000000678 .L0 
     /tmp/ccyhoPws.s:1354   .text:000000000000068c .L0 
     /tmp/ccyhoPws.s:1363   .text:00000000000006a8 .L0 
     /tmp/ccyhoPws.s:1372   .text:00000000000006c4 .L0 
     /tmp/ccyhoPws.s:1381   .text:00000000000006e0 .L0 
     /tmp/ccyhoPws.s:1390   .text:00000000000006f8 .L0 
     /tmp/ccyhoPws.s:1391   .text:00000000000006fc .L0 
     /tmp/ccyhoPws.s:1393   .text:0000000000000700 .L0 
     /tmp/ccyhoPws.s:1395   .text:0000000000000704 .L0 
     /tmp/ccyhoPws.s:1398   .text:0000000000000708 .L0 
     /tmp/ccyhoPws.s:1400   .text:000000000000070c .L0 
     /tmp/ccyhoPws.s:1402   .text:0000000000000710 .L0 
     /tmp/ccyhoPws.s:1568   .text:0000000000000710 .L0 
     /tmp/ccyhoPws.s:121    .text._ZN7WorkerAD2Ev:0000000000000034 .L0 
     /tmp/ccyhoPws.s:167    .text._ZN7WorkerAD0Ev:000000000000004c .L0 
     /tmp/ccyhoPws.s:203    .text._ZN7WorkerBD2Ev:0000000000000034 .L0 
     /tmp/ccyhoPws.s:249    .text._ZN7WorkerBD0Ev:000000000000004c .L0 
     /tmp/ccyhoPws.s:285    .text._ZN7WorkerCD2Ev:0000000000000034 .L0 
     /tmp/ccyhoPws.s:331    .text._ZN7WorkerCD0Ev:000000000000004c .L0 
     /tmp/ccyhoPws.s:367    .text._ZN7WorkerDD2Ev:0000000000000034 .L0 
     /tmp/ccyhoPws.s:413    .text._ZN7WorkerDD0Ev:000000000000004c .L0 
     /tmp/ccyhoPws.s:571    .text._ZN7WorkerA3runEv:000000000000002c .L0 
     /tmp/ccyhoPws.s:733    .text._ZN7WorkerB3runEv:000000000000002c .L0 
     /tmp/ccyhoPws.s:947    .text._ZN7WorkerC3runEv:000000000000002c .L0 
     /tmp/ccyhoPws.s:1135   .text._ZN7WorkerD3runEv:000000000000002c .L0 
     /tmp/ccyhoPws.s:1495   .rodata.str1.8:0000000000000000 .LC0
     /tmp/ccyhoPws.s:488    .text:00000000000000d4 .L0 
     /tmp/ccyhoPws.s:1498   .rodata.str1.8:0000000000000008 .LC1
     /tmp/ccyhoPws.s:500    .text:00000000000000f8 .L0 
     /tmp/ccyhoPws.s:1501   .rodata.str1.8:0000000000000010 .LC2
     /tmp/ccyhoPws.s:515    .text:0000000000000110 .L0 
     /tmp/ccyhoPws.s:521    .text:0000000000000124 .L0 
     /tmp/ccyhoPws.s:1504   .rodata.str1.8:0000000000000020 .LC3
     /tmp/ccyhoPws.s:646    .text:00000000000001a0 .L0 
     /tmp/ccyhoPws.s:658    .text:00000000000001c4 .L0 
     /tmp/ccyhoPws.s:1507   .rodata.str1.8:0000000000000028 .LC4
     /tmp/ccyhoPws.s:673    .text:00000000000001dc .L0 
     /tmp/ccyhoPws.s:679    .text:00000000000001f0 .L0 
     /tmp/ccyhoPws.s:1510   .rodata.str1.8:0000000000000038 .LC5
     /tmp/ccyhoPws.s:766    .text:000000000000023c .L0 
     /tmp/ccyhoPws.s:778    .text:0000000000000260 .L0 
     /tmp/ccyhoPws.s:1513   .rodata.str1.8:0000000000000040 .LC6
     /tmp/ccyhoPws.s:790    .text:000000000000027c .L0 
     /tmp/ccyhoPws.s:1516   .rodata.str1.8:0000000000000050 .LC7
     /tmp/ccyhoPws.s:815    .text:000000000000029c .L0 
     /tmp/ccyhoPws.s:827    .text:00000000000002c0 .L0 
     /tmp/ccyhoPws.s:1519   .rodata.str1.8:0000000000000058 .LC8
GAS LISTING /tmp/ccyhoPws.s 			page 45


     /tmp/ccyhoPws.s:839    .text:00000000000002e0 .L0 
     /tmp/ccyhoPws.s:852    .text:0000000000000304 .L0 
     /tmp/ccyhoPws.s:862    .text:000000000000031c .L0 
     /tmp/ccyhoPws.s:874    .text:0000000000000340 .L0 
     /tmp/ccyhoPws.s:886    .text:000000000000035c .L0 
     /tmp/ccyhoPws.s:892    .text:0000000000000370 .L0 
     /tmp/ccyhoPws.s:1522   .rodata.str1.8:0000000000000068 .LC9
     /tmp/ccyhoPws.s:980    .text:00000000000003bc .L0 
     /tmp/ccyhoPws.s:992    .text:00000000000003e0 .L0 
     /tmp/ccyhoPws.s:1525   .rodata.str1.8:0000000000000070 .LC10
     /tmp/ccyhoPws.s:1004   .text:00000000000003fc .L0 
     /tmp/ccyhoPws.s:1528   .rodata.str1.8:0000000000000080 .LC11
     /tmp/ccyhoPws.s:1027   .text:0000000000000428 .L0 
     /tmp/ccyhoPws.s:1040   .text:000000000000044c .L0 
     /tmp/ccyhoPws.s:1050   .text:0000000000000464 .L0 
     /tmp/ccyhoPws.s:1062   .text:0000000000000488 .L0 
     /tmp/ccyhoPws.s:1531   .rodata.str1.8:0000000000000090 .LC12
     /tmp/ccyhoPws.s:1074   .text:00000000000004a4 .L0 
     /tmp/ccyhoPws.s:1080   .text:00000000000004b8 .L0 
     /tmp/ccyhoPws.s:1174   .text:0000000000000510 .L0 
     /tmp/ccyhoPws.s:1534   .rodata.str1.8:00000000000000a0 .LC13
     /tmp/ccyhoPws.s:1183   .text:0000000000000520 .L0 
     /tmp/ccyhoPws.s:1202   .text:0000000000000548 .L0 
     /tmp/ccyhoPws.s:1537   .rodata.str1.8:00000000000000b8 .LC14
     /tmp/ccyhoPws.s:1211   .text:0000000000000558 .L0 
     /tmp/ccyhoPws.s:1230   .text:0000000000000580 .L0 
     /tmp/ccyhoPws.s:1540   .rodata.str1.8:00000000000000d0 .LC15
     /tmp/ccyhoPws.s:1239   .text:0000000000000590 .L0 
     /tmp/ccyhoPws.s:1258   .text:00000000000005b8 .L0 
     /tmp/ccyhoPws.s:1543   .rodata.str1.8:00000000000000e8 .LC16
     /tmp/ccyhoPws.s:1267   .text:00000000000005c8 .L0 
     /tmp/ccyhoPws.s:1302   .text:000000000000060c .L0 
     /tmp/ccyhoPws.s:1308   .text:0000000000000620 .L0 
     /tmp/ccyhoPws.s:1313   .text:0000000000000634 .L0 
     /tmp/ccyhoPws.s:1318   .text:0000000000000648 .L0 
     /tmp/ccyhoPws.s:74     .text:0000000000000074 .L6
     /tmp/ccyhoPws.s:66     .text:0000000000000068 .L9
     /tmp/ccyhoPws.s:38     .text:0000000000000030 .L3
     /tmp/ccyhoPws.s:481    .text:00000000000000cc .L32
     /tmp/ccyhoPws.s:473    .text:00000000000000c8 .L28
     /tmp/ccyhoPws.s:441    .text:0000000000000098 .L29
     /tmp/ccyhoPws.s:462    .text:00000000000000b4 .L30
     /tmp/ccyhoPws.s:509    .text:0000000000000110 .L27
     /tmp/ccyhoPws.s:453    .text:00000000000000a4 .L31
     /tmp/ccyhoPws.s:639    .text:0000000000000198 .L42
     /tmp/ccyhoPws.s:631    .text:0000000000000194 .L38
     /tmp/ccyhoPws.s:599    .text:0000000000000164 .L39
     /tmp/ccyhoPws.s:620    .text:0000000000000180 .L40
     /tmp/ccyhoPws.s:667    .text:00000000000001dc .L37
     /tmp/ccyhoPws.s:611    .text:0000000000000170 .L41
     /tmp/ccyhoPws.s:787    .text:000000000000027c .L47
     /tmp/ccyhoPws.s:759    .text:0000000000000234 .L48
     /tmp/ccyhoPws.s:883    .text:000000000000035c .L49
     /tmp/ccyhoPws.s:855    .text:0000000000000314 .L50
     /tmp/ccyhoPws.s:1001   .text:00000000000003fc .L55
     /tmp/ccyhoPws.s:973    .text:00000000000003b4 .L56
     /tmp/ccyhoPws.s:1071   .text:00000000000004a4 .L57
GAS LISTING /tmp/ccyhoPws.s 			page 46


     /tmp/ccyhoPws.s:1043   .text:000000000000045c .L58
     /tmp/ccyhoPws.s:1299   .text:000000000000060c .L63
     /tmp/ccyhoPws.s:1274   .text:00000000000005dc .L64
     /tmp/ccyhoPws.s:1293   .text:0000000000000604 .L65
     /tmp/ccyhoPws.s:1333   .text:0000000000000668 .L66
     /tmp/ccyhoPws.s:1388   .text:00000000000006f8 .L62
     /tmp/ccyhoPws.s:1329   .text:0000000000000664 .L68
     /tmp/ccyhoPws.s:104    .text._ZN7WorkerAD2Ev:0000000000000010 .L0 
     /tmp/ccyhoPws.s:145    .text._ZN7WorkerAD0Ev:0000000000000018 .L0 
     /tmp/ccyhoPws.s:186    .text._ZN7WorkerBD2Ev:0000000000000010 .L0 
     /tmp/ccyhoPws.s:227    .text._ZN7WorkerBD0Ev:0000000000000018 .L0 
     /tmp/ccyhoPws.s:268    .text._ZN7WorkerCD2Ev:0000000000000010 .L0 
     /tmp/ccyhoPws.s:309    .text._ZN7WorkerCD0Ev:0000000000000018 .L0 
     /tmp/ccyhoPws.s:350    .text._ZN7WorkerDD2Ev:0000000000000010 .L0 
     /tmp/ccyhoPws.s:391    .text._ZN7WorkerDD0Ev:0000000000000018 .L0 
     /tmp/ccyhoPws.s:1161   .text:00000000000004fc .LEHB0
     /tmp/ccyhoPws.s:1140   .text:00000000000004e0 .LFB56
     /tmp/ccyhoPws.s:1164   .text:0000000000000504 .LEHE0
     /tmp/ccyhoPws.s:1167   .text:0000000000000508 .LEHB1
     /tmp/ccyhoPws.s:1173   .text:0000000000000510 .LEHE1
     /tmp/ccyhoPws.s:1350   .text:0000000000000688 .L74
     /tmp/ccyhoPws.s:1184   .text:0000000000000528 .LEHB2
     /tmp/ccyhoPws.s:1192   .text:000000000000053c .LEHE2
     /tmp/ccyhoPws.s:1195   .text:0000000000000540 .LEHB3
     /tmp/ccyhoPws.s:1201   .text:0000000000000548 .LEHE3
     /tmp/ccyhoPws.s:1360   .text:00000000000006a4 .L75
     /tmp/ccyhoPws.s:1212   .text:0000000000000560 .LEHB4
     /tmp/ccyhoPws.s:1220   .text:0000000000000574 .LEHE4
     /tmp/ccyhoPws.s:1223   .text:0000000000000578 .LEHB5
     /tmp/ccyhoPws.s:1229   .text:0000000000000580 .LEHE5
     /tmp/ccyhoPws.s:1369   .text:00000000000006c0 .L76
     /tmp/ccyhoPws.s:1240   .text:0000000000000598 .LEHB6
     /tmp/ccyhoPws.s:1248   .text:00000000000005ac .LEHE6
     /tmp/ccyhoPws.s:1251   .text:00000000000005b0 .LEHB7
     /tmp/ccyhoPws.s:1257   .text:00000000000005b8 .LEHE7
     /tmp/ccyhoPws.s:1378   .text:00000000000006dc .L77
     /tmp/ccyhoPws.s:1268   .text:00000000000005d0 .LEHB8
     /tmp/ccyhoPws.s:1387   .text:00000000000006f8 .LEHE8
     /tmp/ccyhoPws.s:3784   .debug_abbrev:0000000000000000 .Ldebug_abbrev0
     /tmp/ccyhoPws.s:5284   .debug_str:0000000000000244 .LASF93
     /tmp/ccyhoPws.s:5266   .debug_str:0000000000000198 .LASF94
     /tmp/ccyhoPws.s:5364   .debug_str:000000000000052e .LASF95
     /tmp/ccyhoPws.s:5166   .debug_ranges:0000000000000000 .Ldebug_ranges0
     /tmp/ccyhoPws.s:5208   .debug_line:0000000000000000 .Ldebug_line0
     /tmp/ccyhoPws.s:5274   .debug_str:00000000000001dd .LASF0
     /tmp/ccyhoPws.s:5290   .debug_str:000000000000032d .LASF1
     /tmp/ccyhoPws.s:5346   .debug_str:00000000000004c3 .LASF2
     /tmp/ccyhoPws.s:5250   .debug_str:000000000000012f .LASF3
     /tmp/ccyhoPws.s:5350   .debug_str:00000000000004db .LASF4
     /tmp/ccyhoPws.s:5278   .debug_str:00000000000001fc .LASF5
     /tmp/ccyhoPws.s:5218   .debug_str:000000000000003f .LASF6
     /tmp/ccyhoPws.s:5324   .debug_str:0000000000000443 .LASF7
     /tmp/ccyhoPws.s:5286   .debug_str:0000000000000308 .LASF8
     /tmp/ccyhoPws.s:5260   .debug_str:0000000000000162 .LASF9
     /tmp/ccyhoPws.s:5264   .debug_str:000000000000018a .LASF10
     /tmp/ccyhoPws.s:5232   .debug_str:00000000000000a8 .LASF11
     /tmp/ccyhoPws.s:5256   .debug_str:000000000000014e .LASF12
GAS LISTING /tmp/ccyhoPws.s 			page 47


     /tmp/ccyhoPws.s:5238   .debug_str:00000000000000d9 .LASF13
     /tmp/ccyhoPws.s:5230   .debug_str:0000000000000098 .LASF14
     /tmp/ccyhoPws.s:5372   .debug_str:000000000000057a .LASF15
     /tmp/ccyhoPws.s:5246   .debug_str:0000000000000112 .LASF16
     /tmp/ccyhoPws.s:5366   .debug_str:0000000000000545 .LASF17
     /tmp/ccyhoPws.s:5300   .debug_str:0000000000000380 .LASF18
     /tmp/ccyhoPws.s:5376   .debug_str:0000000000000590 .LASF19
     /tmp/ccyhoPws.s:5348   .debug_str:00000000000004d1 .LASF20
     /tmp/ccyhoPws.s:5306   .debug_str:00000000000003a4 .LASF21
     /tmp/ccyhoPws.s:5352   .debug_str:00000000000004e2 .LASF22
     /tmp/ccyhoPws.s:5354   .debug_str:00000000000004ec .LASF23
     /tmp/ccyhoPws.s:5410   .debug_str:0000000000000689 .LASF24
     /tmp/ccyhoPws.s:5322   .debug_str:0000000000000431 .LASF25
     /tmp/ccyhoPws.s:5252   .debug_str:0000000000000135 .LASF26
     /tmp/ccyhoPws.s:5334   .debug_str:0000000000000483 .LASF27
     /tmp/ccyhoPws.s:5394   .debug_str:0000000000000624 .LASF37
     /tmp/ccyhoPws.s:5226   .debug_str:0000000000000078 .LASF39
     /tmp/ccyhoPws.s:5288   .debug_str:000000000000031b .LASF41
     /tmp/ccyhoPws.s:5344   .debug_str:00000000000004ba .LASF28
     /tmp/ccyhoPws.s:5398   .debug_str:000000000000064c .LASF44
     /tmp/ccyhoPws.s:5268   .debug_str:00000000000001b6 .LASF96
     /tmp/ccyhoPws.s:5214   .debug_str:0000000000000022 .LASF29
     /tmp/ccyhoPws.s:5402   .debug_str:000000000000066b .LASF31
     /tmp/ccyhoPws.s:5320   .debug_str:000000000000041b .LASF30
     /tmp/ccyhoPws.s:5244   .debug_str:0000000000000109 .LASF32
     /tmp/ccyhoPws.s:5408   .debug_str:0000000000000681 .LASF33
     /tmp/ccyhoPws.s:5224   .debug_str:0000000000000066 .LASF34
     /tmp/ccyhoPws.s:5314   .debug_str:00000000000003f1 .LASF35
     /tmp/ccyhoPws.s:5332   .debug_str:0000000000000477 .LASF36
     /tmp/ccyhoPws.s:5280   .debug_str:000000000000020e .LASF38
     /tmp/ccyhoPws.s:5298   .debug_str:0000000000000370 .LASF40
     /tmp/ccyhoPws.s:5390   .debug_str:00000000000005f6 .LASF42
     /tmp/ccyhoPws.s:5342   .debug_str:00000000000004b1 .LASF43
     /tmp/ccyhoPws.s:5272   .debug_str:00000000000001cd .LASF45
     /tmp/ccyhoPws.s:5406   .debug_str:0000000000000679 .LASF46
     /tmp/ccyhoPws.s:5312   .debug_str:00000000000003df .LASF47
     /tmp/ccyhoPws.s:5386   .debug_str:00000000000005d1 .LASF48
     /tmp/ccyhoPws.s:5330   .debug_str:000000000000046b .LASF49
     /tmp/ccyhoPws.s:5308   .debug_str:00000000000003ae .LASF50
     /tmp/ccyhoPws.s:5384   .debug_str:00000000000005c1 .LASF51
     /tmp/ccyhoPws.s:5276   .debug_str:00000000000001ea .LASF52
     /tmp/ccyhoPws.s:5340   .debug_str:00000000000004a8 .LASF53
     /tmp/ccyhoPws.s:5362   .debug_str:000000000000051e .LASF54
     /tmp/ccyhoPws.s:5404   .debug_str:0000000000000671 .LASF55
     /tmp/ccyhoPws.s:5210   .debug_str:0000000000000000 .LASF56
     /tmp/ccyhoPws.s:5234   .debug_str:00000000000000b7 .LASF57
     /tmp/ccyhoPws.s:5328   .debug_str:000000000000045f .LASF58
     /tmp/ccyhoPws.s:5392   .debug_str:0000000000000608 .LASF59
     /tmp/ccyhoPws.s:5242   .debug_str:00000000000000f9 .LASF60
     /tmp/ccyhoPws.s:5388   .debug_str:00000000000005e4 .LASF61
     /tmp/ccyhoPws.s:5338   .debug_str:000000000000049f .LASF62
     /tmp/ccyhoPws.s:5228   .debug_str:0000000000000088 .LASF63
     /tmp/ccyhoPws.s:5258   .debug_str:000000000000015d .LASF64
     /tmp/ccyhoPws.s:5216   .debug_str:0000000000000035 .LASF65
     /tmp/ccyhoPws.s:5380   .debug_str:00000000000005a1 .LASF66
     /tmp/ccyhoPws.s:126    .text._ZN7WorkerAD0Ev:0000000000000000 .LFB75
     /tmp/ccyhoPws.s:165    .text._ZN7WorkerAD0Ev:000000000000004c .LFE75
GAS LISTING /tmp/ccyhoPws.s 			page 48


     /tmp/ccyhoPws.s:4550   .debug_loc:0000000000000000 .LLST2
     /tmp/ccyhoPws.s:142    .text._ZN7WorkerAD0Ev:0000000000000018 .LBB29
     /tmp/ccyhoPws.s:150    .text._ZN7WorkerAD0Ev:000000000000002c .LBE29
     /tmp/ccyhoPws.s:4568   .debug_loc:000000000000004c .LLST3
     /tmp/ccyhoPws.s:148    .text._ZN7WorkerAD0Ev:000000000000002c .LVL12
     /tmp/ccyhoPws.s:153    .text._ZN7WorkerAD0Ev:0000000000000038 .LVL13
     /tmp/ccyhoPws.s:5296   .debug_str:0000000000000360 .LASF67
     /tmp/ccyhoPws.s:90     .text._ZN7WorkerAD2Ev:0000000000000000 .LFB73
     /tmp/ccyhoPws.s:117    .text._ZN7WorkerAD2Ev:0000000000000034 .LFE73
     /tmp/ccyhoPws.s:4579   .debug_loc:0000000000000082 .LLST1
     /tmp/ccyhoPws.s:107    .text._ZN7WorkerAD2Ev:0000000000000024 .LVL9
     /tmp/ccyhoPws.s:5292   .debug_str:0000000000000340 .LASF68
     /tmp/ccyhoPws.s:208    .text._ZN7WorkerBD0Ev:0000000000000000 .LFB71
     /tmp/ccyhoPws.s:247    .text._ZN7WorkerBD0Ev:000000000000004c .LFE71
     /tmp/ccyhoPws.s:4593   .debug_loc:00000000000000bb .LLST5
     /tmp/ccyhoPws.s:224    .text._ZN7WorkerBD0Ev:0000000000000018 .LBB32
     /tmp/ccyhoPws.s:232    .text._ZN7WorkerBD0Ev:000000000000002c .LBE32
     /tmp/ccyhoPws.s:4611   .debug_loc:0000000000000107 .LLST6
     /tmp/ccyhoPws.s:230    .text._ZN7WorkerBD0Ev:000000000000002c .LVL19
     /tmp/ccyhoPws.s:235    .text._ZN7WorkerBD0Ev:0000000000000038 .LVL20
     /tmp/ccyhoPws.s:5222   .debug_str:0000000000000056 .LASF69
     /tmp/ccyhoPws.s:172    .text._ZN7WorkerBD2Ev:0000000000000000 .LFB69
     /tmp/ccyhoPws.s:199    .text._ZN7WorkerBD2Ev:0000000000000034 .LFE69
     /tmp/ccyhoPws.s:4622   .debug_loc:000000000000013d .LLST4
     /tmp/ccyhoPws.s:189    .text._ZN7WorkerBD2Ev:0000000000000024 .LVL16
     /tmp/ccyhoPws.s:5220   .debug_str:0000000000000046 .LASF70
     /tmp/ccyhoPws.s:290    .text._ZN7WorkerCD0Ev:0000000000000000 .LFB67
     /tmp/ccyhoPws.s:329    .text._ZN7WorkerCD0Ev:000000000000004c .LFE67
     /tmp/ccyhoPws.s:4636   .debug_loc:0000000000000176 .LLST8
     /tmp/ccyhoPws.s:306    .text._ZN7WorkerCD0Ev:0000000000000018 .LBB35
     /tmp/ccyhoPws.s:314    .text._ZN7WorkerCD0Ev:000000000000002c .LBE35
     /tmp/ccyhoPws.s:4654   .debug_loc:00000000000001c2 .LLST9
     /tmp/ccyhoPws.s:312    .text._ZN7WorkerCD0Ev:000000000000002c .LVL26
     /tmp/ccyhoPws.s:317    .text._ZN7WorkerCD0Ev:0000000000000038 .LVL27
     /tmp/ccyhoPws.s:5360   .debug_str:000000000000050e .LASF71
     /tmp/ccyhoPws.s:254    .text._ZN7WorkerCD2Ev:0000000000000000 .LFB65
     /tmp/ccyhoPws.s:281    .text._ZN7WorkerCD2Ev:0000000000000034 .LFE65
     /tmp/ccyhoPws.s:4665   .debug_loc:00000000000001f8 .LLST7
     /tmp/ccyhoPws.s:271    .text._ZN7WorkerCD2Ev:0000000000000024 .LVL23
     /tmp/ccyhoPws.s:5356   .debug_str:00000000000004f6 .LASF72
     /tmp/ccyhoPws.s:372    .text._ZN7WorkerDD0Ev:0000000000000000 .LFB63
     /tmp/ccyhoPws.s:411    .text._ZN7WorkerDD0Ev:000000000000004c .LFE63
     /tmp/ccyhoPws.s:4679   .debug_loc:0000000000000231 .LLST11
     /tmp/ccyhoPws.s:388    .text._ZN7WorkerDD0Ev:0000000000000018 .LBB38
     /tmp/ccyhoPws.s:396    .text._ZN7WorkerDD0Ev:000000000000002c .LBE38
     /tmp/ccyhoPws.s:4697   .debug_loc:000000000000027d .LLST12
     /tmp/ccyhoPws.s:394    .text._ZN7WorkerDD0Ev:000000000000002c .LVL33
     /tmp/ccyhoPws.s:399    .text._ZN7WorkerDD0Ev:0000000000000038 .LVL34
     /tmp/ccyhoPws.s:5270   .debug_str:00000000000001bd .LASF73
     /tmp/ccyhoPws.s:336    .text._ZN7WorkerDD2Ev:0000000000000000 .LFB61
     /tmp/ccyhoPws.s:363    .text._ZN7WorkerDD2Ev:0000000000000034 .LFE61
     /tmp/ccyhoPws.s:4708   .debug_loc:00000000000002b3 .LLST10
     /tmp/ccyhoPws.s:353    .text._ZN7WorkerDD2Ev:0000000000000024 .LVL30
     /tmp/ccyhoPws.s:5310   .debug_str:00000000000003ca .LASF97
     /tmp/ccyhoPws.s:5282   .debug_str:000000000000022a .LASF98
     /tmp/ccyhoPws.s:1403   .text:0000000000000710 .LFE56
     /tmp/ccyhoPws.s:5358   .debug_str:0000000000000506 .LASF74
GAS LISTING /tmp/ccyhoPws.s 			page 49


     /tmp/ccyhoPws.s:1271   .text:00000000000005d8 .LBB64
     /tmp/ccyhoPws.s:1294   .text:0000000000000604 .LBE64
     /tmp/ccyhoPws.s:4722   .debug_loc:00000000000002ec .LLST40
     /tmp/ccyhoPws.s:1287   .text:00000000000005fc .LVL150
     /tmp/ccyhoPws.s:1323   .text:000000000000065c .LBB65
     /tmp/ccyhoPws.s:1352   .text:000000000000068c .LBE65
     /tmp/ccyhoPws.s:5248   .debug_str:0000000000000128 .LASF75
     /tmp/ccyhoPws.s:4733   .debug_loc:0000000000000322 .LLST41
     /tmp/ccyhoPws.s:5368   .debug_str:000000000000055b .LASF76
     /tmp/ccyhoPws.s:5378   .debug_str:0000000000000595 .LASF99
     /tmp/ccyhoPws.s:4740   .debug_loc:0000000000000345 .LLST42
     /tmp/ccyhoPws.s:5374   .debug_str:0000000000000586 .LASF77
     /tmp/ccyhoPws.s:1168   .text:0000000000000508 .LBB56
     /tmp/ccyhoPws.s:1178   .text:000000000000051c .LBE56
     /tmp/ccyhoPws.s:4751   .debug_loc:000000000000037b .LLST36
     /tmp/ccyhoPws.s:1172   .text:0000000000000510 .LVL131
     /tmp/ccyhoPws.s:1196   .text:0000000000000540 .LBB58
     /tmp/ccyhoPws.s:1206   .text:0000000000000554 .LBE58
     /tmp/ccyhoPws.s:4762   .debug_loc:00000000000003b1 .LLST37
     /tmp/ccyhoPws.s:1200   .text:0000000000000548 .LVL136
     /tmp/ccyhoPws.s:1224   .text:0000000000000578 .LBB60
     /tmp/ccyhoPws.s:1234   .text:000000000000058c .LBE60
     /tmp/ccyhoPws.s:4773   .debug_loc:00000000000003e7 .LLST38
     /tmp/ccyhoPws.s:1228   .text:0000000000000580 .LVL141
     /tmp/ccyhoPws.s:1252   .text:00000000000005b0 .LBB62
     /tmp/ccyhoPws.s:1262   .text:00000000000005c4 .LBE62
     /tmp/ccyhoPws.s:4784   .debug_loc:000000000000041d .LLST39
     /tmp/ccyhoPws.s:1256   .text:00000000000005b8 .LVL146
     /tmp/ccyhoPws.s:1163   .text:0000000000000504 .LVL129
     /tmp/ccyhoPws.s:1186   .text:0000000000000530 .LVL133
     /tmp/ccyhoPws.s:1191   .text:000000000000053c .LVL134
     /tmp/ccyhoPws.s:1214   .text:0000000000000568 .LVL138
     /tmp/ccyhoPws.s:1219   .text:0000000000000574 .LVL139
     /tmp/ccyhoPws.s:1242   .text:00000000000005a0 .LVL143
     /tmp/ccyhoPws.s:1247   .text:00000000000005ac .LVL144
     /tmp/ccyhoPws.s:1270   .text:00000000000005d8 .LVL148
     /tmp/ccyhoPws.s:1298   .text:000000000000060c .LVL153
     /tmp/ccyhoPws.s:1356   .text:0000000000000698 .LVL160
     /tmp/ccyhoPws.s:1359   .text:00000000000006a4 .LVL161
     /tmp/ccyhoPws.s:1365   .text:00000000000006b4 .LVL162
     /tmp/ccyhoPws.s:1368   .text:00000000000006c0 .LVL163
     /tmp/ccyhoPws.s:1374   .text:00000000000006d0 .LVL164
     /tmp/ccyhoPws.s:1377   .text:00000000000006dc .LVL165
     /tmp/ccyhoPws.s:1383   .text:00000000000006ec .LVL166
     /tmp/ccyhoPws.s:1386   .text:00000000000006f8 .LVL167
     /tmp/ccyhoPws.s:952    .text:0000000000000398 .LFB55
     /tmp/ccyhoPws.s:1100   .text:00000000000004e0 .LFE55
     /tmp/ccyhoPws.s:4795   .debug_loc:0000000000000453 .LLST31
     /tmp/ccyhoPws.s:4809   .debug_loc:000000000000048c .LLST32
     /tmp/ccyhoPws.s:4823   .debug_loc:00000000000004c5 .LLST33
     /tmp/ccyhoPws.s:5414   .debug_str:000000000000069e .LASF78
     /tmp/ccyhoPws.s:4843   .debug_loc:0000000000000522 .LLST34
     /tmp/ccyhoPws.s:982    .text:00000000000003cc .LVL105
     /tmp/ccyhoPws.s:989    .text:00000000000003e0 .LVL106
     /tmp/ccyhoPws.s:994    .text:00000000000003f0 .LVL107
     /tmp/ccyhoPws.s:1006   .text:000000000000040c .LVL110
     /tmp/ccyhoPws.s:1017   .text:0000000000000418 .LVL111
GAS LISTING /tmp/ccyhoPws.s 			page 50


     /tmp/ccyhoPws.s:1022   .text:0000000000000424 .LVL112
     /tmp/ccyhoPws.s:1030   .text:0000000000000438 .LVL115
     /tmp/ccyhoPws.s:1037   .text:000000000000044c .LVL116
     /tmp/ccyhoPws.s:1042   .text:000000000000045c .LVL117
     /tmp/ccyhoPws.s:1052   .text:0000000000000474 .LVL118
     /tmp/ccyhoPws.s:1059   .text:0000000000000488 .LVL119
     /tmp/ccyhoPws.s:1064   .text:0000000000000498 .LVL120
     /tmp/ccyhoPws.s:1076   .text:00000000000004b4 .LVL123
     /tmp/ccyhoPws.s:1084   .text:00000000000004c8 .LVL124
     /tmp/ccyhoPws.s:738    .text:0000000000000218 .LFB54
     /tmp/ccyhoPws.s:912    .text:0000000000000398 .LFE54
     /tmp/ccyhoPws.s:4854   .debug_loc:0000000000000558 .LLST25
     /tmp/ccyhoPws.s:4868   .debug_loc:0000000000000591 .LLST26
     /tmp/ccyhoPws.s:4882   .debug_loc:00000000000005ca .LLST27
     /tmp/ccyhoPws.s:4902   .debug_loc:0000000000000627 .LLST28
     /tmp/ccyhoPws.s:4910   .debug_loc:000000000000064b .LLST29
     /tmp/ccyhoPws.s:768    .text:000000000000024c .LVL74
     /tmp/ccyhoPws.s:775    .text:0000000000000260 .LVL75
     /tmp/ccyhoPws.s:780    .text:0000000000000270 .LVL76
     /tmp/ccyhoPws.s:792    .text:000000000000028c .LVL79
     /tmp/ccyhoPws.s:803    .text:0000000000000298 .LVL80
     /tmp/ccyhoPws.s:817    .text:00000000000002ac .LVL82
     /tmp/ccyhoPws.s:824    .text:00000000000002c0 .LVL83
     /tmp/ccyhoPws.s:829    .text:00000000000002d0 .LVL84
     /tmp/ccyhoPws.s:834    .text:00000000000002dc .LVL85
     /tmp/ccyhoPws.s:842    .text:00000000000002f0 .LVL88
     /tmp/ccyhoPws.s:849    .text:0000000000000304 .LVL89
     /tmp/ccyhoPws.s:854    .text:0000000000000314 .LVL90
     /tmp/ccyhoPws.s:864    .text:000000000000032c .LVL91
     /tmp/ccyhoPws.s:871    .text:0000000000000340 .LVL92
     /tmp/ccyhoPws.s:876    .text:0000000000000350 .LVL93
     /tmp/ccyhoPws.s:888    .text:000000000000036c .LVL96
     /tmp/ccyhoPws.s:896    .text:0000000000000380 .LVL97
     /tmp/ccyhoPws.s:576    .text:0000000000000144 .LFB53
     /tmp/ccyhoPws.s:698    .text:0000000000000218 .LFE53
     /tmp/ccyhoPws.s:4921   .debug_loc:0000000000000681 .LLST19
     /tmp/ccyhoPws.s:4935   .debug_loc:00000000000006ba .LLST20
     /tmp/ccyhoPws.s:594    .text:000000000000015c .LBB48
     /tmp/ccyhoPws.s:670    .text:00000000000001dc .LBE48
     /tmp/ccyhoPws.s:4949   .debug_loc:00000000000006f3 .LLST21
     /tmp/ccyhoPws.s:4961   .debug_loc:000000000000072a .LLST22
     /tmp/ccyhoPws.s:617    .text:000000000000017c .LBB52
     /tmp/ccyhoPws.s:632    .text:0000000000000194 .LBE52
     /tmp/ccyhoPws.s:4973   .debug_loc:0000000000000761 .LLST23
     /tmp/ccyhoPws.s:606    .text:000000000000016c .LVL56
     /tmp/ccyhoPws.s:648    .text:00000000000001b0 .LVL62
     /tmp/ccyhoPws.s:655    .text:00000000000001c4 .LVL63
     /tmp/ccyhoPws.s:660    .text:00000000000001d4 .LVL64
     /tmp/ccyhoPws.s:675    .text:00000000000001ec .LVL66
     /tmp/ccyhoPws.s:683    .text:0000000000000200 .LVL67
     /tmp/ccyhoPws.s:418    .text:0000000000000078 .LFB52
     /tmp/ccyhoPws.s:536    .text:0000000000000144 .LFE52
     /tmp/ccyhoPws.s:4984   .debug_loc:0000000000000797 .LLST13
     /tmp/ccyhoPws.s:4998   .debug_loc:00000000000007d0 .LLST14
     /tmp/ccyhoPws.s:436    .text:0000000000000090 .LBB40
     /tmp/ccyhoPws.s:512    .text:0000000000000110 .LBE40
     /tmp/ccyhoPws.s:5012   .debug_loc:0000000000000809 .LLST15
GAS LISTING /tmp/ccyhoPws.s 			page 51


     /tmp/ccyhoPws.s:5024   .debug_loc:0000000000000840 .LLST16
     /tmp/ccyhoPws.s:459    .text:00000000000000b0 .LBB44
     /tmp/ccyhoPws.s:474    .text:00000000000000c8 .LBE44
     /tmp/ccyhoPws.s:5036   .debug_loc:0000000000000877 .LLST17
     /tmp/ccyhoPws.s:448    .text:00000000000000a0 .LVL39
     /tmp/ccyhoPws.s:490    .text:00000000000000e4 .LVL45
     /tmp/ccyhoPws.s:497    .text:00000000000000f8 .LVL46
     /tmp/ccyhoPws.s:502    .text:0000000000000108 .LVL47
     /tmp/ccyhoPws.s:517    .text:0000000000000120 .LVL49
     /tmp/ccyhoPws.s:1107   .text._ZN7WorkerD3runEv:0000000000000000 .LFB51
     /tmp/ccyhoPws.s:1133   .text._ZN7WorkerD3runEv:000000000000002c .LFE51
     /tmp/ccyhoPws.s:5047   .debug_loc:00000000000008ad .LLST35
     /tmp/ccyhoPws.s:1123   .text._ZN7WorkerD3runEv:000000000000001c .LVL128
     /tmp/ccyhoPws.s:5294   .debug_str:0000000000000350 .LASF79
     /tmp/ccyhoPws.s:919    .text._ZN7WorkerC3runEv:0000000000000000 .LFB47
     /tmp/ccyhoPws.s:945    .text._ZN7WorkerC3runEv:000000000000002c .LFE47
     /tmp/ccyhoPws.s:5061   .debug_loc:00000000000008e6 .LLST30
     /tmp/ccyhoPws.s:935    .text._ZN7WorkerC3runEv:000000000000001c .LVL101
     /tmp/ccyhoPws.s:5382   .debug_str:00000000000005b1 .LASF80
     /tmp/ccyhoPws.s:705    .text._ZN7WorkerB3runEv:0000000000000000 .LFB43
     /tmp/ccyhoPws.s:731    .text._ZN7WorkerB3runEv:000000000000002c .LFE43
     /tmp/ccyhoPws.s:5075   .debug_loc:000000000000091f .LLST24
     /tmp/ccyhoPws.s:721    .text._ZN7WorkerB3runEv:000000000000001c .LVL70
     /tmp/ccyhoPws.s:5240   .debug_str:00000000000000e9 .LASF81
     /tmp/ccyhoPws.s:543    .text._ZN7WorkerA3runEv:0000000000000000 .LFB39
     /tmp/ccyhoPws.s:569    .text._ZN7WorkerA3runEv:000000000000002c .LFE39
     /tmp/ccyhoPws.s:5089   .debug_loc:0000000000000958 .LLST18
     /tmp/ccyhoPws.s:559    .text._ZN7WorkerA3runEv:000000000000001c .LVL52
     /tmp/ccyhoPws.s:5316   .debug_str:0000000000000404 .LASF82
     /tmp/ccyhoPws.s:5302   .debug_str:0000000000000385 .LASF100
     /tmp/ccyhoPws.s:9      .text:0000000000000000 .LFB35
     /tmp/ccyhoPws.s:83     .text:0000000000000078 .LFE35
     /tmp/ccyhoPws.s:5103   .debug_loc:0000000000000991 .LLST0
     /tmp/ccyhoPws.s:43     .text:000000000000003c .LVL2
     /tmp/ccyhoPws.s:48     .text:000000000000004c .LVL3
     /tmp/ccyhoPws.s:71     .text:0000000000000070 .LVL6
     /tmp/ccyhoPws.s:5318   .debug_str:0000000000000414 .LASF83
     /tmp/ccyhoPws.s:5212   .debug_str:0000000000000012 .LASF84
     /tmp/ccyhoPws.s:5254   .debug_str:0000000000000148 .LASF85
     /tmp/ccyhoPws.s:5412   .debug_str:0000000000000691 .LASF86
     /tmp/ccyhoPws.s:5370   .debug_str:0000000000000567 .LASF87
     /tmp/ccyhoPws.s:5396   .debug_str:0000000000000640 .LASF88
     /tmp/ccyhoPws.s:5400   .debug_str:000000000000065c .LASF101
     /tmp/ccyhoPws.s:5262   .debug_str:0000000000000172 .LASF102
     /tmp/ccyhoPws.s:5236   .debug_str:00000000000000ca .LASF89
     /tmp/ccyhoPws.s:5326   .debug_str:0000000000000456 .LASF90
     /tmp/ccyhoPws.s:5304   .debug_str:000000000000038f .LASF91
     /tmp/ccyhoPws.s:5336   .debug_str:000000000000048f .LASF92
     /tmp/ccyhoPws.s:129    .text._ZN7WorkerAD0Ev:0000000000000000 .LVL10
     /tmp/ccyhoPws.s:160    .text._ZN7WorkerAD0Ev:0000000000000044 .LVL14
     /tmp/ccyhoPws.s:141    .text._ZN7WorkerAD0Ev:0000000000000018 .LVL11
     /tmp/ccyhoPws.s:93     .text._ZN7WorkerAD2Ev:0000000000000000 .LVL8
     /tmp/ccyhoPws.s:211    .text._ZN7WorkerBD0Ev:0000000000000000 .LVL17
     /tmp/ccyhoPws.s:242    .text._ZN7WorkerBD0Ev:0000000000000044 .LVL21
     /tmp/ccyhoPws.s:223    .text._ZN7WorkerBD0Ev:0000000000000018 .LVL18
     /tmp/ccyhoPws.s:175    .text._ZN7WorkerBD2Ev:0000000000000000 .LVL15
     /tmp/ccyhoPws.s:293    .text._ZN7WorkerCD0Ev:0000000000000000 .LVL24
GAS LISTING /tmp/ccyhoPws.s 			page 52


     /tmp/ccyhoPws.s:324    .text._ZN7WorkerCD0Ev:0000000000000044 .LVL28
     /tmp/ccyhoPws.s:305    .text._ZN7WorkerCD0Ev:0000000000000018 .LVL25
     /tmp/ccyhoPws.s:257    .text._ZN7WorkerCD2Ev:0000000000000000 .LVL22
     /tmp/ccyhoPws.s:375    .text._ZN7WorkerDD0Ev:0000000000000000 .LVL31
     /tmp/ccyhoPws.s:406    .text._ZN7WorkerDD0Ev:0000000000000044 .LVL35
     /tmp/ccyhoPws.s:387    .text._ZN7WorkerDD0Ev:0000000000000018 .LVL32
     /tmp/ccyhoPws.s:339    .text._ZN7WorkerDD2Ev:0000000000000000 .LVL29
     /tmp/ccyhoPws.s:1275   .text:00000000000005dc .LVL149
     /tmp/ccyhoPws.s:1290   .text:0000000000000600 .LVL151
     /tmp/ccyhoPws.s:1292   .text:0000000000000604 .LVL152
     /tmp/ccyhoPws.s:1326   .text:0000000000000660 .LVL154
     /tmp/ccyhoPws.s:1339   .text:0000000000000674 .LVL157
     /tmp/ccyhoPws.s:1347   .text:0000000000000684 .LVL158
     /tmp/ccyhoPws.s:1328   .text:0000000000000664 .LVL155
     /tmp/ccyhoPws.s:1349   .text:0000000000000688 .LVL159
     /tmp/ccyhoPws.s:1396   .text:0000000000000704 .LVL168
     /tmp/ccyhoPws.s:1166   .text:0000000000000508 .LVL130
     /tmp/ccyhoPws.s:1176   .text:000000000000051c .LVL132
     /tmp/ccyhoPws.s:1194   .text:0000000000000540 .LVL135
     /tmp/ccyhoPws.s:1204   .text:0000000000000554 .LVL137
     /tmp/ccyhoPws.s:1222   .text:0000000000000578 .LVL140
     /tmp/ccyhoPws.s:1232   .text:000000000000058c .LVL142
     /tmp/ccyhoPws.s:1250   .text:00000000000005b0 .LVL145
     /tmp/ccyhoPws.s:1260   .text:00000000000005c4 .LVL147
     /tmp/ccyhoPws.s:955    .text:0000000000000398 .LVL102
     /tmp/ccyhoPws.s:972    .text:00000000000003b4 .LVL104
     /tmp/ccyhoPws.s:969    .text:00000000000003b0 .LVL103
     /tmp/ccyhoPws.s:997    .text:00000000000003f4 .LVL108
     /tmp/ccyhoPws.s:999    .text:00000000000003f8 .LVL109
     /tmp/ccyhoPws.s:1067   .text:000000000000049c .LVL121
     /tmp/ccyhoPws.s:1069   .text:00000000000004a0 .LVL122
     /tmp/ccyhoPws.s:1092   .text:00000000000004d4 .LVL125
     /tmp/ccyhoPws.s:1024   .text:0000000000000428 .LVL113
     /tmp/ccyhoPws.s:1028   .text:0000000000000430 .LVL114
     /tmp/ccyhoPws.s:1095   .text:00000000000004d8 .LVL126
     /tmp/ccyhoPws.s:741    .text:0000000000000218 .LVL71
     /tmp/ccyhoPws.s:758    .text:0000000000000234 .LVL73
     /tmp/ccyhoPws.s:755    .text:0000000000000230 .LVL72
     /tmp/ccyhoPws.s:783    .text:0000000000000274 .LVL77
     /tmp/ccyhoPws.s:785    .text:0000000000000278 .LVL78
     /tmp/ccyhoPws.s:879    .text:0000000000000354 .LVL94
     /tmp/ccyhoPws.s:881    .text:0000000000000358 .LVL95
     /tmp/ccyhoPws.s:904    .text:000000000000038c .LVL98
     /tmp/ccyhoPws.s:811    .text:000000000000029c .LVL81
     /tmp/ccyhoPws.s:836    .text:00000000000002e0 .LVL86
     /tmp/ccyhoPws.s:840    .text:00000000000002e8 .LVL87
     /tmp/ccyhoPws.s:907    .text:0000000000000390 .LVL99
     /tmp/ccyhoPws.s:579    .text:0000000000000144 .LVL53
     /tmp/ccyhoPws.s:598    .text:0000000000000164 .LVL55
     /tmp/ccyhoPws.s:593    .text:000000000000015c .LVL54
     /tmp/ccyhoPws.s:693    .text:0000000000000210 .LVL68
     /tmp/ccyhoPws.s:638    .text:0000000000000198 .LVL61
     /tmp/ccyhoPws.s:666    .text:00000000000001dc .LVL65
     /tmp/ccyhoPws.s:621    .text:0000000000000180 .LVL58
     /tmp/ccyhoPws.s:630    .text:0000000000000194 .LVL60
     /tmp/ccyhoPws.s:421    .text:0000000000000078 .LVL36
     /tmp/ccyhoPws.s:440    .text:0000000000000098 .LVL38
GAS LISTING /tmp/ccyhoPws.s 			page 53


     /tmp/ccyhoPws.s:435    .text:0000000000000090 .LVL37
     /tmp/ccyhoPws.s:531    .text:000000000000013c .LVL50
     /tmp/ccyhoPws.s:480    .text:00000000000000cc .LVL44
     /tmp/ccyhoPws.s:508    .text:0000000000000110 .LVL48
     /tmp/ccyhoPws.s:463    .text:00000000000000b4 .LVL41
     /tmp/ccyhoPws.s:472    .text:00000000000000c8 .LVL43
     /tmp/ccyhoPws.s:1110   .text._ZN7WorkerD3runEv:0000000000000000 .LVL127
     /tmp/ccyhoPws.s:922    .text._ZN7WorkerC3runEv:0000000000000000 .LVL100
     /tmp/ccyhoPws.s:708    .text._ZN7WorkerB3runEv:0000000000000000 .LVL69
     /tmp/ccyhoPws.s:546    .text._ZN7WorkerA3runEv:0000000000000000 .LVL51
     /tmp/ccyhoPws.s:13     .text:0000000000000000 .LVL0
     /tmp/ccyhoPws.s:37     .text:0000000000000030 .LVL1
     /tmp/ccyhoPws.s:59     .text:000000000000005c .LVL4
     /tmp/ccyhoPws.s:65     .text:0000000000000068 .LVL5
     /tmp/ccyhoPws.s:73     .text:0000000000000074 .LVL7
     /tmp/ccyhoPws.s:1569   .debug_info:0000000000000000 .Ldebug_info0
     /tmp/ccyhoPws.s:5      .text:0000000000000000 .Ltext0
     /tmp/ccyhoPws.s:1563   .text:0000000000000710 .Letext0
     /tmp/ccyhoPws.s:443    .text:0000000000000098 .LBB42
     /tmp/ccyhoPws.s:476    .text:00000000000000c8 .LBE42
     /tmp/ccyhoPws.s:504    .text:0000000000000108 .LBB46
     /tmp/ccyhoPws.s:510    .text:0000000000000110 .LBE46
     /tmp/ccyhoPws.s:601    .text:0000000000000164 .LBB50
     /tmp/ccyhoPws.s:634    .text:0000000000000194 .LBE50
     /tmp/ccyhoPws.s:662    .text:00000000000001d4 .LBB54
     /tmp/ccyhoPws.s:668    .text:00000000000001dc .LBE54
     /tmp/ccyhoPws.s:1406   .gcc_except_table:0000000000000000 .LLSDA56
                           .group:0000000000000000 _ZN7WorkerAD5Ev
                           .group:0000000000000000 _ZN7WorkerBD5Ev
                           .group:0000000000000000 _ZN7WorkerCD5Ev
                           .group:0000000000000000 _ZN7WorkerDD5Ev

UNDEFINED SYMBOLS
_Z15thread_dispatchv
_ZN6ThreadD2Ev
_ZdlPv
_Z11printStringPKc
_Z8printIntiii
_Znwm
_ZN6ThreadC2Ev
_ZN6Thread5startEv
_ZN6Thread8dispatchEv
_Unwind_Resume
__gxx_personality_v0
