GAS LISTING /tmp/ccozbpo1.s 			page 1


   1              		.file	"ThreadSleep_C_API_test.cpp"
   2              		.option nopic
   3              		.option norelax
   4              		.text
   5              	.Ltext0:
   6              		.align	2
   8              	_ZL9sleepyRunPv:
   9              	.LFB32:
  10              		.file 1 "test/ThreadSleep_C_API_test.cpp"
   1:test/ThreadSleep_C_API_test.cpp **** #include "../h/syscall_c.hpp"
   2:test/ThreadSleep_C_API_test.cpp **** 
   3:test/ThreadSleep_C_API_test.cpp **** #include "printing.hpp"
   4:test/ThreadSleep_C_API_test.cpp **** 
   5:test/ThreadSleep_C_API_test.cpp **** static volatile bool finished[2];
   6:test/ThreadSleep_C_API_test.cpp **** 
   7:test/ThreadSleep_C_API_test.cpp **** static void sleepyRun(void *arg) {
  11              		.loc 1 7 34
  12              		.cfi_startproc
  13              	.LVL0:
  14 0000 130101FE 		addi	sp,sp,-32
  15              		.cfi_def_cfa_offset 32
  16 0004 233C1100 		sd	ra,24(sp)
  17 0008 23388100 		sd	s0,16(sp)
  18 000c 23349100 		sd	s1,8(sp)
  19 0010 23302101 		sd	s2,0(sp)
  20              		.cfi_offset 1, -8
  21              		.cfi_offset 8, -16
  22              		.cfi_offset 9, -24
  23              		.cfi_offset 18, -32
  24 0014 13040102 		addi	s0,sp,32
  25              		.cfi_def_cfa 8, 0
   8:test/ThreadSleep_C_API_test.cpp ****     time_t sleep_time = *((time_t *) arg);
  26              		.loc 1 8 5
  27              		.loc 1 8 12 is_stmt 0
  28 0018 03390500 		ld	s2,0(a0)
  29              	.LVL1:
   9:test/ThreadSleep_C_API_test.cpp ****     int i = 6;
  30              		.loc 1 9 5 is_stmt 1
  31              		.loc 1 9 9 is_stmt 0
  32 001c 93046000 		li	s1,6
  33              	.LVL2:
  34              	.L3:
  10:test/ThreadSleep_C_API_test.cpp ****     while (--i > 0) {
  35              		.loc 1 10 5 is_stmt 1
  36              		.loc 1 10 16 is_stmt 0
  37 0020 9B84F4FF 		addiw	s1,s1,-1
  38              	.LVL3:
  39 0024 63549004 		blez	s1,.L2
  11:test/ThreadSleep_C_API_test.cpp ****         printString("Hello ");
  40              		.loc 1 11 9 is_stmt 1
  41              		.loc 1 11 20 is_stmt 0
  42 0028 17050000 		lla	a0,.LC0
  42      13050500 
  43 0030 97000000 		call	_Z11printStringPKc
  43      E7800000 
  44              	.LVL4:
  12:test/ThreadSleep_C_API_test.cpp ****         printInt(sleep_time);
GAS LISTING /tmp/ccozbpo1.s 			page 2


  45              		.loc 1 12 9 is_stmt 1
  46              		.loc 1 12 17 is_stmt 0
  47 0038 13060000 		li	a2,0
  48 003c 9305A000 		li	a1,10
  49 0040 1B050900 		sext.w	a0,s2
  50 0044 97000000 		call	_Z8printIntiii
  50      E7800000 
  51              	.LVL5:
  13:test/ThreadSleep_C_API_test.cpp ****         printString(" !\n");
  52              		.loc 1 13 9 is_stmt 1
  53              		.loc 1 13 20 is_stmt 0
  54 004c 17050000 		lla	a0,.LC1
  54      13050500 
  55 0054 97000000 		call	_Z11printStringPKc
  55      E7800000 
  56              	.LVL6:
  14:test/ThreadSleep_C_API_test.cpp ****         time_sleep(sleep_time);
  57              		.loc 1 14 9 is_stmt 1
  58              		.loc 1 14 19 is_stmt 0
  59 005c 13050900 		mv	a0,s2
  60 0060 97000000 		call	_Z10time_sleepm
  60      E7800000 
  61              	.LVL7:
  10:test/ThreadSleep_C_API_test.cpp ****         printString("Hello ");
  62              		.loc 1 10 5
  63 0068 6FF09FFB 		j	.L3
  64              	.L2:
  15:test/ThreadSleep_C_API_test.cpp ****     }
  16:test/ThreadSleep_C_API_test.cpp ****     finished[sleep_time/10-1] = true;
  65              		.loc 1 16 5 is_stmt 1
  66              		.loc 1 16 24 is_stmt 0
  67 006c 9307A000 		li	a5,10
  68 0070 3359F902 		divu	s2,s2,a5
  69              	.LVL8:
  70              		.loc 1 16 27
  71 0074 1309F9FF 		addi	s2,s2,-1
  72              		.loc 1 16 31
  73 0078 97070000 		lla	a5,_ZL8finished
  73      93870700 
  74 0080 33892701 		add	s2,a5,s2
  75 0084 93071000 		li	a5,1
  76 0088 2300F900 		sb	a5,0(s2)
  17:test/ThreadSleep_C_API_test.cpp **** }
  77              		.loc 1 17 1
  78 008c 83308101 		ld	ra,24(sp)
  79              		.cfi_restore 1
  80 0090 03340101 		ld	s0,16(sp)
  81              		.cfi_restore 8
  82 0094 83348100 		ld	s1,8(sp)
  83              		.cfi_restore 9
  84 0098 03390100 		ld	s2,0(sp)
  85              		.cfi_restore 18
  86 009c 13010102 		addi	sp,sp,32
  87              		.cfi_def_cfa_register 2
  88 00a0 67800000 		jr	ra
  89              		.cfi_endproc
  90              	.LFE32:
GAS LISTING /tmp/ccozbpo1.s 			page 3


  92              		.align	2
  93              		.globl	_Z12testSleepingv
  95              	_Z12testSleepingv:
  96              	.LFB33:
  18:test/ThreadSleep_C_API_test.cpp **** 
  19:test/ThreadSleep_C_API_test.cpp **** void testSleeping() {
  97              		.loc 1 19 21 is_stmt 1
  98              		.cfi_startproc
  99 00a4 130101FC 		addi	sp,sp,-64
 100              		.cfi_def_cfa_offset 64
 101 00a8 233C1102 		sd	ra,56(sp)
 102 00ac 23388102 		sd	s0,48(sp)
 103 00b0 23349102 		sd	s1,40(sp)
 104              		.cfi_offset 1, -8
 105              		.cfi_offset 8, -16
 106              		.cfi_offset 9, -24
 107 00b4 13040104 		addi	s0,sp,64
 108              		.cfi_def_cfa 8, 0
  20:test/ThreadSleep_C_API_test.cpp ****     const int sleepy_thread_count = 2;
 109              		.loc 1 20 5
 110              	.LVL9:
  21:test/ThreadSleep_C_API_test.cpp ****     time_t sleep_times[sleepy_thread_count] = {10, 20};
 111              		.loc 1 21 5
 112              		.loc 1 21 12 is_stmt 0
 113 00b8 9307A000 		li	a5,10
 114 00bc 2338F4FC 		sd	a5,-48(s0)
 115 00c0 93074001 		li	a5,20
 116 00c4 233CF4FC 		sd	a5,-40(s0)
  22:test/ThreadSleep_C_API_test.cpp ****     thread_t sleepyThread[sleepy_thread_count];
 117              		.loc 1 22 5 is_stmt 1
  23:test/ThreadSleep_C_API_test.cpp **** 
  24:test/ThreadSleep_C_API_test.cpp ****     for (int i = 0; i < sleepy_thread_count; i++) {
 118              		.loc 1 24 5
 119              	.LVL10:
 120              	.LBB2:
 121              		.loc 1 24 14 is_stmt 0
 122 00c8 93040000 		li	s1,0
 123              	.LVL11:
 124              	.L7:
 125              		.loc 1 24 23 discriminator 1
 126 00cc 93071000 		li	a5,1
 127 00d0 63C89702 		bgt	s1,a5,.L8
  25:test/ThreadSleep_C_API_test.cpp ****         thread_create(&sleepyThread[i], sleepyRun, sleep_times + i);
 128              		.loc 1 25 9 is_stmt 1
 129              		.loc 1 25 64 is_stmt 0
 130 00d4 13953400 		slli	a0,s1,3
 131              		.loc 1 25 22
 132 00d8 930704FD 		addi	a5,s0,-48
 133 00dc 3386A700 		add	a2,a5,a0
 134 00e0 97050000 		lla	a1,_ZL9sleepyRunPv
 134      93850500 
 135 00e8 930704FC 		addi	a5,s0,-64
 136 00ec 3385A700 		add	a0,a5,a0
 137 00f0 97000000 		call	_Z13thread_createPP3TCBPFvPvES2_
 137      E7800000 
 138              	.LVL12:
  24:test/ThreadSleep_C_API_test.cpp ****         thread_create(&sleepyThread[i], sleepyRun, sleep_times + i);
GAS LISTING /tmp/ccozbpo1.s 			page 4


 139              		.loc 1 24 5
 140 00f8 9B841400 		addiw	s1,s1,1
 141              	.LVL13:
 142 00fc 6FF01FFD 		j	.L7
 143              	.LVL14:
 144              	.L8:
 145              	.LBE2:
  26:test/ThreadSleep_C_API_test.cpp ****     }
  27:test/ThreadSleep_C_API_test.cpp **** 
  28:test/ThreadSleep_C_API_test.cpp ****     while (!(finished[0] && finished[1])) {}
 146              		.loc 1 28 5 is_stmt 1
 147              		.loc 1 28 24 is_stmt 0
 148 0100 97070000 		lla	a5,_ZL8finished
 148      93870700 
 149 0108 83C70700 		lbu	a5,0(a5)
 150 010c 93F7F70F 		andi	a5,a5,0xff
 151              		.loc 1 28 12
 152 0110 E38807FE 		beqz	a5,.L8
 153              		.loc 1 28 39 discriminator 2
 154 0114 97070000 		lla	a5,_ZL8finished
 154      93870700 
 155 011c 83C71700 		lbu	a5,1(a5)
 156 0120 93F7F70F 		andi	a5,a5,0xff
 157              		.loc 1 28 12 discriminator 2
 158 0124 E38E07FC 		beqz	a5,.L8
  29:test/ThreadSleep_C_API_test.cpp **** }
 159              		.loc 1 29 1
 160 0128 83308103 		ld	ra,56(sp)
 161              		.cfi_restore 1
 162 012c 03340103 		ld	s0,48(sp)
 163              		.cfi_restore 8
 164 0130 83348102 		ld	s1,40(sp)
 165              		.cfi_restore 9
 166              	.LVL15:
 167 0134 13010104 		addi	sp,sp,64
 168              		.cfi_def_cfa_register 2
 169 0138 67800000 		jr	ra
 170              		.cfi_endproc
 171              	.LFE33:
 173              		.section	.rodata.str1.8,"aMS",@progbits,1
 174              		.align	3
 175              	.LC0:
 176 0000 48656C6C 		.string	"Hello "
 176      6F2000
 177 0007 00       		.zero	1
 178              	.LC1:
 179 0008 20210A00 		.string	" !\n"
 180              		.section	.sbss,"aw",@nobits
 181              		.align	3
 184              	_ZL8finished:
 185 0000 0000     		.zero	2
 186              		.text
 187              	.Letext0:
 188              		.file 2 "test/../h/../lib/hw.h"
 189              		.file 3 "test/../h/../h/list.hpp"
 190              		.file 4 "test/../h/../h/tcb.hpp"
 191              		.file 5 "test/../h/syscall_c.hpp"
GAS LISTING /tmp/ccozbpo1.s 			page 5


 192              		.file 6 "test/printing.hpp"
GAS LISTING /tmp/ccozbpo1.s 			page 6


DEFINED SYMBOLS
                            *ABS*:0000000000000000 ThreadSleep_C_API_test.cpp
     /tmp/ccozbpo1.s:8      .text:0000000000000000 _ZL9sleepyRunPv
     /tmp/ccozbpo1.s:12     .text:0000000000000000 .L0 
     /tmp/ccozbpo1.s:14     .text:0000000000000000 .L0 
     /tmp/ccozbpo1.s:15     .text:0000000000000004 .L0 
     /tmp/ccozbpo1.s:20     .text:0000000000000014 .L0 
     /tmp/ccozbpo1.s:21     .text:0000000000000014 .L0 
     /tmp/ccozbpo1.s:22     .text:0000000000000014 .L0 
     /tmp/ccozbpo1.s:23     .text:0000000000000014 .L0 
     /tmp/ccozbpo1.s:25     .text:0000000000000018 .L0 
     /tmp/ccozbpo1.s:27     .text:0000000000000018 .L0 
     /tmp/ccozbpo1.s:28     .text:0000000000000018 .L0 
     /tmp/ccozbpo1.s:31     .text:000000000000001c .L0 
     /tmp/ccozbpo1.s:32     .text:000000000000001c .L0 
     /tmp/ccozbpo1.s:36     .text:0000000000000020 .L0 
     /tmp/ccozbpo1.s:37     .text:0000000000000020 .L0 
     /tmp/ccozbpo1.s:41     .text:0000000000000028 .L0 
     /tmp/ccozbpo1.s:42     .text:0000000000000028 .L0 
     /tmp/ccozbpo1.s:46     .text:0000000000000038 .L0 
     /tmp/ccozbpo1.s:47     .text:0000000000000038 .L0 
     /tmp/ccozbpo1.s:53     .text:000000000000004c .L0 
     /tmp/ccozbpo1.s:54     .text:000000000000004c .L0 
     /tmp/ccozbpo1.s:58     .text:000000000000005c .L0 
     /tmp/ccozbpo1.s:59     .text:000000000000005c .L0 
     /tmp/ccozbpo1.s:63     .text:0000000000000068 .L0 
     /tmp/ccozbpo1.s:66     .text:000000000000006c .L0 
     /tmp/ccozbpo1.s:67     .text:000000000000006c .L0 
     /tmp/ccozbpo1.s:71     .text:0000000000000074 .L0 
     /tmp/ccozbpo1.s:184    .sbss:0000000000000000 _ZL8finished
     /tmp/ccozbpo1.s:73     .text:0000000000000078 .L0 
     /tmp/ccozbpo1.s:78     .text:000000000000008c .L0 
     /tmp/ccozbpo1.s:79     .text:0000000000000090 .L0 
     /tmp/ccozbpo1.s:81     .text:0000000000000094 .L0 
     /tmp/ccozbpo1.s:83     .text:0000000000000098 .L0 
     /tmp/ccozbpo1.s:85     .text:000000000000009c .L0 
     /tmp/ccozbpo1.s:87     .text:00000000000000a0 .L0 
     /tmp/ccozbpo1.s:89     .text:00000000000000a4 .L0 
     /tmp/ccozbpo1.s:95     .text:00000000000000a4 _Z12testSleepingv
     /tmp/ccozbpo1.s:98     .text:00000000000000a4 .L0 
     /tmp/ccozbpo1.s:99     .text:00000000000000a4 .L0 
     /tmp/ccozbpo1.s:100    .text:00000000000000a8 .L0 
     /tmp/ccozbpo1.s:104    .text:00000000000000b4 .L0 
     /tmp/ccozbpo1.s:105    .text:00000000000000b4 .L0 
     /tmp/ccozbpo1.s:106    .text:00000000000000b4 .L0 
     /tmp/ccozbpo1.s:108    .text:00000000000000b8 .L0 
     /tmp/ccozbpo1.s:111    .text:00000000000000b8 .L0 
     /tmp/ccozbpo1.s:112    .text:00000000000000b8 .L0 
     /tmp/ccozbpo1.s:113    .text:00000000000000b8 .L0 
     /tmp/ccozbpo1.s:118    .text:00000000000000c8 .L0 
     /tmp/ccozbpo1.s:121    .text:00000000000000c8 .L0 
     /tmp/ccozbpo1.s:122    .text:00000000000000c8 .L0 
     /tmp/ccozbpo1.s:126    .text:00000000000000cc .L0 
     /tmp/ccozbpo1.s:129    .text:00000000000000d4 .L0 
     /tmp/ccozbpo1.s:130    .text:00000000000000d4 .L0 
     /tmp/ccozbpo1.s:132    .text:00000000000000d8 .L0 
     /tmp/ccozbpo1.s:140    .text:00000000000000f8 .L0 
GAS LISTING /tmp/ccozbpo1.s 			page 7


     /tmp/ccozbpo1.s:147    .text:0000000000000100 .L0 
     /tmp/ccozbpo1.s:148    .text:0000000000000100 .L0 
     /tmp/ccozbpo1.s:152    .text:0000000000000110 .L0 
     /tmp/ccozbpo1.s:154    .text:0000000000000114 .L0 
     /tmp/ccozbpo1.s:158    .text:0000000000000124 .L0 
     /tmp/ccozbpo1.s:160    .text:0000000000000128 .L0 
     /tmp/ccozbpo1.s:161    .text:000000000000012c .L0 
     /tmp/ccozbpo1.s:163    .text:0000000000000130 .L0 
     /tmp/ccozbpo1.s:165    .text:0000000000000134 .L0 
     /tmp/ccozbpo1.s:168    .text:0000000000000138 .L0 
     /tmp/ccozbpo1.s:170    .text:000000000000013c .L0 
     /tmp/ccozbpo1.s:193    .text:000000000000013c .L0 
     /tmp/ccozbpo1.s:175    .rodata.str1.8:0000000000000000 .LC0
     /tmp/ccozbpo1.s:42     .text:0000000000000028 .L0 
     /tmp/ccozbpo1.s:178    .rodata.str1.8:0000000000000008 .LC1
     /tmp/ccozbpo1.s:54     .text:000000000000004c .L0 
     /tmp/ccozbpo1.s:73     .text:0000000000000078 .L0 
     /tmp/ccozbpo1.s:134    .text:00000000000000e0 .L0 
     /tmp/ccozbpo1.s:148    .text:0000000000000100 .L0 
     /tmp/ccozbpo1.s:154    .text:0000000000000114 .L0 
     /tmp/ccozbpo1.s:64     .text:000000000000006c .L2
     /tmp/ccozbpo1.s:34     .text:0000000000000020 .L3
     /tmp/ccozbpo1.s:144    .text:0000000000000100 .L8
     /tmp/ccozbpo1.s:124    .text:00000000000000cc .L7
     /tmp/ccozbpo1.s:1125   .debug_abbrev:0000000000000000 .Ldebug_abbrev0
     /tmp/ccozbpo1.s:2155   .debug_str:00000000000003e7 .LASF99
     /tmp/ccozbpo1.s:2111   .debug_str:000000000000028a .LASF100
     /tmp/ccozbpo1.s:2059   .debug_str:0000000000000117 .LASF101
     /tmp/ccozbpo1.s:5      .text:0000000000000000 .Ltext0
     /tmp/ccozbpo1.s:187    .text:000000000000013c .Letext0
     /tmp/ccozbpo1.s:2023   .debug_line:0000000000000000 .Ldebug_line0
     /tmp/ccozbpo1.s:2163   .debug_str:00000000000004d7 .LASF0
     /tmp/ccozbpo1.s:2177   .debug_str:0000000000000539 .LASF1
     /tmp/ccozbpo1.s:2151   .debug_str:00000000000003cd .LASF2
     /tmp/ccozbpo1.s:2119   .debug_str:00000000000002ee .LASF4
     /tmp/ccozbpo1.s:2207   .debug_str:0000000000000640 .LASF3
     /tmp/ccozbpo1.s:2047   .debug_str:00000000000000c3 .LASF5
     /tmp/ccozbpo1.s:2077   .debug_str:0000000000000197 .LASF6
     /tmp/ccozbpo1.s:2183   .debug_str:000000000000058a .LASF7
     /tmp/ccozbpo1.s:2161   .debug_str:00000000000004c4 .LASF8
     /tmp/ccozbpo1.s:2231   .debug_str:00000000000006f6 .LASF9
     /tmp/ccozbpo1.s:2101   .debug_str:0000000000000233 .LASF10
     /tmp/ccozbpo1.s:2189   .debug_str:00000000000005c5 .LASF11
     /tmp/ccozbpo1.s:2225   .debug_str:00000000000006d5 .LASF12
     /tmp/ccozbpo1.s:2051   .debug_str:00000000000000d5 .LASF13
     /tmp/ccozbpo1.s:2029   .debug_str:0000000000000027 .LASF14
     /tmp/ccozbpo1.s:2063   .debug_str:0000000000000138 .LASF15
     /tmp/ccozbpo1.s:2203   .debug_str:0000000000000624 .LASF16
     /tmp/ccozbpo1.s:2071   .debug_str:000000000000016e .LASF17
     /tmp/ccozbpo1.s:2141   .debug_str:000000000000038e .LASF44
     /tmp/ccozbpo1.s:2143   .debug_str:0000000000000398 .LASF102
     /tmp/ccozbpo1.s:2075   .debug_str:0000000000000192 .LASF18
     /tmp/ccozbpo1.s:2147   .debug_str:00000000000003aa .LASF19
     /tmp/ccozbpo1.s:2227   .debug_str:00000000000006e4 .LASF20
     /tmp/ccozbpo1.s:2117   .debug_str:00000000000002e9 .LASF21
     /tmp/ccozbpo1.s:2215   .debug_str:0000000000000687 .LASF32
     /tmp/ccozbpo1.s:2199   .debug_str:0000000000000602 .LASF23
GAS LISTING /tmp/ccozbpo1.s 			page 8


     /tmp/ccozbpo1.s:2157   .debug_str:00000000000004ab .LASF103
     /tmp/ccozbpo1.s:2107   .debug_str:000000000000025a .LASF104
     /tmp/ccozbpo1.s:2233   .debug_str:0000000000000706 .LASF22
     /tmp/ccozbpo1.s:2179   .debug_str:000000000000054c .LASF24
     /tmp/ccozbpo1.s:2079   .debug_str:000000000000019e .LASF25
     /tmp/ccozbpo1.s:2149   .debug_str:00000000000003af .LASF26
     /tmp/ccozbpo1.s:2057   .debug_str:000000000000010f .LASF27
     /tmp/ccozbpo1.s:2053   .debug_str:00000000000000e5 .LASF28
     /tmp/ccozbpo1.s:2201   .debug_str:0000000000000619 .LASF29
     /tmp/ccozbpo1.s:2187   .debug_str:00000000000005a8 .LASF30
     /tmp/ccozbpo1.s:2219   .debug_str:00000000000006b3 .LASF31
     /tmp/ccozbpo1.s:2083   .debug_str:00000000000001c6 .LASF33
     /tmp/ccozbpo1.s:2099   .debug_str:000000000000022b .LASF34
     /tmp/ccozbpo1.s:2081   .debug_str:00000000000001aa .LASF35
     /tmp/ccozbpo1.s:2223   .debug_str:00000000000006c9 .LASF36
     /tmp/ccozbpo1.s:2027   .debug_str:0000000000000009 .LASF37
     /tmp/ccozbpo1.s:2061   .debug_str:000000000000012e .LASF38
     /tmp/ccozbpo1.s:2133   .debug_str:000000000000034c .LASF39
     /tmp/ccozbpo1.s:2171   .debug_str:0000000000000504 .LASF40
     /tmp/ccozbpo1.s:2039   .debug_str:0000000000000068 .LASF41
     /tmp/ccozbpo1.s:2137   .debug_str:0000000000000377 .LASF42
     /tmp/ccozbpo1.s:2241   .debug_str:0000000000000737 .LASF43
     /tmp/ccozbpo1.s:2035   .debug_str:0000000000000055 .LASF105
     /tmp/ccozbpo1.s:2239   .debug_str:000000000000072a .LASF45
     /tmp/ccozbpo1.s:2045   .debug_str:00000000000000b7 .LASF46
     /tmp/ccozbpo1.s:2097   .debug_str:000000000000021b .LASF47
     /tmp/ccozbpo1.s:2105   .debug_str:000000000000024e .LASF48
     /tmp/ccozbpo1.s:2211   .debug_str:0000000000000664 .LASF49
     /tmp/ccozbpo1.s:2197   .debug_str:00000000000005f5 .LASF51
     /tmp/ccozbpo1.s:2213   .debug_str:0000000000000674 .LASF50
     /tmp/ccozbpo1.s:2221   .debug_str:00000000000006bc .LASF52
     /tmp/ccozbpo1.s:2085   .debug_str:00000000000001e3 .LASF53
     /tmp/ccozbpo1.s:2193   .debug_str:00000000000005e4 .LASF54
     /tmp/ccozbpo1.s:2185   .debug_str:000000000000059d .LASF55
     /tmp/ccozbpo1.s:2069   .debug_str:0000000000000157 .LASF56
     /tmp/ccozbpo1.s:2153   .debug_str:00000000000003db .LASF57
     /tmp/ccozbpo1.s:2113   .debug_str:00000000000002aa .LASF58
     /tmp/ccozbpo1.s:2145   .debug_str:000000000000039d .LASF59
     /tmp/ccozbpo1.s:2217   .debug_str:000000000000069a .LASF60
     /tmp/ccozbpo1.s:2131   .debug_str:000000000000033f .LASF61
     /tmp/ccozbpo1.s:2043   .debug_str:0000000000000095 .LASF62
     /tmp/ccozbpo1.s:2195   .debug_str:00000000000005f0 .LASF106
     /tmp/ccozbpo1.s:2205   .debug_str:000000000000063a .LASF65
     /tmp/ccozbpo1.s:2041   .debug_str:0000000000000085 .LASF67
     /tmp/ccozbpo1.s:2087   .debug_str:00000000000001e8 .LASF107
     /tmp/ccozbpo1.s:2247   .debug_str:0000000000000778 .LASF63
     /tmp/ccozbpo1.s:2173   .debug_str:000000000000050f .LASF64
     /tmp/ccozbpo1.s:2209   .debug_str:0000000000000652 .LASF66
     /tmp/ccozbpo1.s:2121   .debug_str:00000000000002f5 .LASF68
     /tmp/ccozbpo1.s:2129   .debug_str:0000000000000328 .LASF108
     /tmp/ccozbpo1.s:2125   .debug_str:000000000000031b .LASF69
     /tmp/ccozbpo1.s:2067   .debug_str:0000000000000151 .LASF70
     /tmp/ccozbpo1.s:2127   .debug_str:0000000000000320 .LASF71
     /tmp/ccozbpo1.s:2175   .debug_str:000000000000052f .LASF72
     /tmp/ccozbpo1.s:2123   .debug_str:0000000000000312 .LASF73
     /tmp/ccozbpo1.s:2229   .debug_str:00000000000006ec .LASF74
     /tmp/ccozbpo1.s:2135   .debug_str:0000000000000367 .LASF79
GAS LISTING /tmp/ccozbpo1.s 			page 9


     /tmp/ccozbpo1.s:2139   .debug_str:0000000000000380 .LASF75
     /tmp/ccozbpo1.s:2109   .debug_str:0000000000000271 .LASF77
     /tmp/ccozbpo1.s:2235   .debug_str:0000000000000711 .LASF109
     /tmp/ccozbpo1.s:2115   .debug_str:00000000000002c1 .LASF110
     /tmp/ccozbpo1.s:2167   .debug_str:00000000000004ef .LASF76
     /tmp/ccozbpo1.s:2091   .debug_str:00000000000001fa .LASF78
     /tmp/ccozbpo1.s:2055   .debug_str:00000000000000fe .LASF80
     /tmp/ccozbpo1.s:2049   .debug_str:00000000000000ca .LASF81
     /tmp/ccozbpo1.s:2237   .debug_str:000000000000071f .LASF82
     /tmp/ccozbpo1.s:2093   .debug_str:000000000000020d .LASF83
     /tmp/ccozbpo1.s:2025   .debug_str:0000000000000000 .LASF84
     /tmp/ccozbpo1.s:2103   .debug_str:0000000000000241 .LASF85
     /tmp/ccozbpo1.s:2031   .debug_str:0000000000000037 .LASF86
     /tmp/ccozbpo1.s:96     .text:00000000000000a4 .LFB33
     /tmp/ccozbpo1.s:171    .text:000000000000013c .LFE33
     /tmp/ccozbpo1.s:2245   .debug_str:0000000000000764 .LASF87
     /tmp/ccozbpo1.s:2169   .debug_str:00000000000004f8 .LASF88
     /tmp/ccozbpo1.s:2065   .debug_str:0000000000000144 .LASF89
     /tmp/ccozbpo1.s:120    .text:00000000000000c8 .LBB2
     /tmp/ccozbpo1.s:145    .text:0000000000000100 .LBE2
     /tmp/ccozbpo1.s:1961   .debug_loc:0000000000000000 .LLST3
     /tmp/ccozbpo1.s:138    .text:00000000000000f8 .LVL12
     /tmp/ccozbpo1.s:2089   .debug_str:00000000000001f0 .LASF111
     /tmp/ccozbpo1.s:9      .text:0000000000000000 .LFB32
     /tmp/ccozbpo1.s:90     .text:00000000000000a4 .LFE32
     /tmp/ccozbpo1.s:1977   .debug_loc:000000000000004a .LLST0
     /tmp/ccozbpo1.s:2165   .debug_str:00000000000004e4 .LASF90
     /tmp/ccozbpo1.s:1991   .debug_loc:0000000000000083 .LLST1
     /tmp/ccozbpo1.s:1998   .debug_loc:00000000000000a6 .LLST2
     /tmp/ccozbpo1.s:44     .text:0000000000000038 .LVL4
     /tmp/ccozbpo1.s:51     .text:000000000000004c .LVL5
     /tmp/ccozbpo1.s:56     .text:000000000000005c .LVL6
     /tmp/ccozbpo1.s:61     .text:0000000000000068 .LVL7
     /tmp/ccozbpo1.s:2181   .debug_str:0000000000000569 .LASF91
     /tmp/ccozbpo1.s:2073   .debug_str:0000000000000184 .LASF93
     /tmp/ccozbpo1.s:2243   .debug_str:0000000000000751 .LASF92
     /tmp/ccozbpo1.s:2033   .debug_str:0000000000000049 .LASF94
     /tmp/ccozbpo1.s:2159   .debug_str:00000000000004b5 .LASF95
     /tmp/ccozbpo1.s:2095   .debug_str:0000000000000212 .LASF96
     /tmp/ccozbpo1.s:2191   .debug_str:00000000000005d4 .LASF97
     /tmp/ccozbpo1.s:2037   .debug_str:000000000000005d .LASF98
     /tmp/ccozbpo1.s:119    .text:00000000000000c8 .LVL10
     /tmp/ccozbpo1.s:123    .text:00000000000000cc .LVL11
     /tmp/ccozbpo1.s:141    .text:00000000000000fc .LVL13
     /tmp/ccozbpo1.s:143    .text:0000000000000100 .LVL14
     /tmp/ccozbpo1.s:166    .text:0000000000000134 .LVL15
     /tmp/ccozbpo1.s:13     .text:0000000000000000 .LVL0
     /tmp/ccozbpo1.s:33     .text:0000000000000020 .LVL2
     /tmp/ccozbpo1.s:29     .text:000000000000001c .LVL1
     /tmp/ccozbpo1.s:69     .text:0000000000000074 .LVL8
     /tmp/ccozbpo1.s:38     .text:0000000000000024 .LVL3
     /tmp/ccozbpo1.s:194    .debug_info:0000000000000000 .Ldebug_info0

UNDEFINED SYMBOLS
_Z11printStringPKc
_Z8printIntiii
_Z10time_sleepm
GAS LISTING /tmp/ccozbpo1.s 			page 10


_Z13thread_createPP3TCBPFvPvES2_
