GAS LISTING /tmp/ccozbpo1.s 			page 1


   1              		.file	"ThreadSleep_C_API_test.cpp"
   2              		.option nopic
   3              		.option norelax
   4              		.text
   5              	.Ltext0:
   6              		.align	2
   8              	_ZL9sleepyRunPv:
   9              	.LFB32:
  10              		.file 1 "test/ThreadSleep_C_API_test.cpp"
   1:test/ThreadSleep_C_API_test.cpp **** #include "../h/syscall_c.hpp"
   2:test/ThreadSleep_C_API_test.cpp **** 
   3:test/ThreadSleep_C_API_test.cpp **** #include "printing.hpp"
   4:test/ThreadSleep_C_API_test.cpp **** 
   5:test/ThreadSleep_C_API_test.cpp **** static volatile bool finished[2];
   6:test/ThreadSleep_C_API_test.cpp **** 
   7:test/ThreadSleep_C_API_test.cpp **** static void sleepyRun(void *arg) {
  11              		.loc 1 7 34
  12              		.cfi_startproc
  13              	.LVL0:
  14 0000 130101FE 		addi	sp,sp,-32
  15              		.cfi_def_cfa_offset 32
  16 0004 233C1100 		sd	ra,24(sp)
  17 0008 23388100 		sd	s0,16(sp)
  18 000c 23349100 		sd	s1,8(sp)
  19 0010 23302101 		sd	s2,0(sp)
  20              		.cfi_offset 1, -8
  21              		.cfi_offset 8, -16
  22              		.cfi_offset 9, -24
  23              		.cfi_offset 18, -32
  24 0014 13040102 		addi	s0,sp,32
  25              		.cfi_def_cfa 8, 0
   8:test/ThreadSleep_C_API_test.cpp ****     time_t sleep_time = *((time_t *) arg);
  26              		.loc 1 8 5
  27              		.loc 1 8 12 is_stmt 0
  28 0018 03390500 		ld	s2,0(a0)
  29              	.LVL1:
   9:test/ThreadSleep_C_API_test.cpp ****     int i = 6;
  30              		.loc 1 9 5 is_stmt 1
  31              		.loc 1 9 9 is_stmt 0
  32 001c 93046000 		li	s1,6
  33              	.LVL2:
  34              	.L3:
  10:test/ThreadSleep_C_API_test.cpp ****     while (--i > 0) {
  35              		.loc 1 10 5 is_stmt 1
  36              		.loc 1 10 16 is_stmt 0
  37 0020 9B84F4FF 		addiw	s1,s1,-1
  38              	.LVL3:
  39 0024 63549004 		blez	s1,.L2
  11:test/ThreadSleep_C_API_test.cpp ****         printString("Hello ");
  40              		.loc 1 11 9 is_stmt 1
  41              		.loc 1 11 20 is_stmt 0
  42 0028 17050000 		lla	a0,.LC0
  42      13050500 
  43 0030 97000000 		call	_Z11printStringPKc
  43      E7800000 
  44              	.LVL4:
  12:test/ThreadSleep_C_API_test.cpp ****         printInt(sleep_time);
GAS LISTING /tmp/ccozbpo1.s 			page 2


  45              		.loc 1 12 9 is_stmt 1
  46              		.loc 1 12 17 is_stmt 0
  47 0038 13060000 		li	a2,0
  48 003c 9305A000 		li	a1,10
  49 0040 1B050900 		sext.w	a0,s2
  50 0044 97000000 		call	_Z8printIntiii
  50      E7800000 
  51              	.LVL5:
  13:test/ThreadSleep_C_API_test.cpp ****         printString(" !\n");
  52              		.loc 1 13 9 is_stmt 1
  53              		.loc 1 13 20 is_stmt 0
  54 004c 17050000 		lla	a0,.LC1
  54      13050500 
  55 0054 97000000 		call	_Z11printStringPKc
  55      E7800000 
  56              	.LVL6:
  14:test/ThreadSleep_C_API_test.cpp ****         time_sleep(sleep_time);
  57              		.loc 1 14 9 is_stmt 1
  58              		.loc 1 14 19 is_stmt 0
  59 005c 13050900 		mv	a0,s2
  60 0060 97000000 		call	_Z10time_sleepm
  60      E7800000 
  61              	.LVL7:
  10:test/ThreadSleep_C_API_test.cpp ****         printString("Hello ");
  62              		.loc 1 10 5
  63 0068 6FF09FFB 		j	.L3
  64              	.L2:
  15:test/ThreadSleep_C_API_test.cpp ****     }
  16:test/ThreadSleep_C_API_test.cpp ****     finished[sleep_time/10-1] = true;
  65              		.loc 1 16 5 is_stmt 1
  66              		.loc 1 16 24 is_stmt 0
  67 006c 9307A000 		li	a5,10
  68 0070 3359F902 		divu	s2,s2,a5
  69              	.LVL8:
  70              		.loc 1 16 27
  71 0074 1309F9FF 		addi	s2,s2,-1
  72              		.loc 1 16 31
  73 0078 97070000 		lla	a5,_ZL8finished
  73      93870700 
  74 0080 33892701 		add	s2,a5,s2
  75 0084 93071000 		li	a5,1
  76 0088 2300F900 		sb	a5,0(s2)
  17:test/ThreadSleep_C_API_test.cpp **** }
  77              		.loc 1 17 1
  78 008c 83308101 		ld	ra,24(sp)
  79              		.cfi_restore 1
  80 0090 03340101 		ld	s0,16(sp)
  81              		.cfi_restore 8
  82 0094 83348100 		ld	s1,8(sp)
  83              		.cfi_restore 9
  84 0098 03390100 		ld	s2,0(sp)
  85              		.cfi_restore 18
  86 009c 13010102 		addi	sp,sp,32
  87              		.cfi_def_cfa_register 2
  88 00a0 67800000 		jr	ra
  89              		.cfi_endproc
  90              	.LFE32:
GAS LISTING /tmp/ccozbpo1.s 			page 3


  92              		.align	2
  93              		.globl	_Z12testSleepingv
  95              	_Z12testSleepingv:
  96              	.LFB33:
  18:test/ThreadSleep_C_API_test.cpp **** 
  19:test/ThreadSleep_C_API_test.cpp **** void testSleeping() {
  97              		.loc 1 19 21 is_stmt 1
  98              		.cfi_startproc
  99 00a4 130101FC 		addi	sp,sp,-64
 100              		.cfi_def_cfa_offset 64
 101 00a8 233C1102 		sd	ra,56(sp)
 102 00ac 23388102 		sd	s0,48(sp)
 103 00b0 23349102 		sd	s1,40(sp)
 104              		.cfi_offset 1, -8
 105              		.cfi_offset 8, -16
 106              		.cfi_offset 9, -24
 107 00b4 13040104 		addi	s0,sp,64
 108              		.cfi_def_cfa 8, 0
  20:test/ThreadSleep_C_API_test.cpp ****     const int sleepy_thread_count = 2;
 109              		.loc 1 20 5
 110              	.LVL9:
  21:test/ThreadSleep_C_API_test.cpp ****     time_t sleep_times[sleepy_thread_count] = {10, 20};
 111              		.loc 1 21 5
 112              		.loc 1 21 12 is_stmt 0
 113 00b8 9307A000 		li	a5,10
 114 00bc 2338F4FC 		sd	a5,-48(s0)
 115 00c0 93074001 		li	a5,20
 116 00c4 233CF4FC 		sd	a5,-40(s0)
  22:test/ThreadSleep_C_API_test.cpp ****     thread_t sleepyThread[sleepy_thread_count];
 117              		.loc 1 22 5 is_stmt 1
  23:test/ThreadSleep_C_API_test.cpp **** 
  24:test/ThreadSleep_C_API_test.cpp ****     for (int i = 0; i < sleepy_thread_count; i++) {
 118              		.loc 1 24 5
 119              	.LVL10:
 120              	.LBB2:
 121              		.loc 1 24 14 is_stmt 0
 122 00c8 93040000 		li	s1,0
 123              	.LVL11:
 124              	.L7:
 125              		.loc 1 24 23 discriminator 1
 126 00cc 93071000 		li	a5,1
 127 00d0 63C89702 		bgt	s1,a5,.L8
  25:test/ThreadSleep_C_API_test.cpp ****         thread_create(&sleepyThread[i], sleepyRun, sleep_times + i);
 128              		.loc 1 25 9 is_stmt 1
 129              		.loc 1 25 64 is_stmt 0
 130 00d4 13953400 		slli	a0,s1,3
 131              		.loc 1 25 22
 132 00d8 930704FD 		addi	a5,s0,-48
 133 00dc 3386A700 		add	a2,a5,a0
 134 00e0 97050000 		lla	a1,_ZL9sleepyRunPv
 134      93850500 
 135 00e8 930704FC 		addi	a5,s0,-64
 136 00ec 3385A700 		add	a0,a5,a0
 137 00f0 97000000 		call	_Z13thread_createPP3TCBPFvPvES2_
 137      E7800000 
 138              	.LVL12:
  24:test/ThreadSleep_C_API_test.cpp ****         thread_create(&sleepyThread[i], sleepyRun, sleep_times + i);
GAS LISTING /tmp/ccozbpo1.s 			page 4


 139              		.loc 1 24 5
 140 00f8 9B841400 		addiw	s1,s1,1
 141              	.LVL13:
 142 00fc 6FF01FFD 		j	.L7
 143              	.LVL14:
 144              	.L8:
 145              	.LBE2:
  26:test/ThreadSleep_C_API_test.cpp ****     }
  27:test/ThreadSleep_C_API_test.cpp **** 
  28:test/ThreadSleep_C_API_test.cpp ****     while (!(finished[0] && finished[1])) {}
 146              		.loc 1 28 5 is_stmt 1
 147              		.loc 1 28 24 is_stmt 0
 148 0100 97070000 		lla	a5,_ZL8finished
 148      93870700 
 149 0108 83C70700 		lbu	a5,0(a5)
 150 010c 93F7F70F 		andi	a5,a5,0xff
 151              		.loc 1 28 12
 152 0110 E38807FE 		beqz	a5,.L8
 153              		.loc 1 28 39 discriminator 2
 154 0114 97070000 		lla	a5,_ZL8finished
 154      93870700 
 155 011c 83C71700 		lbu	a5,1(a5)
 156 0120 93F7F70F 		andi	a5,a5,0xff
 157              		.loc 1 28 12 discriminator 2
 158 0124 E38E07FC 		beqz	a5,.L8
  29:test/ThreadSleep_C_API_test.cpp **** }
 159              		.loc 1 29 1
 160 0128 83308103 		ld	ra,56(sp)
 161              		.cfi_restore 1
 162 012c 03340103 		ld	s0,48(sp)
 163              		.cfi_restore 8
 164 0130 83348102 		ld	s1,40(sp)
 165              		.cfi_restore 9
 166              	.LVL15:
 167 0134 13010104 		addi	sp,sp,64
 168              		.cfi_def_cfa_register 2
 169 0138 67800000 		jr	ra
 170              		.cfi_endproc
 171              	.LFE33:
 173              		.section	.rodata.str1.8,"aMS",@progbits,1
 174              		.align	3
 175              	.LC0:
 176 0000 48656C6C 		.string	"Hello "
 176      6F2000
 177 0007 00       		.zero	1
 178              	.LC1:
 179 0008 20210A00 		.string	" !\n"
 180              		.section	.sbss,"aw",@nobits
 181              		.align	3
 184              	_ZL8finished:
 185 0000 0000     		.zero	2
 186              		.text
 187              	.Letext0:
 188              		.file 2 "test/../h/../lib/hw.h"
 189              		.file 3 "test/../h/../h/list.hpp"
 190              		.file 4 "test/../h/../h/tcb.hpp"
 191              		.file 5 "test/../h/syscall_c.hpp"
GAS LISTING /tmp/ccozbpo1.s 			page 5


 192              		.file 6 "test/printing.hpp"
GAS LISTING /tmp/ccozbpo1.s 			page 6

