GAS LISTING /tmp/ccADjw9t.s 			page 1


   1              		.file	"Threads_C_API_test.cpp"
   2              		.option nopic
   3              		.option norelax
   4              		.text
   5              	.Ltext0:
   6              		.align	2
   8              	_ZL9fibonaccim:
   9              	.LFB32:
  10              		.file 1 "test/Threads_C_API_test.cpp"
   1:test/Threads_C_API_test.cpp **** 
   2:test/Threads_C_API_test.cpp **** #include "../h/syscall_c.hpp"
   3:test/Threads_C_API_test.cpp **** #include "Threads_C_API_test.hpp"
   4:test/Threads_C_API_test.cpp **** 
   5:test/Threads_C_API_test.cpp **** #include "printing.hpp"
   6:test/Threads_C_API_test.cpp **** 
   7:test/Threads_C_API_test.cpp **** static volatile bool finishedA = false;
   8:test/Threads_C_API_test.cpp **** static volatile bool finishedB = false;
   9:test/Threads_C_API_test.cpp **** static volatile bool finishedC = false;
  10:test/Threads_C_API_test.cpp **** static volatile bool finishedD = false;
  11:test/Threads_C_API_test.cpp **** 
  12:test/Threads_C_API_test.cpp **** static uint64 fibonacci(uint64 n) {
  11              		.loc 1 12 35
  12              		.cfi_startproc
  13              	.LVL0:
  13:test/Threads_C_API_test.cpp ****     if (n == 0 || n == 1) { return n; }
  14              		.loc 1 13 5
  15 0000 93071000 		li	a5,1
  16 0004 63F8A706 		bleu	a0,a5,.L6
  12:test/Threads_C_API_test.cpp ****     if (n == 0 || n == 1) { return n; }
  17              		.loc 1 12 35 is_stmt 0
  18 0008 130101FE 		addi	sp,sp,-32
  19              		.cfi_def_cfa_offset 32
  20 000c 233C1100 		sd	ra,24(sp)
  21 0010 23388100 		sd	s0,16(sp)
  22 0014 23349100 		sd	s1,8(sp)
  23 0018 23302101 		sd	s2,0(sp)
  24              		.cfi_offset 1, -8
  25              		.cfi_offset 8, -16
  26              		.cfi_offset 9, -24
  27              		.cfi_offset 18, -32
  28 001c 13040102 		addi	s0,sp,32
  29              		.cfi_def_cfa 8, 0
  30 0020 93040500 		mv	s1,a0
  14:test/Threads_C_API_test.cpp ****     if (n % 10 == 0) { thread_dispatch(); }
  31              		.loc 1 14 5 is_stmt 1
  32              		.loc 1 14 11 is_stmt 0
  33 0024 9307A000 		li	a5,10
  34 0028 B377F502 		remu	a5,a0,a5
  35              		.loc 1 14 5
  36 002c 638E0702 		beqz	a5,.L9
  37              	.LVL1:
  38              	.L3:
  15:test/Threads_C_API_test.cpp ****     return fibonacci(n - 1) + fibonacci(n - 2);
  39              		.loc 1 15 5 is_stmt 1
  40              		.loc 1 15 21 is_stmt 0
  41 0030 1385F4FF 		addi	a0,s1,-1
  42 0034 97000000 		call	_ZL9fibonaccim
GAS LISTING /tmp/ccADjw9t.s 			page 2


  42      E7800000 
  43              	.LVL2:
  44 003c 13090500 		mv	s2,a0
  45              		.loc 1 15 40
  46 0040 1385E4FF 		addi	a0,s1,-2
  47 0044 97000000 		call	_ZL9fibonaccim
  47      E7800000 
  48              	.LVL3:
  49              		.loc 1 15 46
  50 004c 3305A900 		add	a0,s2,a0
  16:test/Threads_C_API_test.cpp **** }
  51              		.loc 1 16 1
  52 0050 83308101 		ld	ra,24(sp)
  53              		.cfi_remember_state
  54              		.cfi_restore 1
  55 0054 03340101 		ld	s0,16(sp)
  56              		.cfi_restore 8
  57 0058 83348100 		ld	s1,8(sp)
  58              		.cfi_restore 9
  59              	.LVL4:
  60 005c 03390100 		ld	s2,0(sp)
  61              		.cfi_restore 18
  62 0060 13010102 		addi	sp,sp,32
  63              		.cfi_def_cfa_register 2
  64 0064 67800000 		jr	ra
  65              	.LVL5:
  66              	.L9:
  67              		.cfi_restore_state
  14:test/Threads_C_API_test.cpp ****     if (n % 10 == 0) { thread_dispatch(); }
  68              		.loc 1 14 24 is_stmt 1 discriminator 1
  14:test/Threads_C_API_test.cpp ****     if (n % 10 == 0) { thread_dispatch(); }
  69              		.loc 1 14 39 is_stmt 0 discriminator 1
  70 0068 97000000 		call	_Z15thread_dispatchv
  70      E7800000 
  71              	.LVL6:
  72 0070 6FF01FFC 		j	.L3
  73              	.LVL7:
  74              	.L6:
  75              		.cfi_def_cfa_register 2
  76              		.cfi_restore 1
  77              		.cfi_restore 8
  78              		.cfi_restore 9
  79              		.cfi_restore 18
  80              		.loc 1 16 1
  81 0074 67800000 		ret
  82              		.cfi_endproc
  83              	.LFE32:
  85              		.align	2
  87              	_ZL11workerBodyDPv:
  88              	.LFB36:
  17:test/Threads_C_API_test.cpp **** 
  18:test/Threads_C_API_test.cpp **** static void workerBodyA(void* arg) {
  19:test/Threads_C_API_test.cpp ****     for (uint64 i = 0; i < 10; i++) {
  20:test/Threads_C_API_test.cpp ****         printString("A: i="); printInt(i); printString("\n");
  21:test/Threads_C_API_test.cpp ****         for (uint64 j = 0; j < 10000; j++) {
  22:test/Threads_C_API_test.cpp ****             for (uint64 k = 0; k < 30000; k++) { /* busy wait */ }
  23:test/Threads_C_API_test.cpp ****             thread_dispatch();
GAS LISTING /tmp/ccADjw9t.s 			page 3


  24:test/Threads_C_API_test.cpp ****         }
  25:test/Threads_C_API_test.cpp ****     }
  26:test/Threads_C_API_test.cpp ****     printString("A finished!\n");
  27:test/Threads_C_API_test.cpp ****     finishedA = true;
  28:test/Threads_C_API_test.cpp **** }
  29:test/Threads_C_API_test.cpp **** 
  30:test/Threads_C_API_test.cpp **** static void workerBodyB(void* arg) {
  31:test/Threads_C_API_test.cpp ****     for (uint64 i = 0; i < 16; i++) {
  32:test/Threads_C_API_test.cpp ****         printString("B: i="); printInt(i); printString("\n");
  33:test/Threads_C_API_test.cpp ****         for (uint64 j = 0; j < 10000; j++) {
  34:test/Threads_C_API_test.cpp ****             for (uint64 k = 0; k < 30000; k++) { /* busy wait */ }
  35:test/Threads_C_API_test.cpp ****             thread_dispatch();
  36:test/Threads_C_API_test.cpp ****         }
  37:test/Threads_C_API_test.cpp ****     }
  38:test/Threads_C_API_test.cpp ****     printString("B finished!\n");
  39:test/Threads_C_API_test.cpp ****     finishedB = true;
  40:test/Threads_C_API_test.cpp ****     thread_dispatch();
  41:test/Threads_C_API_test.cpp **** }
  42:test/Threads_C_API_test.cpp **** 
  43:test/Threads_C_API_test.cpp **** static void workerBodyC(void* arg) {
  44:test/Threads_C_API_test.cpp ****     uint8 i = 0;
  45:test/Threads_C_API_test.cpp ****     for (; i < 3; i++) {
  46:test/Threads_C_API_test.cpp ****         printString("C: i="); printInt(i); printString("\n");
  47:test/Threads_C_API_test.cpp ****     }
  48:test/Threads_C_API_test.cpp **** 
  49:test/Threads_C_API_test.cpp ****     printString("C: dispatch\n");
  50:test/Threads_C_API_test.cpp ****     __asm__ ("li t1, 7");
  51:test/Threads_C_API_test.cpp ****     thread_dispatch();
  52:test/Threads_C_API_test.cpp **** 
  53:test/Threads_C_API_test.cpp ****     uint64 t1 = 0;
  54:test/Threads_C_API_test.cpp ****     __asm__ ("mv %[t1], t1" : [t1] "=r"(t1));
  55:test/Threads_C_API_test.cpp **** 
  56:test/Threads_C_API_test.cpp ****     printString("C: t1="); printInt(t1); printString("\n");
  57:test/Threads_C_API_test.cpp **** 
  58:test/Threads_C_API_test.cpp ****     uint64 result = fibonacci(12);
  59:test/Threads_C_API_test.cpp ****     printString("C: fibonaci="); printInt(result); printString("\n");
  60:test/Threads_C_API_test.cpp **** 
  61:test/Threads_C_API_test.cpp ****     for (; i < 6; i++) {
  62:test/Threads_C_API_test.cpp ****         printString("C: i="); printInt(i); printString("\n");
  63:test/Threads_C_API_test.cpp ****     }
  64:test/Threads_C_API_test.cpp **** 
  65:test/Threads_C_API_test.cpp ****     printString("A finished!\n");
  66:test/Threads_C_API_test.cpp ****     finishedC = true;
  67:test/Threads_C_API_test.cpp ****     thread_dispatch();
  68:test/Threads_C_API_test.cpp **** }
  69:test/Threads_C_API_test.cpp **** 
  70:test/Threads_C_API_test.cpp **** static void workerBodyD(void* arg) {
  89              		.loc 1 70 36 is_stmt 1
  90              		.cfi_startproc
  91              	.LVL8:
  92 0078 130101FE 		addi	sp,sp,-32
  93              		.cfi_def_cfa_offset 32
  94 007c 233C1100 		sd	ra,24(sp)
  95 0080 23388100 		sd	s0,16(sp)
  96 0084 23349100 		sd	s1,8(sp)
  97 0088 23302101 		sd	s2,0(sp)
  98              		.cfi_offset 1, -8
GAS LISTING /tmp/ccADjw9t.s 			page 4


  99              		.cfi_offset 8, -16
 100              		.cfi_offset 9, -24
 101              		.cfi_offset 18, -32
 102 008c 13040102 		addi	s0,sp,32
 103              		.cfi_def_cfa 8, 0
  71:test/Threads_C_API_test.cpp ****     uint8 i = 10;
 104              		.loc 1 71 5
 105              	.LVL9:
 106              		.loc 1 71 11 is_stmt 0
 107 0090 9304A000 		li	s1,10
 108              	.LVL10:
 109              	.L12:
  72:test/Threads_C_API_test.cpp ****     for (; i < 13; i++) {
 110              		.loc 1 72 5 is_stmt 1 discriminator 2
 111              		.loc 1 72 14 is_stmt 0 discriminator 2
 112 0094 9307C000 		li	a5,12
 113 0098 63E29704 		bgtu	s1,a5,.L11
  73:test/Threads_C_API_test.cpp ****         printString("D: i="); printInt(i); printString("\n");
 114              		.loc 1 73 9 is_stmt 1 discriminator 1
 115              		.loc 1 73 20 is_stmt 0 discriminator 1
 116 009c 17050000 		lla	a0,.LC0
 116      13050500 
 117 00a4 97000000 		call	_Z11printStringPKc
 117      E7800000 
 118              	.LVL11:
 119              		.loc 1 73 31 is_stmt 1 discriminator 1
 120              		.loc 1 73 39 is_stmt 0 discriminator 1
 121 00ac 13060000 		li	a2,0
 122 00b0 9305A000 		li	a1,10
 123 00b4 13850400 		mv	a0,s1
 124 00b8 97000000 		call	_Z8printIntiii
 124      E7800000 
 125              	.LVL12:
 126              		.loc 1 73 44 is_stmt 1 discriminator 1
 127              		.loc 1 73 55 is_stmt 0 discriminator 1
 128 00c0 17050000 		lla	a0,.LC1
 128      13050500 
 129 00c8 97000000 		call	_Z11printStringPKc
 129      E7800000 
 130              	.LVL13:
  72:test/Threads_C_API_test.cpp ****     for (; i < 13; i++) {
 131              		.loc 1 72 5 discriminator 1
 132 00d0 9B841400 		addiw	s1,s1,1
 133              	.LVL14:
 134 00d4 93F4F40F 		andi	s1,s1,0xff
 135              	.LVL15:
 136 00d8 6FF0DFFB 		j	.L12
 137              	.L11:
  74:test/Threads_C_API_test.cpp ****     }
  75:test/Threads_C_API_test.cpp **** 
  76:test/Threads_C_API_test.cpp ****     printString("D: dispatch\n");
 138              		.loc 1 76 5 is_stmt 1
 139              		.loc 1 76 16 is_stmt 0
 140 00dc 17050000 		lla	a0,.LC2
 140      13050500 
 141 00e4 97000000 		call	_Z11printStringPKc
 141      E7800000 
GAS LISTING /tmp/ccADjw9t.s 			page 5


 142              	.LVL16:
  77:test/Threads_C_API_test.cpp ****     __asm__ ("li t1, 5");
 143              		.loc 1 77 5 is_stmt 1
 144              		.loc 1 77 25 is_stmt 0
 145              	#APP
 146              	# 77 "test/Threads_C_API_test.cpp" 1
  78              	    thread_dispatch();
 147              		li t1, 5
 148              	# 0 "" 2
 149              		.loc 1 78 5 is_stmt 1
 150              		.loc 1 78 20 is_stmt 0
 151              	#NO_APP
 152 00f0 97000000 		call	_Z15thread_dispatchv
 152      E7800000 
 153              	.LVL17:
  79:test/Threads_C_API_test.cpp **** 
  80:test/Threads_C_API_test.cpp ****     uint64 result = fibonacci(16);
 154              		.loc 1 80 5 is_stmt 1
 155              		.loc 1 80 30 is_stmt 0
 156 00f8 13050001 		li	a0,16
 157 00fc 97000000 		call	_ZL9fibonaccim
 157      E7800000 
 158              	.LVL18:
 159 0104 13090500 		mv	s2,a0
 160              	.LVL19:
  81:test/Threads_C_API_test.cpp ****     printString("D: fibonaci="); printInt(result); printString("\n");
 161              		.loc 1 81 5 is_stmt 1
 162              		.loc 1 81 16 is_stmt 0
 163 0108 17050000 		lla	a0,.LC3
 163      13050500 
 164              	.LVL20:
 165 0110 97000000 		call	_Z11printStringPKc
 165      E7800000 
 166              	.LVL21:
 167              		.loc 1 81 34 is_stmt 1
 168              		.loc 1 81 42 is_stmt 0
 169 0118 13060000 		li	a2,0
 170 011c 9305A000 		li	a1,10
 171 0120 1B050900 		sext.w	a0,s2
 172 0124 97000000 		call	_Z8printIntiii
 172      E7800000 
 173              	.LVL22:
 174              		.loc 1 81 52 is_stmt 1
 175              		.loc 1 81 63 is_stmt 0
 176 012c 17050000 		lla	a0,.LC1
 176      13050500 
 177 0134 97000000 		call	_Z11printStringPKc
 177      E7800000 
 178              	.LVL23:
 179              	.L14:
  82:test/Threads_C_API_test.cpp **** 
  83:test/Threads_C_API_test.cpp ****     for (; i < 16; i++) {
 180              		.loc 1 83 5 is_stmt 1 discriminator 2
 181              		.loc 1 83 14 is_stmt 0 discriminator 2
 182 013c 9307F000 		li	a5,15
 183 0140 63E29704 		bgtu	s1,a5,.L13
  84:test/Threads_C_API_test.cpp ****         printString("D: i="); printInt(i); printString("\n");
GAS LISTING /tmp/ccADjw9t.s 			page 6


 184              		.loc 1 84 9 is_stmt 1 discriminator 1
 185              		.loc 1 84 20 is_stmt 0 discriminator 1
 186 0144 17050000 		lla	a0,.LC0
 186      13050500 
 187 014c 97000000 		call	_Z11printStringPKc
 187      E7800000 
 188              	.LVL24:
 189              		.loc 1 84 31 is_stmt 1 discriminator 1
 190              		.loc 1 84 39 is_stmt 0 discriminator 1
 191 0154 13060000 		li	a2,0
 192 0158 9305A000 		li	a1,10
 193 015c 13850400 		mv	a0,s1
 194 0160 97000000 		call	_Z8printIntiii
 194      E7800000 
 195              	.LVL25:
 196              		.loc 1 84 44 is_stmt 1 discriminator 1
 197              		.loc 1 84 55 is_stmt 0 discriminator 1
 198 0168 17050000 		lla	a0,.LC1
 198      13050500 
 199 0170 97000000 		call	_Z11printStringPKc
 199      E7800000 
 200              	.LVL26:
  83:test/Threads_C_API_test.cpp ****         printString("D: i="); printInt(i); printString("\n");
 201              		.loc 1 83 5 discriminator 1
 202 0178 9B841400 		addiw	s1,s1,1
 203              	.LVL27:
 204 017c 93F4F40F 		andi	s1,s1,0xff
 205              	.LVL28:
 206 0180 6FF0DFFB 		j	.L14
 207              	.L13:
  85:test/Threads_C_API_test.cpp ****     }
  86:test/Threads_C_API_test.cpp **** 
  87:test/Threads_C_API_test.cpp ****     printString("D finished!\n");
 208              		.loc 1 87 5 is_stmt 1
 209              		.loc 1 87 16 is_stmt 0
 210 0184 17050000 		lla	a0,.LC4
 210      13050500 
 211 018c 97000000 		call	_Z11printStringPKc
 211      E7800000 
 212              	.LVL29:
  88:test/Threads_C_API_test.cpp ****     finishedD = true;
 213              		.loc 1 88 5 is_stmt 1
 214              		.loc 1 88 15 is_stmt 0
 215 0194 93071000 		li	a5,1
 216 0198 17070000 		sb	a5,_ZL9finishedD,a4
 216      2300F700 
  89:test/Threads_C_API_test.cpp ****     thread_dispatch();
 217              		.loc 1 89 5 is_stmt 1
 218              		.loc 1 89 20 is_stmt 0
 219 01a0 97000000 		call	_Z15thread_dispatchv
 219      E7800000 
 220              	.LVL30:
  90:test/Threads_C_API_test.cpp **** }
 221              		.loc 1 90 1
 222 01a8 83308101 		ld	ra,24(sp)
 223              		.cfi_restore 1
 224 01ac 03340101 		ld	s0,16(sp)
GAS LISTING /tmp/ccADjw9t.s 			page 7


 225              		.cfi_restore 8
 226 01b0 83348100 		ld	s1,8(sp)
 227              		.cfi_restore 9
 228              	.LVL31:
 229 01b4 03390100 		ld	s2,0(sp)
 230              		.cfi_restore 18
 231              	.LVL32:
 232 01b8 13010102 		addi	sp,sp,32
 233              		.cfi_def_cfa_register 2
 234 01bc 67800000 		jr	ra
 235              		.cfi_endproc
 236              	.LFE36:
 238              		.align	2
 240              	_ZL11workerBodyCPv:
 241              	.LFB35:
  43:test/Threads_C_API_test.cpp ****     uint8 i = 0;
 242              		.loc 1 43 36 is_stmt 1
 243              		.cfi_startproc
 244              	.LVL33:
 245 01c0 130101FE 		addi	sp,sp,-32
 246              		.cfi_def_cfa_offset 32
 247 01c4 233C1100 		sd	ra,24(sp)
 248 01c8 23388100 		sd	s0,16(sp)
 249 01cc 23349100 		sd	s1,8(sp)
 250 01d0 23302101 		sd	s2,0(sp)
 251              		.cfi_offset 1, -8
 252              		.cfi_offset 8, -16
 253              		.cfi_offset 9, -24
 254              		.cfi_offset 18, -32
 255 01d4 13040102 		addi	s0,sp,32
 256              		.cfi_def_cfa 8, 0
  44:test/Threads_C_API_test.cpp ****     for (; i < 3; i++) {
 257              		.loc 1 44 5
 258              	.LVL34:
  44:test/Threads_C_API_test.cpp ****     for (; i < 3; i++) {
 259              		.loc 1 44 11 is_stmt 0
 260 01d8 93040000 		li	s1,0
 261              	.LVL35:
 262              	.L18:
  45:test/Threads_C_API_test.cpp ****         printString("C: i="); printInt(i); printString("\n");
 263              		.loc 1 45 5 is_stmt 1 discriminator 2
  45:test/Threads_C_API_test.cpp ****         printString("C: i="); printInt(i); printString("\n");
 264              		.loc 1 45 14 is_stmt 0 discriminator 2
 265 01dc 93072000 		li	a5,2
 266 01e0 63E29704 		bgtu	s1,a5,.L17
  46:test/Threads_C_API_test.cpp ****     }
 267              		.loc 1 46 9 is_stmt 1 discriminator 1
  46:test/Threads_C_API_test.cpp ****     }
 268              		.loc 1 46 20 is_stmt 0 discriminator 1
 269 01e4 17050000 		lla	a0,.LC5
 269      13050500 
 270 01ec 97000000 		call	_Z11printStringPKc
 270      E7800000 
 271              	.LVL36:
  46:test/Threads_C_API_test.cpp ****     }
 272              		.loc 1 46 31 is_stmt 1 discriminator 1
  46:test/Threads_C_API_test.cpp ****     }
GAS LISTING /tmp/ccADjw9t.s 			page 8


 273              		.loc 1 46 39 is_stmt 0 discriminator 1
 274 01f4 13060000 		li	a2,0
 275 01f8 9305A000 		li	a1,10
 276 01fc 13850400 		mv	a0,s1
 277 0200 97000000 		call	_Z8printIntiii
 277      E7800000 
 278              	.LVL37:
  46:test/Threads_C_API_test.cpp ****     }
 279              		.loc 1 46 44 is_stmt 1 discriminator 1
  46:test/Threads_C_API_test.cpp ****     }
 280              		.loc 1 46 55 is_stmt 0 discriminator 1
 281 0208 17050000 		lla	a0,.LC1
 281      13050500 
 282 0210 97000000 		call	_Z11printStringPKc
 282      E7800000 
 283              	.LVL38:
  45:test/Threads_C_API_test.cpp ****         printString("C: i="); printInt(i); printString("\n");
 284              		.loc 1 45 5 discriminator 1
 285 0218 9B841400 		addiw	s1,s1,1
 286              	.LVL39:
 287 021c 93F4F40F 		andi	s1,s1,0xff
 288              	.LVL40:
 289 0220 6FF0DFFB 		j	.L18
 290              	.L17:
  49:test/Threads_C_API_test.cpp ****     __asm__ ("li t1, 7");
 291              		.loc 1 49 5 is_stmt 1
  49:test/Threads_C_API_test.cpp ****     __asm__ ("li t1, 7");
 292              		.loc 1 49 16 is_stmt 0
 293 0224 17050000 		lla	a0,.LC6
 293      13050500 
 294 022c 97000000 		call	_Z11printStringPKc
 294      E7800000 
 295              	.LVL41:
  50:test/Threads_C_API_test.cpp ****     thread_dispatch();
 296              		.loc 1 50 5 is_stmt 1
  50:test/Threads_C_API_test.cpp ****     thread_dispatch();
 297              		.loc 1 50 25 is_stmt 0
 298              	#APP
 299              	# 50 "test/Threads_C_API_test.cpp" 1
  51:test/Threads_C_API_test.cpp **** 
 300              		li t1, 7
 301              	# 0 "" 2
 302              		.loc 1 51 5 is_stmt 1
  51:test/Threads_C_API_test.cpp **** 
 303              		.loc 1 51 20 is_stmt 0
 304              	#NO_APP
 305 0238 97000000 		call	_Z15thread_dispatchv
 305      E7800000 
 306              	.LVL42:
  53:test/Threads_C_API_test.cpp ****     __asm__ ("mv %[t1], t1" : [t1] "=r"(t1));
 307              		.loc 1 53 5 is_stmt 1
  54:test/Threads_C_API_test.cpp **** 
 308              		.loc 1 54 5
  54:test/Threads_C_API_test.cpp **** 
 309              		.loc 1 54 45 is_stmt 0
 310              	#APP
 311              	# 54 "test/Threads_C_API_test.cpp" 1
GAS LISTING /tmp/ccADjw9t.s 			page 9


 312              		mv s2, t1
 313              	# 0 "" 2
 314              	.LVL43:
  56:test/Threads_C_API_test.cpp **** 
 315              		.loc 1 56 5 is_stmt 1
  56:test/Threads_C_API_test.cpp **** 
 316              		.loc 1 56 16 is_stmt 0
 317              	#NO_APP
 318 0244 17050000 		lla	a0,.LC7
 318      13050500 
 319 024c 97000000 		call	_Z11printStringPKc
 319      E7800000 
 320              	.LVL44:
  56:test/Threads_C_API_test.cpp **** 
 321              		.loc 1 56 28 is_stmt 1
  56:test/Threads_C_API_test.cpp **** 
 322              		.loc 1 56 36 is_stmt 0
 323 0254 13060000 		li	a2,0
 324 0258 9305A000 		li	a1,10
 325 025c 1B050900 		sext.w	a0,s2
 326 0260 97000000 		call	_Z8printIntiii
 326      E7800000 
 327              	.LVL45:
  56:test/Threads_C_API_test.cpp **** 
 328              		.loc 1 56 42 is_stmt 1
  56:test/Threads_C_API_test.cpp **** 
 329              		.loc 1 56 53 is_stmt 0
 330 0268 17050000 		lla	a0,.LC1
 330      13050500 
 331 0270 97000000 		call	_Z11printStringPKc
 331      E7800000 
 332              	.LVL46:
  58:test/Threads_C_API_test.cpp ****     printString("C: fibonaci="); printInt(result); printString("\n");
 333              		.loc 1 58 5 is_stmt 1
  58:test/Threads_C_API_test.cpp ****     printString("C: fibonaci="); printInt(result); printString("\n");
 334              		.loc 1 58 30 is_stmt 0
 335 0278 1305C000 		li	a0,12
 336 027c 97000000 		call	_ZL9fibonaccim
 336      E7800000 
 337              	.LVL47:
 338 0284 13090500 		mv	s2,a0
 339              	.LVL48:
  59:test/Threads_C_API_test.cpp **** 
 340              		.loc 1 59 5 is_stmt 1
  59:test/Threads_C_API_test.cpp **** 
 341              		.loc 1 59 16 is_stmt 0
 342 0288 17050000 		lla	a0,.LC8
 342      13050500 
 343              	.LVL49:
 344 0290 97000000 		call	_Z11printStringPKc
 344      E7800000 
 345              	.LVL50:
  59:test/Threads_C_API_test.cpp **** 
 346              		.loc 1 59 34 is_stmt 1
  59:test/Threads_C_API_test.cpp **** 
 347              		.loc 1 59 42 is_stmt 0
 348 0298 13060000 		li	a2,0
GAS LISTING /tmp/ccADjw9t.s 			page 10


 349 029c 9305A000 		li	a1,10
 350 02a0 1B050900 		sext.w	a0,s2
 351 02a4 97000000 		call	_Z8printIntiii
 351      E7800000 
 352              	.LVL51:
  59:test/Threads_C_API_test.cpp **** 
 353              		.loc 1 59 52 is_stmt 1
  59:test/Threads_C_API_test.cpp **** 
 354              		.loc 1 59 63 is_stmt 0
 355 02ac 17050000 		lla	a0,.LC1
 355      13050500 
 356 02b4 97000000 		call	_Z11printStringPKc
 356      E7800000 
 357              	.LVL52:
 358              	.L20:
  61:test/Threads_C_API_test.cpp ****         printString("C: i="); printInt(i); printString("\n");
 359              		.loc 1 61 5 is_stmt 1 discriminator 2
  61:test/Threads_C_API_test.cpp ****         printString("C: i="); printInt(i); printString("\n");
 360              		.loc 1 61 14 is_stmt 0 discriminator 2
 361 02bc 93075000 		li	a5,5
 362 02c0 63E29704 		bgtu	s1,a5,.L19
  62:test/Threads_C_API_test.cpp ****     }
 363              		.loc 1 62 9 is_stmt 1 discriminator 1
  62:test/Threads_C_API_test.cpp ****     }
 364              		.loc 1 62 20 is_stmt 0 discriminator 1
 365 02c4 17050000 		lla	a0,.LC5
 365      13050500 
 366 02cc 97000000 		call	_Z11printStringPKc
 366      E7800000 
 367              	.LVL53:
  62:test/Threads_C_API_test.cpp ****     }
 368              		.loc 1 62 31 is_stmt 1 discriminator 1
  62:test/Threads_C_API_test.cpp ****     }
 369              		.loc 1 62 39 is_stmt 0 discriminator 1
 370 02d4 13060000 		li	a2,0
 371 02d8 9305A000 		li	a1,10
 372 02dc 13850400 		mv	a0,s1
 373 02e0 97000000 		call	_Z8printIntiii
 373      E7800000 
 374              	.LVL54:
  62:test/Threads_C_API_test.cpp ****     }
 375              		.loc 1 62 44 is_stmt 1 discriminator 1
  62:test/Threads_C_API_test.cpp ****     }
 376              		.loc 1 62 55 is_stmt 0 discriminator 1
 377 02e8 17050000 		lla	a0,.LC1
 377      13050500 
 378 02f0 97000000 		call	_Z11printStringPKc
 378      E7800000 
 379              	.LVL55:
  61:test/Threads_C_API_test.cpp ****         printString("C: i="); printInt(i); printString("\n");
 380              		.loc 1 61 5 discriminator 1
 381 02f8 9B841400 		addiw	s1,s1,1
 382              	.LVL56:
 383 02fc 93F4F40F 		andi	s1,s1,0xff
 384              	.LVL57:
 385 0300 6FF0DFFB 		j	.L20
 386              	.L19:
GAS LISTING /tmp/ccADjw9t.s 			page 11


  65:test/Threads_C_API_test.cpp ****     finishedC = true;
 387              		.loc 1 65 5 is_stmt 1
  65:test/Threads_C_API_test.cpp ****     finishedC = true;
 388              		.loc 1 65 16 is_stmt 0
 389 0304 17050000 		lla	a0,.LC9
 389      13050500 
 390 030c 97000000 		call	_Z11printStringPKc
 390      E7800000 
 391              	.LVL58:
  66:test/Threads_C_API_test.cpp ****     thread_dispatch();
 392              		.loc 1 66 5 is_stmt 1
  66:test/Threads_C_API_test.cpp ****     thread_dispatch();
 393              		.loc 1 66 15 is_stmt 0
 394 0314 93071000 		li	a5,1
 395 0318 17070000 		sb	a5,_ZL9finishedC,a4
 395      2300F700 
  67:test/Threads_C_API_test.cpp **** }
 396              		.loc 1 67 5 is_stmt 1
  67:test/Threads_C_API_test.cpp **** }
 397              		.loc 1 67 20 is_stmt 0
 398 0320 97000000 		call	_Z15thread_dispatchv
 398      E7800000 
 399              	.LVL59:
  68:test/Threads_C_API_test.cpp **** 
 400              		.loc 1 68 1
 401 0328 83308101 		ld	ra,24(sp)
 402              		.cfi_restore 1
 403 032c 03340101 		ld	s0,16(sp)
 404              		.cfi_restore 8
 405 0330 83348100 		ld	s1,8(sp)
 406              		.cfi_restore 9
 407              	.LVL60:
 408 0334 03390100 		ld	s2,0(sp)
 409              		.cfi_restore 18
 410              	.LVL61:
 411 0338 13010102 		addi	sp,sp,32
 412              		.cfi_def_cfa_register 2
 413 033c 67800000 		jr	ra
 414              		.cfi_endproc
 415              	.LFE35:
 417              		.align	2
 419              	_ZL11workerBodyBPv:
 420              	.LFB34:
  30:test/Threads_C_API_test.cpp ****     for (uint64 i = 0; i < 16; i++) {
 421              		.loc 1 30 36 is_stmt 1
 422              		.cfi_startproc
 423              	.LVL62:
 424 0340 130101FE 		addi	sp,sp,-32
 425              		.cfi_def_cfa_offset 32
 426 0344 233C1100 		sd	ra,24(sp)
 427 0348 23388100 		sd	s0,16(sp)
 428 034c 23349100 		sd	s1,8(sp)
 429 0350 23302101 		sd	s2,0(sp)
 430              		.cfi_offset 1, -8
 431              		.cfi_offset 8, -16
 432              		.cfi_offset 9, -24
 433              		.cfi_offset 18, -32
GAS LISTING /tmp/ccADjw9t.s 			page 12


 434 0354 13040102 		addi	s0,sp,32
 435              		.cfi_def_cfa 8, 0
  31:test/Threads_C_API_test.cpp ****         printString("B: i="); printInt(i); printString("\n");
 436              		.loc 1 31 5
 437              	.LVL63:
 438              	.LBB2:
  31:test/Threads_C_API_test.cpp ****         printString("B: i="); printInt(i); printString("\n");
 439              		.loc 1 31 17 is_stmt 0
 440 0358 13090000 		li	s2,0
 441 035c 6F008003 		j	.L28
 442              	.LVL64:
 443              	.L25:
 444              	.LBB3:
 445              	.LBB4:
 446              	.LBB5:
  35:test/Threads_C_API_test.cpp ****         }
 447              		.loc 1 35 13 is_stmt 1 discriminator 2
  35:test/Threads_C_API_test.cpp ****         }
 448              		.loc 1 35 28 is_stmt 0 discriminator 2
 449 0360 97000000 		call	_Z15thread_dispatchv
 449      E7800000 
 450              	.LVL65:
 451              	.LBE5:
  33:test/Threads_C_API_test.cpp ****             for (uint64 k = 0; k < 30000; k++) { /* busy wait */ }
 452              		.loc 1 33 9 discriminator 2
 453 0368 93841400 		addi	s1,s1,1
 454              	.LVL66:
 455              	.L27:
  33:test/Threads_C_API_test.cpp ****             for (uint64 k = 0; k < 30000; k++) { /* busy wait */ }
 456              		.loc 1 33 30 discriminator 1
 457 036c B7270000 		li	a5,8192
 458 0370 9387F770 		addi	a5,a5,1807
 459 0374 63EE9700 		bgtu	s1,a5,.L24
 460              	.LBB7:
 461              	.LBB6:
  34:test/Threads_C_API_test.cpp ****             thread_dispatch();
 462              		.loc 1 34 25
 463 0378 13070000 		li	a4,0
 464              	.L26:
 465              	.LVL67:
  34:test/Threads_C_API_test.cpp ****             thread_dispatch();
 466              		.loc 1 34 34 discriminator 3
 467 037c B7770000 		li	a5,28672
 468 0380 9387F752 		addi	a5,a5,1327
 469 0384 E3EEE7FC 		bgtu	a4,a5,.L25
  34:test/Threads_C_API_test.cpp ****             thread_dispatch();
 470              		.loc 1 34 13 discriminator 2
 471 0388 13071700 		addi	a4,a4,1
 472              	.LVL68:
 473 038c 6FF01FFF 		j	.L26
 474              	.LVL69:
 475              	.L24:
 476              	.LBE6:
 477              	.LBE7:
 478              	.LBE4:
 479              	.LBE3:
  31:test/Threads_C_API_test.cpp ****         printString("B: i="); printInt(i); printString("\n");
GAS LISTING /tmp/ccADjw9t.s 			page 13


 480              		.loc 1 31 5 discriminator 2
 481 0390 13091900 		addi	s2,s2,1
 482              	.LVL70:
 483              	.L28:
  31:test/Threads_C_API_test.cpp ****         printString("B: i="); printInt(i); printString("\n");
 484              		.loc 1 31 26 discriminator 1
 485 0394 9307F000 		li	a5,15
 486 0398 63E02705 		bgtu	s2,a5,.L23
 487              	.LBB9:
  32:test/Threads_C_API_test.cpp ****         for (uint64 j = 0; j < 10000; j++) {
 488              		.loc 1 32 9 is_stmt 1
  32:test/Threads_C_API_test.cpp ****         for (uint64 j = 0; j < 10000; j++) {
 489              		.loc 1 32 20 is_stmt 0
 490 039c 17050000 		lla	a0,.LC10
 490      13050500 
 491 03a4 97000000 		call	_Z11printStringPKc
 491      E7800000 
 492              	.LVL71:
  32:test/Threads_C_API_test.cpp ****         for (uint64 j = 0; j < 10000; j++) {
 493              		.loc 1 32 31 is_stmt 1
  32:test/Threads_C_API_test.cpp ****         for (uint64 j = 0; j < 10000; j++) {
 494              		.loc 1 32 39 is_stmt 0
 495 03ac 13060000 		li	a2,0
 496 03b0 9305A000 		li	a1,10
 497 03b4 1B050900 		sext.w	a0,s2
 498 03b8 97000000 		call	_Z8printIntiii
 498      E7800000 
 499              	.LVL72:
  32:test/Threads_C_API_test.cpp ****         for (uint64 j = 0; j < 10000; j++) {
 500              		.loc 1 32 44 is_stmt 1
  32:test/Threads_C_API_test.cpp ****         for (uint64 j = 0; j < 10000; j++) {
 501              		.loc 1 32 55 is_stmt 0
 502 03c0 17050000 		lla	a0,.LC1
 502      13050500 
 503 03c8 97000000 		call	_Z11printStringPKc
 503      E7800000 
 504              	.LVL73:
  33:test/Threads_C_API_test.cpp ****             for (uint64 k = 0; k < 30000; k++) { /* busy wait */ }
 505              		.loc 1 33 9 is_stmt 1
 506              	.LBB8:
  33:test/Threads_C_API_test.cpp ****             for (uint64 k = 0; k < 30000; k++) { /* busy wait */ }
 507              		.loc 1 33 21 is_stmt 0
 508 03d0 93040000 		li	s1,0
 509 03d4 6FF09FF9 		j	.L27
 510              	.LVL74:
 511              	.L23:
 512              	.LBE8:
 513              	.LBE9:
 514              	.LBE2:
  38:test/Threads_C_API_test.cpp ****     finishedB = true;
 515              		.loc 1 38 5 is_stmt 1
  38:test/Threads_C_API_test.cpp ****     finishedB = true;
 516              		.loc 1 38 16 is_stmt 0
 517 03d8 17050000 		lla	a0,.LC11
 517      13050500 
 518 03e0 97000000 		call	_Z11printStringPKc
 518      E7800000 
GAS LISTING /tmp/ccADjw9t.s 			page 14


 519              	.LVL75:
  39:test/Threads_C_API_test.cpp ****     thread_dispatch();
 520              		.loc 1 39 5 is_stmt 1
  39:test/Threads_C_API_test.cpp ****     thread_dispatch();
 521              		.loc 1 39 15 is_stmt 0
 522 03e8 93071000 		li	a5,1
 523 03ec 17070000 		sb	a5,_ZL9finishedB,a4
 523      2300F700 
  40:test/Threads_C_API_test.cpp **** }
 524              		.loc 1 40 5 is_stmt 1
  40:test/Threads_C_API_test.cpp **** }
 525              		.loc 1 40 20 is_stmt 0
 526 03f4 97000000 		call	_Z15thread_dispatchv
 526      E7800000 
 527              	.LVL76:
  41:test/Threads_C_API_test.cpp **** 
 528              		.loc 1 41 1
 529 03fc 83308101 		ld	ra,24(sp)
 530              		.cfi_restore 1
 531 0400 03340101 		ld	s0,16(sp)
 532              		.cfi_restore 8
 533 0404 83348100 		ld	s1,8(sp)
 534              		.cfi_restore 9
 535 0408 03390100 		ld	s2,0(sp)
 536              		.cfi_restore 18
 537              	.LVL77:
 538 040c 13010102 		addi	sp,sp,32
 539              		.cfi_def_cfa_register 2
 540 0410 67800000 		jr	ra
 541              		.cfi_endproc
 542              	.LFE34:
 544              		.align	2
 546              	_ZL11workerBodyAPv:
 547              	.LFB33:
  18:test/Threads_C_API_test.cpp ****     for (uint64 i = 0; i < 10; i++) {
 548              		.loc 1 18 36 is_stmt 1
 549              		.cfi_startproc
 550              	.LVL78:
 551 0414 130101FE 		addi	sp,sp,-32
 552              		.cfi_def_cfa_offset 32
 553 0418 233C1100 		sd	ra,24(sp)
 554 041c 23388100 		sd	s0,16(sp)
 555 0420 23349100 		sd	s1,8(sp)
 556 0424 23302101 		sd	s2,0(sp)
 557              		.cfi_offset 1, -8
 558              		.cfi_offset 8, -16
 559              		.cfi_offset 9, -24
 560              		.cfi_offset 18, -32
 561 0428 13040102 		addi	s0,sp,32
 562              		.cfi_def_cfa 8, 0
  19:test/Threads_C_API_test.cpp ****         printString("A: i="); printInt(i); printString("\n");
 563              		.loc 1 19 5
 564              	.LVL79:
 565              	.LBB10:
  19:test/Threads_C_API_test.cpp ****         printString("A: i="); printInt(i); printString("\n");
 566              		.loc 1 19 17 is_stmt 0
 567 042c 13090000 		li	s2,0
GAS LISTING /tmp/ccADjw9t.s 			page 15


 568 0430 6F008003 		j	.L36
 569              	.LVL80:
 570              	.L33:
 571              	.LBB11:
 572              	.LBB12:
 573              	.LBB13:
  23:test/Threads_C_API_test.cpp ****         }
 574              		.loc 1 23 13 is_stmt 1 discriminator 2
  23:test/Threads_C_API_test.cpp ****         }
 575              		.loc 1 23 28 is_stmt 0 discriminator 2
 576 0434 97000000 		call	_Z15thread_dispatchv
 576      E7800000 
 577              	.LVL81:
 578              	.LBE13:
  21:test/Threads_C_API_test.cpp ****             for (uint64 k = 0; k < 30000; k++) { /* busy wait */ }
 579              		.loc 1 21 9 discriminator 2
 580 043c 93841400 		addi	s1,s1,1
 581              	.LVL82:
 582              	.L35:
  21:test/Threads_C_API_test.cpp ****             for (uint64 k = 0; k < 30000; k++) { /* busy wait */ }
 583              		.loc 1 21 30 discriminator 1
 584 0440 B7270000 		li	a5,8192
 585 0444 9387F770 		addi	a5,a5,1807
 586 0448 63EE9700 		bgtu	s1,a5,.L32
 587              	.LBB15:
 588              	.LBB14:
  22:test/Threads_C_API_test.cpp ****             thread_dispatch();
 589              		.loc 1 22 25
 590 044c 13070000 		li	a4,0
 591              	.L34:
 592              	.LVL83:
  22:test/Threads_C_API_test.cpp ****             thread_dispatch();
 593              		.loc 1 22 34 discriminator 3
 594 0450 B7770000 		li	a5,28672
 595 0454 9387F752 		addi	a5,a5,1327
 596 0458 E3EEE7FC 		bgtu	a4,a5,.L33
  22:test/Threads_C_API_test.cpp ****             thread_dispatch();
 597              		.loc 1 22 13 discriminator 2
 598 045c 13071700 		addi	a4,a4,1
 599              	.LVL84:
 600 0460 6FF01FFF 		j	.L34
 601              	.LVL85:
 602              	.L32:
 603              	.LBE14:
 604              	.LBE15:
 605              	.LBE12:
 606              	.LBE11:
  19:test/Threads_C_API_test.cpp ****         printString("A: i="); printInt(i); printString("\n");
 607              		.loc 1 19 5 discriminator 2
 608 0464 13091900 		addi	s2,s2,1
 609              	.LVL86:
 610              	.L36:
  19:test/Threads_C_API_test.cpp ****         printString("A: i="); printInt(i); printString("\n");
 611              		.loc 1 19 26 discriminator 1
 612 0468 93079000 		li	a5,9
 613 046c 63E02705 		bgtu	s2,a5,.L31
 614              	.LBB17:
GAS LISTING /tmp/ccADjw9t.s 			page 16


  20:test/Threads_C_API_test.cpp ****         for (uint64 j = 0; j < 10000; j++) {
 615              		.loc 1 20 9 is_stmt 1
  20:test/Threads_C_API_test.cpp ****         for (uint64 j = 0; j < 10000; j++) {
 616              		.loc 1 20 20 is_stmt 0
 617 0470 17050000 		lla	a0,.LC12
 617      13050500 
 618 0478 97000000 		call	_Z11printStringPKc
 618      E7800000 
 619              	.LVL87:
  20:test/Threads_C_API_test.cpp ****         for (uint64 j = 0; j < 10000; j++) {
 620              		.loc 1 20 31 is_stmt 1
  20:test/Threads_C_API_test.cpp ****         for (uint64 j = 0; j < 10000; j++) {
 621              		.loc 1 20 39 is_stmt 0
 622 0480 13060000 		li	a2,0
 623 0484 9305A000 		li	a1,10
 624 0488 1B050900 		sext.w	a0,s2
 625 048c 97000000 		call	_Z8printIntiii
 625      E7800000 
 626              	.LVL88:
  20:test/Threads_C_API_test.cpp ****         for (uint64 j = 0; j < 10000; j++) {
 627              		.loc 1 20 44 is_stmt 1
  20:test/Threads_C_API_test.cpp ****         for (uint64 j = 0; j < 10000; j++) {
 628              		.loc 1 20 55 is_stmt 0
 629 0494 17050000 		lla	a0,.LC1
 629      13050500 
 630 049c 97000000 		call	_Z11printStringPKc
 630      E7800000 
 631              	.LVL89:
  21:test/Threads_C_API_test.cpp ****             for (uint64 k = 0; k < 30000; k++) { /* busy wait */ }
 632              		.loc 1 21 9 is_stmt 1
 633              	.LBB16:
  21:test/Threads_C_API_test.cpp ****             for (uint64 k = 0; k < 30000; k++) { /* busy wait */ }
 634              		.loc 1 21 21 is_stmt 0
 635 04a4 93040000 		li	s1,0
 636 04a8 6FF09FF9 		j	.L35
 637              	.LVL90:
 638              	.L31:
 639              	.LBE16:
 640              	.LBE17:
 641              	.LBE10:
  26:test/Threads_C_API_test.cpp ****     finishedA = true;
 642              		.loc 1 26 5 is_stmt 1
  26:test/Threads_C_API_test.cpp ****     finishedA = true;
 643              		.loc 1 26 16 is_stmt 0
 644 04ac 17050000 		lla	a0,.LC9
 644      13050500 
 645 04b4 97000000 		call	_Z11printStringPKc
 645      E7800000 
 646              	.LVL91:
  27:test/Threads_C_API_test.cpp **** }
 647              		.loc 1 27 5 is_stmt 1
  27:test/Threads_C_API_test.cpp **** }
 648              		.loc 1 27 15 is_stmt 0
 649 04bc 93071000 		li	a5,1
 650 04c0 17070000 		sb	a5,_ZL9finishedA,a4
 650      2300F700 
  28:test/Threads_C_API_test.cpp **** 
GAS LISTING /tmp/ccADjw9t.s 			page 17


 651              		.loc 1 28 1
 652 04c8 83308101 		ld	ra,24(sp)
 653              		.cfi_restore 1
 654 04cc 03340101 		ld	s0,16(sp)
 655              		.cfi_restore 8
 656 04d0 83348100 		ld	s1,8(sp)
 657              		.cfi_restore 9
 658 04d4 03390100 		ld	s2,0(sp)
 659              		.cfi_restore 18
 660              	.LVL92:
 661 04d8 13010102 		addi	sp,sp,32
 662              		.cfi_def_cfa_register 2
 663 04dc 67800000 		jr	ra
 664              		.cfi_endproc
 665              	.LFE33:
 667              		.align	2
 668              		.globl	_Z18Threads_C_API_testv
 670              	_Z18Threads_C_API_testv:
 671              	.LFB37:
  91:test/Threads_C_API_test.cpp **** 
  92:test/Threads_C_API_test.cpp **** 
  93:test/Threads_C_API_test.cpp **** void Threads_C_API_test() {
 672              		.loc 1 93 27 is_stmt 1
 673              		.cfi_startproc
 674 04e0 130101FD 		addi	sp,sp,-48
 675              		.cfi_def_cfa_offset 48
 676 04e4 23341102 		sd	ra,40(sp)
 677 04e8 23308102 		sd	s0,32(sp)
 678              		.cfi_offset 1, -8
 679              		.cfi_offset 8, -16
 680 04ec 13040103 		addi	s0,sp,48
 681              		.cfi_def_cfa 8, 0
  94:test/Threads_C_API_test.cpp ****     thread_t threads[4];
 682              		.loc 1 94 5
  95:test/Threads_C_API_test.cpp ****     thread_create(&threads[0], workerBodyA, nullptr);
 683              		.loc 1 95 5
 684              		.loc 1 95 18 is_stmt 0
 685 04f0 13060000 		li	a2,0
 686 04f4 97050000 		lla	a1,_ZL11workerBodyAPv
 686      93850500 
 687 04fc 130504FD 		addi	a0,s0,-48
 688 0500 97000000 		call	_Z13thread_createPP3TCBPFvPvES2_
 688      E7800000 
 689              	.LVL93:
  96:test/Threads_C_API_test.cpp ****     printString("ThreadA created\n");
 690              		.loc 1 96 5 is_stmt 1
 691              		.loc 1 96 16 is_stmt 0
 692 0508 17050000 		lla	a0,.LC13
 692      13050500 
 693 0510 97000000 		call	_Z11printStringPKc
 693      E7800000 
 694              	.LVL94:
  97:test/Threads_C_API_test.cpp **** 
  98:test/Threads_C_API_test.cpp ****     thread_create(&threads[1], workerBodyB, nullptr);
 695              		.loc 1 98 5 is_stmt 1
 696              		.loc 1 98 18 is_stmt 0
 697 0518 13060000 		li	a2,0
GAS LISTING /tmp/ccADjw9t.s 			page 18


 698 051c 97050000 		lla	a1,_ZL11workerBodyBPv
 698      93850500 
 699 0524 130584FD 		addi	a0,s0,-40
 700 0528 97000000 		call	_Z13thread_createPP3TCBPFvPvES2_
 700      E7800000 
 701              	.LVL95:
  99:test/Threads_C_API_test.cpp ****     printString("ThreadB created\n");
 702              		.loc 1 99 5 is_stmt 1
 703              		.loc 1 99 16 is_stmt 0
 704 0530 17050000 		lla	a0,.LC14
 704      13050500 
 705 0538 97000000 		call	_Z11printStringPKc
 705      E7800000 
 706              	.LVL96:
 100:test/Threads_C_API_test.cpp **** 
 101:test/Threads_C_API_test.cpp ****     thread_create(&threads[2], workerBodyC, nullptr);
 707              		.loc 1 101 5 is_stmt 1
 708              		.loc 1 101 18 is_stmt 0
 709 0540 13060000 		li	a2,0
 710 0544 97050000 		lla	a1,_ZL11workerBodyCPv
 710      93850500 
 711 054c 130504FE 		addi	a0,s0,-32
 712 0550 97000000 		call	_Z13thread_createPP3TCBPFvPvES2_
 712      E7800000 
 713              	.LVL97:
 102:test/Threads_C_API_test.cpp ****     printString("ThreadC created\n");
 714              		.loc 1 102 5 is_stmt 1
 715              		.loc 1 102 16 is_stmt 0
 716 0558 17050000 		lla	a0,.LC15
 716      13050500 
 717 0560 97000000 		call	_Z11printStringPKc
 717      E7800000 
 718              	.LVL98:
 103:test/Threads_C_API_test.cpp **** 
 104:test/Threads_C_API_test.cpp ****     thread_create(&threads[3], workerBodyD, nullptr);
 719              		.loc 1 104 5 is_stmt 1
 720              		.loc 1 104 18 is_stmt 0
 721 0568 13060000 		li	a2,0
 722 056c 97050000 		lla	a1,_ZL11workerBodyDPv
 722      93850500 
 723 0574 130584FE 		addi	a0,s0,-24
 724 0578 97000000 		call	_Z13thread_createPP3TCBPFvPvES2_
 724      E7800000 
 725              	.LVL99:
 105:test/Threads_C_API_test.cpp ****     printString("ThreadD created\n");
 726              		.loc 1 105 5 is_stmt 1
 727              		.loc 1 105 16 is_stmt 0
 728 0580 17050000 		lla	a0,.LC16
 728      13050500 
 729 0588 97000000 		call	_Z11printStringPKc
 729      E7800000 
 730              	.LVL100:
 731 0590 6F00C000 		j	.L40
 732              	.L39:
 106:test/Threads_C_API_test.cpp **** 
 107:test/Threads_C_API_test.cpp ****     while (!(finishedA && finishedB && finishedC && finishedD)) {
 108:test/Threads_C_API_test.cpp ****         thread_dispatch();
GAS LISTING /tmp/ccADjw9t.s 			page 19


 733              		.loc 1 108 9 is_stmt 1
 734              		.loc 1 108 24 is_stmt 0
 735 0594 97000000 		call	_Z15thread_dispatchv
 735      E7800000 
 736              	.LVL101:
 737              	.L40:
 107:test/Threads_C_API_test.cpp ****         thread_dispatch();
 738              		.loc 1 107 5 is_stmt 1
 107:test/Threads_C_API_test.cpp ****         thread_dispatch();
 739              		.loc 1 107 24 is_stmt 0
 740 059c 97070000 		lla	a5,_ZL9finishedA
 740      93870700 
 741 05a4 83C70700 		lbu	a5,0(a5)
 742 05a8 93F7F70F 		andi	a5,a5,0xff
 107:test/Threads_C_API_test.cpp ****         thread_dispatch();
 743              		.loc 1 107 12
 744 05ac E38407FE 		beqz	a5,.L39
 107:test/Threads_C_API_test.cpp ****         thread_dispatch();
 745              		.loc 1 107 24 discriminator 2
 746 05b0 97070000 		lla	a5,_ZL9finishedB
 746      93870700 
 747 05b8 83C70700 		lbu	a5,0(a5)
 748 05bc 93F7F70F 		andi	a5,a5,0xff
 749 05c0 E38A07FC 		beqz	a5,.L39
 107:test/Threads_C_API_test.cpp ****         thread_dispatch();
 750              		.loc 1 107 37 discriminator 4
 751 05c4 97070000 		lla	a5,_ZL9finishedC
 751      93870700 
 752 05cc 83C70700 		lbu	a5,0(a5)
 753 05d0 93F7F70F 		andi	a5,a5,0xff
 754 05d4 E38007FC 		beqz	a5,.L39
 107:test/Threads_C_API_test.cpp ****         thread_dispatch();
 755              		.loc 1 107 62 discriminator 6
 756 05d8 97070000 		lla	a5,_ZL9finishedD
 756      93870700 
 757 05e0 83C70700 		lbu	a5,0(a5)
 758 05e4 93F7F70F 		andi	a5,a5,0xff
 107:test/Threads_C_API_test.cpp ****         thread_dispatch();
 759              		.loc 1 107 12 discriminator 6
 760 05e8 E38607FA 		beqz	a5,.L39
 109:test/Threads_C_API_test.cpp ****     }
 110:test/Threads_C_API_test.cpp **** 
 111:test/Threads_C_API_test.cpp **** }
 761              		.loc 1 111 1
 762 05ec 83308102 		ld	ra,40(sp)
 763              		.cfi_restore 1
 764 05f0 03340102 		ld	s0,32(sp)
 765              		.cfi_restore 8
 766 05f4 13010103 		addi	sp,sp,48
 767              		.cfi_def_cfa_register 2
 768 05f8 67800000 		jr	ra
 769              		.cfi_endproc
 770              	.LFE37:
 772              		.section	.rodata.str1.8,"aMS",@progbits,1
 773              		.align	3
 774              	.LC0:
 775 0000 443A2069 		.string	"D: i="
GAS LISTING /tmp/ccADjw9t.s 			page 20


 775      3D00
 776 0006 0000     		.zero	2
 777              	.LC1:
 778 0008 0A00     		.string	"\n"
 779 000a 00000000 		.zero	6
 779      0000
 780              	.LC2:
 781 0010 443A2064 		.string	"D: dispatch\n"
 781      69737061 
 781      7463680A 
 781      00
 782 001d 000000   		.zero	3
 783              	.LC3:
 784 0020 443A2066 		.string	"D: fibonaci="
 784      69626F6E 
 784      6163693D 
 784      00
 785 002d 000000   		.zero	3
 786              	.LC4:
 787 0030 44206669 		.string	"D finished!\n"
 787      6E697368 
 787      6564210A 
 787      00
 788 003d 000000   		.zero	3
 789              	.LC5:
 790 0040 433A2069 		.string	"C: i="
 790      3D00
 791 0046 0000     		.zero	2
 792              	.LC6:
 793 0048 433A2064 		.string	"C: dispatch\n"
 793      69737061 
 793      7463680A 
 793      00
 794 0055 000000   		.zero	3
 795              	.LC7:
 796 0058 433A2074 		.string	"C: t1="
 796      313D00
 797 005f 00       		.zero	1
 798              	.LC8:
 799 0060 433A2066 		.string	"C: fibonaci="
 799      69626F6E 
 799      6163693D 
 799      00
 800 006d 000000   		.zero	3
 801              	.LC9:
 802 0070 41206669 		.string	"A finished!\n"
 802      6E697368 
 802      6564210A 
 802      00
 803 007d 000000   		.zero	3
 804              	.LC10:
 805 0080 423A2069 		.string	"B: i="
 805      3D00
 806 0086 0000     		.zero	2
 807              	.LC11:
 808 0088 42206669 		.string	"B finished!\n"
 808      6E697368 
GAS LISTING /tmp/ccADjw9t.s 			page 21


 808      6564210A 
 808      00
 809 0095 000000   		.zero	3
 810              	.LC12:
 811 0098 413A2069 		.string	"A: i="
 811      3D00
 812 009e 0000     		.zero	2
 813              	.LC13:
 814 00a0 54687265 		.string	"ThreadA created\n"
 814      61644120 
 814      63726561 
 814      7465640A 
 814      00
 815 00b1 00000000 		.zero	7
 815      000000
 816              	.LC14:
 817 00b8 54687265 		.string	"ThreadB created\n"
 817      61644220 
 817      63726561 
 817      7465640A 
 817      00
 818 00c9 00000000 		.zero	7
 818      000000
 819              	.LC15:
 820 00d0 54687265 		.string	"ThreadC created\n"
 820      61644320 
 820      63726561 
 820      7465640A 
 820      00
 821 00e1 00000000 		.zero	7
 821      000000
 822              	.LC16:
 823 00e8 54687265 		.string	"ThreadD created\n"
 823      61644420 
 823      63726561 
 823      7465640A 
 823      00
 824              		.section	.sbss,"aw",@nobits
 827              	_ZL9finishedD:
 828 0000 00       		.zero	1
 831              	_ZL9finishedC:
 832 0001 00       		.zero	1
 835              	_ZL9finishedB:
 836 0002 00       		.zero	1
 839              	_ZL9finishedA:
 840 0003 00       		.zero	1
 841              		.text
 842              	.Letext0:
 843              		.file 2 "test/../h/../lib/hw.h"
 844              		.file 3 "test/../h/../h/list.hpp"
 845              		.file 4 "test/../h/../h/tcb.hpp"
 846              		.file 5 "test/../h/syscall_c.hpp"
 847              		.file 6 "test/printing.hpp"
GAS LISTING /tmp/ccADjw9t.s 			page 22


DEFINED SYMBOLS
                            *ABS*:0000000000000000 Threads_C_API_test.cpp
     /tmp/ccADjw9t.s:8      .text:0000000000000000 _ZL9fibonaccim
     /tmp/ccADjw9t.s:12     .text:0000000000000000 .L0 
     /tmp/ccADjw9t.s:14     .text:0000000000000000 .L0 
     /tmp/ccADjw9t.s:15     .text:0000000000000000 .L0 
     /tmp/ccADjw9t.s:18     .text:0000000000000008 .L0 
     /tmp/ccADjw9t.s:19     .text:000000000000000c .L0 
     /tmp/ccADjw9t.s:24     .text:000000000000001c .L0 
     /tmp/ccADjw9t.s:25     .text:000000000000001c .L0 
     /tmp/ccADjw9t.s:26     .text:000000000000001c .L0 
     /tmp/ccADjw9t.s:27     .text:000000000000001c .L0 
     /tmp/ccADjw9t.s:29     .text:0000000000000020 .L0 
     /tmp/ccADjw9t.s:32     .text:0000000000000024 .L0 
     /tmp/ccADjw9t.s:33     .text:0000000000000024 .L0 
     /tmp/ccADjw9t.s:36     .text:000000000000002c .L0 
     /tmp/ccADjw9t.s:40     .text:0000000000000030 .L0 
     /tmp/ccADjw9t.s:41     .text:0000000000000030 .L0 
     /tmp/ccADjw9t.s:46     .text:0000000000000040 .L0 
     /tmp/ccADjw9t.s:50     .text:000000000000004c .L0 
     /tmp/ccADjw9t.s:52     .text:0000000000000050 .L0 
     /tmp/ccADjw9t.s:53     .text:0000000000000054 .L0 
     /tmp/ccADjw9t.s:54     .text:0000000000000054 .L0 
     /tmp/ccADjw9t.s:56     .text:0000000000000058 .L0 
     /tmp/ccADjw9t.s:58     .text:000000000000005c .L0 
     /tmp/ccADjw9t.s:61     .text:0000000000000060 .L0 
     /tmp/ccADjw9t.s:63     .text:0000000000000064 .L0 
     /tmp/ccADjw9t.s:67     .text:0000000000000068 .L0 
     /tmp/ccADjw9t.s:69     .text:0000000000000068 .L0 
     /tmp/ccADjw9t.s:70     .text:0000000000000068 .L0 
     /tmp/ccADjw9t.s:75     .text:0000000000000074 .L0 
     /tmp/ccADjw9t.s:76     .text:0000000000000074 .L0 
     /tmp/ccADjw9t.s:77     .text:0000000000000074 .L0 
     /tmp/ccADjw9t.s:78     .text:0000000000000074 .L0 
     /tmp/ccADjw9t.s:79     .text:0000000000000074 .L0 
     /tmp/ccADjw9t.s:81     .text:0000000000000074 .L0 
     /tmp/ccADjw9t.s:82     .text:0000000000000078 .L0 
     /tmp/ccADjw9t.s:87     .text:0000000000000078 _ZL11workerBodyDPv
     /tmp/ccADjw9t.s:90     .text:0000000000000078 .L0 
     /tmp/ccADjw9t.s:92     .text:0000000000000078 .L0 
     /tmp/ccADjw9t.s:93     .text:000000000000007c .L0 
     /tmp/ccADjw9t.s:98     .text:000000000000008c .L0 
     /tmp/ccADjw9t.s:99     .text:000000000000008c .L0 
     /tmp/ccADjw9t.s:100    .text:000000000000008c .L0 
     /tmp/ccADjw9t.s:101    .text:000000000000008c .L0 
     /tmp/ccADjw9t.s:103    .text:0000000000000090 .L0 
     /tmp/ccADjw9t.s:106    .text:0000000000000090 .L0 
     /tmp/ccADjw9t.s:107    .text:0000000000000090 .L0 
     /tmp/ccADjw9t.s:111    .text:0000000000000094 .L0 
     /tmp/ccADjw9t.s:112    .text:0000000000000094 .L0 
     /tmp/ccADjw9t.s:115    .text:000000000000009c .L0 
     /tmp/ccADjw9t.s:116    .text:000000000000009c .L0 
     /tmp/ccADjw9t.s:120    .text:00000000000000ac .L0 
     /tmp/ccADjw9t.s:121    .text:00000000000000ac .L0 
     /tmp/ccADjw9t.s:127    .text:00000000000000c0 .L0 
     /tmp/ccADjw9t.s:128    .text:00000000000000c0 .L0 
     /tmp/ccADjw9t.s:132    .text:00000000000000d0 .L0 
GAS LISTING /tmp/ccADjw9t.s 			page 23


     /tmp/ccADjw9t.s:139    .text:00000000000000dc .L0 
     /tmp/ccADjw9t.s:140    .text:00000000000000dc .L0 
     /tmp/ccADjw9t.s:144    .text:00000000000000ec .L0 
test/Threads_C_API_test.cpp:77     .text:00000000000000ec .L0 
     /tmp/ccADjw9t.s:150    .text:00000000000000f0 .L0 
     /tmp/ccADjw9t.s:152    .text:00000000000000f0 .L0 
     /tmp/ccADjw9t.s:155    .text:00000000000000f8 .L0 
     /tmp/ccADjw9t.s:156    .text:00000000000000f8 .L0 
     /tmp/ccADjw9t.s:162    .text:0000000000000108 .L0 
     /tmp/ccADjw9t.s:163    .text:0000000000000108 .L0 
     /tmp/ccADjw9t.s:168    .text:0000000000000118 .L0 
     /tmp/ccADjw9t.s:169    .text:0000000000000118 .L0 
     /tmp/ccADjw9t.s:175    .text:000000000000012c .L0 
     /tmp/ccADjw9t.s:176    .text:000000000000012c .L0 
     /tmp/ccADjw9t.s:181    .text:000000000000013c .L0 
     /tmp/ccADjw9t.s:182    .text:000000000000013c .L0 
     /tmp/ccADjw9t.s:185    .text:0000000000000144 .L0 
     /tmp/ccADjw9t.s:186    .text:0000000000000144 .L0 
     /tmp/ccADjw9t.s:190    .text:0000000000000154 .L0 
     /tmp/ccADjw9t.s:191    .text:0000000000000154 .L0 
     /tmp/ccADjw9t.s:197    .text:0000000000000168 .L0 
     /tmp/ccADjw9t.s:198    .text:0000000000000168 .L0 
     /tmp/ccADjw9t.s:202    .text:0000000000000178 .L0 
     /tmp/ccADjw9t.s:209    .text:0000000000000184 .L0 
     /tmp/ccADjw9t.s:210    .text:0000000000000184 .L0 
     /tmp/ccADjw9t.s:214    .text:0000000000000194 .L0 
     /tmp/ccADjw9t.s:215    .text:0000000000000194 .L0 
     /tmp/ccADjw9t.s:827    .sbss:0000000000000000 _ZL9finishedD
     /tmp/ccADjw9t.s:218    .text:00000000000001a0 .L0 
     /tmp/ccADjw9t.s:219    .text:00000000000001a0 .L0 
     /tmp/ccADjw9t.s:222    .text:00000000000001a8 .L0 
     /tmp/ccADjw9t.s:223    .text:00000000000001ac .L0 
     /tmp/ccADjw9t.s:225    .text:00000000000001b0 .L0 
     /tmp/ccADjw9t.s:227    .text:00000000000001b4 .L0 
     /tmp/ccADjw9t.s:230    .text:00000000000001b8 .L0 
     /tmp/ccADjw9t.s:233    .text:00000000000001bc .L0 
     /tmp/ccADjw9t.s:235    .text:00000000000001c0 .L0 
     /tmp/ccADjw9t.s:240    .text:00000000000001c0 _ZL11workerBodyCPv
     /tmp/ccADjw9t.s:243    .text:00000000000001c0 .L0 
     /tmp/ccADjw9t.s:245    .text:00000000000001c0 .L0 
     /tmp/ccADjw9t.s:246    .text:00000000000001c4 .L0 
     /tmp/ccADjw9t.s:251    .text:00000000000001d4 .L0 
     /tmp/ccADjw9t.s:252    .text:00000000000001d4 .L0 
     /tmp/ccADjw9t.s:253    .text:00000000000001d4 .L0 
     /tmp/ccADjw9t.s:254    .text:00000000000001d4 .L0 
     /tmp/ccADjw9t.s:256    .text:00000000000001d8 .L0 
     /tmp/ccADjw9t.s:259    .text:00000000000001d8 .L0 
     /tmp/ccADjw9t.s:260    .text:00000000000001d8 .L0 
     /tmp/ccADjw9t.s:264    .text:00000000000001dc .L0 
     /tmp/ccADjw9t.s:265    .text:00000000000001dc .L0 
     /tmp/ccADjw9t.s:268    .text:00000000000001e4 .L0 
     /tmp/ccADjw9t.s:269    .text:00000000000001e4 .L0 
     /tmp/ccADjw9t.s:273    .text:00000000000001f4 .L0 
     /tmp/ccADjw9t.s:274    .text:00000000000001f4 .L0 
     /tmp/ccADjw9t.s:280    .text:0000000000000208 .L0 
     /tmp/ccADjw9t.s:281    .text:0000000000000208 .L0 
     /tmp/ccADjw9t.s:285    .text:0000000000000218 .L0 
GAS LISTING /tmp/ccADjw9t.s 			page 24


     /tmp/ccADjw9t.s:292    .text:0000000000000224 .L0 
     /tmp/ccADjw9t.s:293    .text:0000000000000224 .L0 
     /tmp/ccADjw9t.s:297    .text:0000000000000234 .L0 
test/Threads_C_API_test.cpp:50     .text:0000000000000234 .L0 
     /tmp/ccADjw9t.s:303    .text:0000000000000238 .L0 
     /tmp/ccADjw9t.s:305    .text:0000000000000238 .L0 
     /tmp/ccADjw9t.s:308    .text:0000000000000240 .L0 
     /tmp/ccADjw9t.s:309    .text:0000000000000240 .L0 
test/Threads_C_API_test.cpp:54     .text:0000000000000240 .L0 
     /tmp/ccADjw9t.s:316    .text:0000000000000244 .L0 
     /tmp/ccADjw9t.s:318    .text:0000000000000244 .L0 
     /tmp/ccADjw9t.s:322    .text:0000000000000254 .L0 
     /tmp/ccADjw9t.s:323    .text:0000000000000254 .L0 
     /tmp/ccADjw9t.s:329    .text:0000000000000268 .L0 
     /tmp/ccADjw9t.s:330    .text:0000000000000268 .L0 
     /tmp/ccADjw9t.s:334    .text:0000000000000278 .L0 
     /tmp/ccADjw9t.s:335    .text:0000000000000278 .L0 
     /tmp/ccADjw9t.s:341    .text:0000000000000288 .L0 
     /tmp/ccADjw9t.s:342    .text:0000000000000288 .L0 
     /tmp/ccADjw9t.s:347    .text:0000000000000298 .L0 
     /tmp/ccADjw9t.s:348    .text:0000000000000298 .L0 
     /tmp/ccADjw9t.s:354    .text:00000000000002ac .L0 
     /tmp/ccADjw9t.s:355    .text:00000000000002ac .L0 
     /tmp/ccADjw9t.s:360    .text:00000000000002bc .L0 
     /tmp/ccADjw9t.s:361    .text:00000000000002bc .L0 
     /tmp/ccADjw9t.s:364    .text:00000000000002c4 .L0 
     /tmp/ccADjw9t.s:365    .text:00000000000002c4 .L0 
     /tmp/ccADjw9t.s:369    .text:00000000000002d4 .L0 
     /tmp/ccADjw9t.s:370    .text:00000000000002d4 .L0 
     /tmp/ccADjw9t.s:376    .text:00000000000002e8 .L0 
     /tmp/ccADjw9t.s:377    .text:00000000000002e8 .L0 
     /tmp/ccADjw9t.s:381    .text:00000000000002f8 .L0 
     /tmp/ccADjw9t.s:388    .text:0000000000000304 .L0 
     /tmp/ccADjw9t.s:389    .text:0000000000000304 .L0 
     /tmp/ccADjw9t.s:393    .text:0000000000000314 .L0 
     /tmp/ccADjw9t.s:394    .text:0000000000000314 .L0 
     /tmp/ccADjw9t.s:831    .sbss:0000000000000001 _ZL9finishedC
     /tmp/ccADjw9t.s:397    .text:0000000000000320 .L0 
     /tmp/ccADjw9t.s:398    .text:0000000000000320 .L0 
     /tmp/ccADjw9t.s:401    .text:0000000000000328 .L0 
     /tmp/ccADjw9t.s:402    .text:000000000000032c .L0 
     /tmp/ccADjw9t.s:404    .text:0000000000000330 .L0 
     /tmp/ccADjw9t.s:406    .text:0000000000000334 .L0 
     /tmp/ccADjw9t.s:409    .text:0000000000000338 .L0 
     /tmp/ccADjw9t.s:412    .text:000000000000033c .L0 
     /tmp/ccADjw9t.s:414    .text:0000000000000340 .L0 
     /tmp/ccADjw9t.s:419    .text:0000000000000340 _ZL11workerBodyBPv
     /tmp/ccADjw9t.s:422    .text:0000000000000340 .L0 
     /tmp/ccADjw9t.s:424    .text:0000000000000340 .L0 
     /tmp/ccADjw9t.s:425    .text:0000000000000344 .L0 
     /tmp/ccADjw9t.s:430    .text:0000000000000354 .L0 
     /tmp/ccADjw9t.s:431    .text:0000000000000354 .L0 
     /tmp/ccADjw9t.s:432    .text:0000000000000354 .L0 
     /tmp/ccADjw9t.s:433    .text:0000000000000354 .L0 
     /tmp/ccADjw9t.s:435    .text:0000000000000358 .L0 
     /tmp/ccADjw9t.s:439    .text:0000000000000358 .L0 
     /tmp/ccADjw9t.s:440    .text:0000000000000358 .L0 
GAS LISTING /tmp/ccADjw9t.s 			page 25


     /tmp/ccADjw9t.s:448    .text:0000000000000360 .L0 
     /tmp/ccADjw9t.s:449    .text:0000000000000360 .L0 
     /tmp/ccADjw9t.s:453    .text:0000000000000368 .L0 
     /tmp/ccADjw9t.s:457    .text:000000000000036c .L0 
     /tmp/ccADjw9t.s:463    .text:0000000000000378 .L0 
     /tmp/ccADjw9t.s:467    .text:000000000000037c .L0 
     /tmp/ccADjw9t.s:471    .text:0000000000000388 .L0 
     /tmp/ccADjw9t.s:481    .text:0000000000000390 .L0 
     /tmp/ccADjw9t.s:485    .text:0000000000000394 .L0 
     /tmp/ccADjw9t.s:489    .text:000000000000039c .L0 
     /tmp/ccADjw9t.s:490    .text:000000000000039c .L0 
     /tmp/ccADjw9t.s:494    .text:00000000000003ac .L0 
     /tmp/ccADjw9t.s:495    .text:00000000000003ac .L0 
     /tmp/ccADjw9t.s:501    .text:00000000000003c0 .L0 
     /tmp/ccADjw9t.s:502    .text:00000000000003c0 .L0 
     /tmp/ccADjw9t.s:507    .text:00000000000003d0 .L0 
     /tmp/ccADjw9t.s:508    .text:00000000000003d0 .L0 
     /tmp/ccADjw9t.s:516    .text:00000000000003d8 .L0 
     /tmp/ccADjw9t.s:517    .text:00000000000003d8 .L0 
     /tmp/ccADjw9t.s:521    .text:00000000000003e8 .L0 
     /tmp/ccADjw9t.s:522    .text:00000000000003e8 .L0 
     /tmp/ccADjw9t.s:835    .sbss:0000000000000002 _ZL9finishedB
     /tmp/ccADjw9t.s:525    .text:00000000000003f4 .L0 
     /tmp/ccADjw9t.s:526    .text:00000000000003f4 .L0 
     /tmp/ccADjw9t.s:529    .text:00000000000003fc .L0 
     /tmp/ccADjw9t.s:530    .text:0000000000000400 .L0 
     /tmp/ccADjw9t.s:532    .text:0000000000000404 .L0 
     /tmp/ccADjw9t.s:534    .text:0000000000000408 .L0 
     /tmp/ccADjw9t.s:536    .text:000000000000040c .L0 
     /tmp/ccADjw9t.s:539    .text:0000000000000410 .L0 
     /tmp/ccADjw9t.s:541    .text:0000000000000414 .L0 
     /tmp/ccADjw9t.s:546    .text:0000000000000414 _ZL11workerBodyAPv
     /tmp/ccADjw9t.s:549    .text:0000000000000414 .L0 
     /tmp/ccADjw9t.s:551    .text:0000000000000414 .L0 
     /tmp/ccADjw9t.s:552    .text:0000000000000418 .L0 
     /tmp/ccADjw9t.s:557    .text:0000000000000428 .L0 
     /tmp/ccADjw9t.s:558    .text:0000000000000428 .L0 
     /tmp/ccADjw9t.s:559    .text:0000000000000428 .L0 
     /tmp/ccADjw9t.s:560    .text:0000000000000428 .L0 
     /tmp/ccADjw9t.s:562    .text:000000000000042c .L0 
     /tmp/ccADjw9t.s:566    .text:000000000000042c .L0 
     /tmp/ccADjw9t.s:567    .text:000000000000042c .L0 
     /tmp/ccADjw9t.s:575    .text:0000000000000434 .L0 
     /tmp/ccADjw9t.s:576    .text:0000000000000434 .L0 
     /tmp/ccADjw9t.s:580    .text:000000000000043c .L0 
     /tmp/ccADjw9t.s:584    .text:0000000000000440 .L0 
     /tmp/ccADjw9t.s:590    .text:000000000000044c .L0 
     /tmp/ccADjw9t.s:594    .text:0000000000000450 .L0 
     /tmp/ccADjw9t.s:598    .text:000000000000045c .L0 
     /tmp/ccADjw9t.s:608    .text:0000000000000464 .L0 
     /tmp/ccADjw9t.s:612    .text:0000000000000468 .L0 
     /tmp/ccADjw9t.s:616    .text:0000000000000470 .L0 
     /tmp/ccADjw9t.s:617    .text:0000000000000470 .L0 
     /tmp/ccADjw9t.s:621    .text:0000000000000480 .L0 
     /tmp/ccADjw9t.s:622    .text:0000000000000480 .L0 
     /tmp/ccADjw9t.s:628    .text:0000000000000494 .L0 
     /tmp/ccADjw9t.s:629    .text:0000000000000494 .L0 
GAS LISTING /tmp/ccADjw9t.s 			page 26


     /tmp/ccADjw9t.s:634    .text:00000000000004a4 .L0 
     /tmp/ccADjw9t.s:635    .text:00000000000004a4 .L0 
     /tmp/ccADjw9t.s:643    .text:00000000000004ac .L0 
     /tmp/ccADjw9t.s:644    .text:00000000000004ac .L0 
     /tmp/ccADjw9t.s:648    .text:00000000000004bc .L0 
     /tmp/ccADjw9t.s:649    .text:00000000000004bc .L0 
     /tmp/ccADjw9t.s:839    .sbss:0000000000000003 _ZL9finishedA
     /tmp/ccADjw9t.s:652    .text:00000000000004c8 .L0 
     /tmp/ccADjw9t.s:653    .text:00000000000004cc .L0 
     /tmp/ccADjw9t.s:655    .text:00000000000004d0 .L0 
     /tmp/ccADjw9t.s:657    .text:00000000000004d4 .L0 
     /tmp/ccADjw9t.s:659    .text:00000000000004d8 .L0 
     /tmp/ccADjw9t.s:662    .text:00000000000004dc .L0 
     /tmp/ccADjw9t.s:664    .text:00000000000004e0 .L0 
     /tmp/ccADjw9t.s:670    .text:00000000000004e0 _Z18Threads_C_API_testv
     /tmp/ccADjw9t.s:673    .text:00000000000004e0 .L0 
     /tmp/ccADjw9t.s:674    .text:00000000000004e0 .L0 
     /tmp/ccADjw9t.s:675    .text:00000000000004e4 .L0 
     /tmp/ccADjw9t.s:678    .text:00000000000004ec .L0 
     /tmp/ccADjw9t.s:679    .text:00000000000004ec .L0 
     /tmp/ccADjw9t.s:681    .text:00000000000004f0 .L0 
     /tmp/ccADjw9t.s:683    .text:00000000000004f0 .L0 
     /tmp/ccADjw9t.s:684    .text:00000000000004f0 .L0 
     /tmp/ccADjw9t.s:685    .text:00000000000004f0 .L0 
     /tmp/ccADjw9t.s:691    .text:0000000000000508 .L0 
     /tmp/ccADjw9t.s:692    .text:0000000000000508 .L0 
     /tmp/ccADjw9t.s:696    .text:0000000000000518 .L0 
     /tmp/ccADjw9t.s:697    .text:0000000000000518 .L0 
     /tmp/ccADjw9t.s:703    .text:0000000000000530 .L0 
     /tmp/ccADjw9t.s:704    .text:0000000000000530 .L0 
     /tmp/ccADjw9t.s:708    .text:0000000000000540 .L0 
     /tmp/ccADjw9t.s:709    .text:0000000000000540 .L0 
     /tmp/ccADjw9t.s:715    .text:0000000000000558 .L0 
     /tmp/ccADjw9t.s:716    .text:0000000000000558 .L0 
     /tmp/ccADjw9t.s:720    .text:0000000000000568 .L0 
     /tmp/ccADjw9t.s:721    .text:0000000000000568 .L0 
     /tmp/ccADjw9t.s:727    .text:0000000000000580 .L0 
     /tmp/ccADjw9t.s:728    .text:0000000000000580 .L0 
     /tmp/ccADjw9t.s:734    .text:0000000000000594 .L0 
     /tmp/ccADjw9t.s:735    .text:0000000000000594 .L0 
     /tmp/ccADjw9t.s:739    .text:000000000000059c .L0 
     /tmp/ccADjw9t.s:740    .text:000000000000059c .L0 
     /tmp/ccADjw9t.s:744    .text:00000000000005ac .L0 
     /tmp/ccADjw9t.s:746    .text:00000000000005b0 .L0 
     /tmp/ccADjw9t.s:751    .text:00000000000005c4 .L0 
     /tmp/ccADjw9t.s:756    .text:00000000000005d8 .L0 
     /tmp/ccADjw9t.s:760    .text:00000000000005e8 .L0 
     /tmp/ccADjw9t.s:762    .text:00000000000005ec .L0 
     /tmp/ccADjw9t.s:763    .text:00000000000005f0 .L0 
     /tmp/ccADjw9t.s:765    .text:00000000000005f4 .L0 
     /tmp/ccADjw9t.s:767    .text:00000000000005f8 .L0 
     /tmp/ccADjw9t.s:769    .text:00000000000005fc .L0 
     /tmp/ccADjw9t.s:848    .text:00000000000005fc .L0 
     /tmp/ccADjw9t.s:774    .rodata.str1.8:0000000000000000 .LC0
     /tmp/ccADjw9t.s:116    .text:000000000000009c .L0 
     /tmp/ccADjw9t.s:777    .rodata.str1.8:0000000000000008 .LC1
     /tmp/ccADjw9t.s:128    .text:00000000000000c0 .L0 
GAS LISTING /tmp/ccADjw9t.s 			page 27


     /tmp/ccADjw9t.s:780    .rodata.str1.8:0000000000000010 .LC2
     /tmp/ccADjw9t.s:140    .text:00000000000000dc .L0 
     /tmp/ccADjw9t.s:783    .rodata.str1.8:0000000000000020 .LC3
     /tmp/ccADjw9t.s:163    .text:0000000000000108 .L0 
     /tmp/ccADjw9t.s:176    .text:000000000000012c .L0 
     /tmp/ccADjw9t.s:186    .text:0000000000000144 .L0 
     /tmp/ccADjw9t.s:198    .text:0000000000000168 .L0 
     /tmp/ccADjw9t.s:786    .rodata.str1.8:0000000000000030 .LC4
     /tmp/ccADjw9t.s:210    .text:0000000000000184 .L0 
     /tmp/ccADjw9t.s:216    .text:0000000000000198 .L0 
     /tmp/ccADjw9t.s:789    .rodata.str1.8:0000000000000040 .LC5
     /tmp/ccADjw9t.s:269    .text:00000000000001e4 .L0 
     /tmp/ccADjw9t.s:281    .text:0000000000000208 .L0 
     /tmp/ccADjw9t.s:792    .rodata.str1.8:0000000000000048 .LC6
     /tmp/ccADjw9t.s:293    .text:0000000000000224 .L0 
     /tmp/ccADjw9t.s:795    .rodata.str1.8:0000000000000058 .LC7
     /tmp/ccADjw9t.s:318    .text:0000000000000244 .L0 
     /tmp/ccADjw9t.s:330    .text:0000000000000268 .L0 
     /tmp/ccADjw9t.s:798    .rodata.str1.8:0000000000000060 .LC8
     /tmp/ccADjw9t.s:342    .text:0000000000000288 .L0 
     /tmp/ccADjw9t.s:355    .text:00000000000002ac .L0 
     /tmp/ccADjw9t.s:365    .text:00000000000002c4 .L0 
     /tmp/ccADjw9t.s:377    .text:00000000000002e8 .L0 
     /tmp/ccADjw9t.s:801    .rodata.str1.8:0000000000000070 .LC9
     /tmp/ccADjw9t.s:389    .text:0000000000000304 .L0 
     /tmp/ccADjw9t.s:395    .text:0000000000000318 .L0 
     /tmp/ccADjw9t.s:804    .rodata.str1.8:0000000000000080 .LC10
     /tmp/ccADjw9t.s:490    .text:000000000000039c .L0 
     /tmp/ccADjw9t.s:502    .text:00000000000003c0 .L0 
     /tmp/ccADjw9t.s:807    .rodata.str1.8:0000000000000088 .LC11
     /tmp/ccADjw9t.s:517    .text:00000000000003d8 .L0 
     /tmp/ccADjw9t.s:523    .text:00000000000003ec .L0 
     /tmp/ccADjw9t.s:810    .rodata.str1.8:0000000000000098 .LC12
     /tmp/ccADjw9t.s:617    .text:0000000000000470 .L0 
     /tmp/ccADjw9t.s:629    .text:0000000000000494 .L0 
     /tmp/ccADjw9t.s:644    .text:00000000000004ac .L0 
     /tmp/ccADjw9t.s:650    .text:00000000000004c0 .L0 
     /tmp/ccADjw9t.s:686    .text:00000000000004f4 .L0 
     /tmp/ccADjw9t.s:813    .rodata.str1.8:00000000000000a0 .LC13
     /tmp/ccADjw9t.s:692    .text:0000000000000508 .L0 
     /tmp/ccADjw9t.s:698    .text:000000000000051c .L0 
     /tmp/ccADjw9t.s:816    .rodata.str1.8:00000000000000b8 .LC14
     /tmp/ccADjw9t.s:704    .text:0000000000000530 .L0 
     /tmp/ccADjw9t.s:710    .text:0000000000000544 .L0 
     /tmp/ccADjw9t.s:819    .rodata.str1.8:00000000000000d0 .LC15
     /tmp/ccADjw9t.s:716    .text:0000000000000558 .L0 
     /tmp/ccADjw9t.s:722    .text:000000000000056c .L0 
     /tmp/ccADjw9t.s:822    .rodata.str1.8:00000000000000e8 .LC16
     /tmp/ccADjw9t.s:728    .text:0000000000000580 .L0 
     /tmp/ccADjw9t.s:740    .text:000000000000059c .L0 
     /tmp/ccADjw9t.s:746    .text:00000000000005b0 .L0 
     /tmp/ccADjw9t.s:751    .text:00000000000005c4 .L0 
     /tmp/ccADjw9t.s:756    .text:00000000000005d8 .L0 
     /tmp/ccADjw9t.s:74     .text:0000000000000074 .L6
     /tmp/ccADjw9t.s:66     .text:0000000000000068 .L9
     /tmp/ccADjw9t.s:38     .text:0000000000000030 .L3
     /tmp/ccADjw9t.s:137    .text:00000000000000dc .L11
GAS LISTING /tmp/ccADjw9t.s 			page 28


     /tmp/ccADjw9t.s:109    .text:0000000000000094 .L12
     /tmp/ccADjw9t.s:207    .text:0000000000000184 .L13
     /tmp/ccADjw9t.s:179    .text:000000000000013c .L14
     /tmp/ccADjw9t.s:290    .text:0000000000000224 .L17
     /tmp/ccADjw9t.s:262    .text:00000000000001dc .L18
     /tmp/ccADjw9t.s:386    .text:0000000000000304 .L19
     /tmp/ccADjw9t.s:358    .text:00000000000002bc .L20
     /tmp/ccADjw9t.s:483    .text:0000000000000394 .L28
     /tmp/ccADjw9t.s:475    .text:0000000000000390 .L24
     /tmp/ccADjw9t.s:443    .text:0000000000000360 .L25
     /tmp/ccADjw9t.s:464    .text:000000000000037c .L26
     /tmp/ccADjw9t.s:511    .text:00000000000003d8 .L23
     /tmp/ccADjw9t.s:455    .text:000000000000036c .L27
     /tmp/ccADjw9t.s:610    .text:0000000000000468 .L36
     /tmp/ccADjw9t.s:602    .text:0000000000000464 .L32
     /tmp/ccADjw9t.s:570    .text:0000000000000434 .L33
     /tmp/ccADjw9t.s:591    .text:0000000000000450 .L34
     /tmp/ccADjw9t.s:638    .text:00000000000004ac .L31
     /tmp/ccADjw9t.s:582    .text:0000000000000440 .L35
     /tmp/ccADjw9t.s:737    .text:000000000000059c .L40
     /tmp/ccADjw9t.s:732    .text:0000000000000594 .L39
     /tmp/ccADjw9t.s:2488   .debug_abbrev:0000000000000000 .Ldebug_abbrev0
     /tmp/ccADjw9t.s:3760   .debug_str:0000000000000423 .LASF105
     /tmp/ccADjw9t.s:3714   .debug_str:00000000000002c5 .LASF106
     /tmp/ccADjw9t.s:3662   .debug_str:0000000000000137 .LASF107
     /tmp/ccADjw9t.s:5      .text:0000000000000000 .Ltext0
     /tmp/ccADjw9t.s:842    .text:00000000000005fc .Letext0
     /tmp/ccADjw9t.s:3618   .debug_line:0000000000000000 .Ldebug_line0
     /tmp/ccADjw9t.s:3770   .debug_str:000000000000051f .LASF0
     /tmp/ccADjw9t.s:3780   .debug_str:000000000000056a .LASF1
     /tmp/ccADjw9t.s:3756   .debug_str:0000000000000409 .LASF2
     /tmp/ccADjw9t.s:3688   .debug_str:0000000000000217 .LASF3
     /tmp/ccADjw9t.s:3722   .debug_str:0000000000000325 .LASF4
     /tmp/ccADjw9t.s:3810   .debug_str:000000000000066b .LASF5
     /tmp/ccADjw9t.s:3648   .debug_str:00000000000000dc .LASF6
     /tmp/ccADjw9t.s:3786   .debug_str:00000000000005bb .LASF7
     /tmp/ccADjw9t.s:3768   .debug_str:000000000000050c .LASF8
     /tmp/ccADjw9t.s:3836   .debug_str:0000000000000734 .LASF9
     /tmp/ccADjw9t.s:3706   .debug_str:000000000000027b .LASF10
     /tmp/ccADjw9t.s:3792   .debug_str:00000000000005f6 .LASF11
     /tmp/ccADjw9t.s:3828   .debug_str:0000000000000700 .LASF12
     /tmp/ccADjw9t.s:3652   .debug_str:00000000000000ee .LASF13
     /tmp/ccADjw9t.s:3628   .debug_str:000000000000003f .LASF14
     /tmp/ccADjw9t.s:3666   .debug_str:0000000000000158 .LASF15
     /tmp/ccADjw9t.s:3806   .debug_str:000000000000064f .LASF16
     /tmp/ccADjw9t.s:3674   .debug_str:0000000000000191 .LASF17
     /tmp/ccADjw9t.s:3744   .debug_str:00000000000003c5 .LASF44
     /tmp/ccADjw9t.s:3746   .debug_str:00000000000003cf .LASF108
     /tmp/ccADjw9t.s:3680   .debug_str:00000000000001cd .LASF18
     /tmp/ccADjw9t.s:3752   .debug_str:00000000000003e6 .LASF19
     /tmp/ccADjw9t.s:3830   .debug_str:000000000000070f .LASF20
     /tmp/ccADjw9t.s:3720   .debug_str:0000000000000320 .LASF21
     /tmp/ccADjw9t.s:3818   .debug_str:00000000000006b2 .LASF32
     /tmp/ccADjw9t.s:3802   .debug_str:000000000000062d .LASF23
     /tmp/ccADjw9t.s:3762   .debug_str:00000000000004e7 .LASF109
     /tmp/ccADjw9t.s:3710   .debug_str:0000000000000295 .LASF110
     /tmp/ccADjw9t.s:3840   .debug_str:000000000000074e .LASF22
GAS LISTING /tmp/ccADjw9t.s 			page 29


     /tmp/ccADjw9t.s:3782   .debug_str:000000000000057d .LASF24
     /tmp/ccADjw9t.s:3682   .debug_str:00000000000001d2 .LASF25
     /tmp/ccADjw9t.s:3754   .debug_str:00000000000003eb .LASF26
     /tmp/ccADjw9t.s:3660   .debug_str:000000000000012f .LASF27
     /tmp/ccADjw9t.s:3654   .debug_str:00000000000000fe .LASF28
     /tmp/ccADjw9t.s:3804   .debug_str:0000000000000644 .LASF29
     /tmp/ccADjw9t.s:3790   .debug_str:00000000000005d9 .LASF30
     /tmp/ccADjw9t.s:3822   .debug_str:00000000000006de .LASF31
     /tmp/ccADjw9t.s:3686   .debug_str:00000000000001fa .LASF33
     /tmp/ccADjw9t.s:3704   .debug_str:0000000000000273 .LASF34
     /tmp/ccADjw9t.s:3684   .debug_str:00000000000001de .LASF35
     /tmp/ccADjw9t.s:3826   .debug_str:00000000000006f4 .LASF36
     /tmp/ccADjw9t.s:3622   .debug_str:0000000000000009 .LASF37
     /tmp/ccADjw9t.s:3664   .debug_str:000000000000014e .LASF38
     /tmp/ccADjw9t.s:3736   .debug_str:0000000000000383 .LASF39
     /tmp/ccADjw9t.s:3774   .debug_str:0000000000000535 .LASF40
     /tmp/ccADjw9t.s:3638   .debug_str:0000000000000075 .LASF41
     /tmp/ccADjw9t.s:3740   .debug_str:00000000000003ae .LASF42
     /tmp/ccADjw9t.s:3848   .debug_str:000000000000077f .LASF43
     /tmp/ccADjw9t.s:3634   .debug_str:0000000000000063 .LASF111
     /tmp/ccADjw9t.s:3846   .debug_str:0000000000000772 .LASF45
     /tmp/ccADjw9t.s:3646   .debug_str:00000000000000d0 .LASF46
     /tmp/ccADjw9t.s:3702   .debug_str:0000000000000263 .LASF47
     /tmp/ccADjw9t.s:3708   .debug_str:0000000000000289 .LASF48
     /tmp/ccADjw9t.s:3814   .debug_str:000000000000068f .LASF49
     /tmp/ccADjw9t.s:3800   .debug_str:0000000000000620 .LASF51
     /tmp/ccADjw9t.s:3816   .debug_str:000000000000069f .LASF50
     /tmp/ccADjw9t.s:3824   .debug_str:00000000000006e7 .LASF52
     /tmp/ccADjw9t.s:3750   .debug_str:00000000000003e1 .LASF53
     /tmp/ccADjw9t.s:3796   .debug_str:000000000000060f .LASF54
     /tmp/ccADjw9t.s:3788   .debug_str:00000000000005ce .LASF55
     /tmp/ccADjw9t.s:3672   .debug_str:000000000000017a .LASF56
     /tmp/ccADjw9t.s:3758   .debug_str:0000000000000417 .LASF57
     /tmp/ccADjw9t.s:3716   .debug_str:00000000000002e1 .LASF58
     /tmp/ccADjw9t.s:3748   .debug_str:00000000000003d4 .LASF59
     /tmp/ccADjw9t.s:3820   .debug_str:00000000000006c5 .LASF60
     /tmp/ccADjw9t.s:3734   .debug_str:0000000000000376 .LASF61
     /tmp/ccADjw9t.s:3642   .debug_str:00000000000000a2 .LASF62
     /tmp/ccADjw9t.s:3798   .debug_str:000000000000061b .LASF112
     /tmp/ccADjw9t.s:3808   .debug_str:0000000000000665 .LASF65
     /tmp/ccADjw9t.s:3640   .debug_str:0000000000000092 .LASF67
     /tmp/ccADjw9t.s:3690   .debug_str:000000000000021d .LASF113
     /tmp/ccADjw9t.s:3854   .debug_str:00000000000007b8 .LASF63
     /tmp/ccADjw9t.s:3776   .debug_str:0000000000000540 .LASF64
     /tmp/ccADjw9t.s:3812   .debug_str:000000000000067d .LASF66
     /tmp/ccADjw9t.s:3724   .debug_str:000000000000032c .LASF68
     /tmp/ccADjw9t.s:3732   .debug_str:000000000000035f .LASF114
     /tmp/ccADjw9t.s:3728   .debug_str:0000000000000352 .LASF69
     /tmp/ccADjw9t.s:3668   .debug_str:0000000000000164 .LASF70
     /tmp/ccADjw9t.s:3730   .debug_str:0000000000000357 .LASF71
     /tmp/ccADjw9t.s:3778   .debug_str:0000000000000560 .LASF72
     /tmp/ccADjw9t.s:3726   .debug_str:0000000000000349 .LASF73
     /tmp/ccADjw9t.s:3834   .debug_str:000000000000072a .LASF74
     /tmp/ccADjw9t.s:3738   .debug_str:000000000000039e .LASF79
     /tmp/ccADjw9t.s:3742   .debug_str:00000000000003b7 .LASF75
     /tmp/ccADjw9t.s:3712   .debug_str:00000000000002ac .LASF77
     /tmp/ccADjw9t.s:3842   .debug_str:0000000000000759 .LASF115
GAS LISTING /tmp/ccADjw9t.s 			page 30


     /tmp/ccADjw9t.s:3718   .debug_str:00000000000002f8 .LASF116
     /tmp/ccADjw9t.s:3772   .debug_str:000000000000052c .LASF76
     /tmp/ccADjw9t.s:3692   .debug_str:0000000000000225 .LASF78
     /tmp/ccADjw9t.s:3658   .debug_str:000000000000011e .LASF80
     /tmp/ccADjw9t.s:3650   .debug_str:00000000000000e3 .LASF81
     /tmp/ccADjw9t.s:3844   .debug_str:0000000000000767 .LASF82
     /tmp/ccADjw9t.s:3694   .debug_str:0000000000000238 .LASF83
     /tmp/ccADjw9t.s:3620   .debug_str:0000000000000000 .LASF84
     /tmp/ccADjw9t.s:3794   .debug_str:0000000000000605 .LASF85
     /tmp/ccADjw9t.s:3630   .debug_str:000000000000004f .LASF86
     /tmp/ccADjw9t.s:3632   .debug_str:0000000000000059 .LASF87
     /tmp/ccADjw9t.s:3636   .debug_str:000000000000006b .LASF88
     /tmp/ccADjw9t.s:3832   .debug_str:0000000000000717 .LASF89
     /tmp/ccADjw9t.s:3678   .debug_str:00000000000001b5 .LASF90
     /tmp/ccADjw9t.s:671    .text:00000000000004e0 .LFB37
     /tmp/ccADjw9t.s:770    .text:00000000000005fc .LFE37
     /tmp/ccADjw9t.s:3700   .debug_str:000000000000025b .LASF91
     /tmp/ccADjw9t.s:689    .text:0000000000000508 .LVL93
     /tmp/ccADjw9t.s:694    .text:0000000000000518 .LVL94
     /tmp/ccADjw9t.s:701    .text:0000000000000530 .LVL95
     /tmp/ccADjw9t.s:706    .text:0000000000000540 .LVL96
     /tmp/ccADjw9t.s:713    .text:0000000000000558 .LVL97
     /tmp/ccADjw9t.s:718    .text:0000000000000568 .LVL98
     /tmp/ccADjw9t.s:725    .text:0000000000000580 .LVL99
     /tmp/ccADjw9t.s:730    .text:0000000000000590 .LVL100
     /tmp/ccADjw9t.s:736    .text:000000000000059c .LVL101
     /tmp/ccADjw9t.s:3644   .debug_str:00000000000000c4 .LASF93
     /tmp/ccADjw9t.s:88     .text:0000000000000078 .LFB36
     /tmp/ccADjw9t.s:236    .text:00000000000001c0 .LFE36
     /tmp/ccADjw9t.s:3369   .debug_loc:0000000000000000 .LLST1
     /tmp/ccADjw9t.s:3383   .debug_loc:0000000000000039 .LLST2
     /tmp/ccADjw9t.s:3656   .debug_str:0000000000000117 .LASF92
     /tmp/ccADjw9t.s:3403   .debug_loc:0000000000000096 .LLST3
     /tmp/ccADjw9t.s:118    .text:00000000000000ac .LVL11
     /tmp/ccADjw9t.s:125    .text:00000000000000c0 .LVL12
     /tmp/ccADjw9t.s:130    .text:00000000000000d0 .LVL13
     /tmp/ccADjw9t.s:142    .text:00000000000000ec .LVL16
     /tmp/ccADjw9t.s:153    .text:00000000000000f8 .LVL17
     /tmp/ccADjw9t.s:158    .text:0000000000000104 .LVL18
     /tmp/ccADjw9t.s:166    .text:0000000000000118 .LVL21
     /tmp/ccADjw9t.s:173    .text:000000000000012c .LVL22
     /tmp/ccADjw9t.s:178    .text:000000000000013c .LVL23
     /tmp/ccADjw9t.s:188    .text:0000000000000154 .LVL24
     /tmp/ccADjw9t.s:195    .text:0000000000000168 .LVL25
     /tmp/ccADjw9t.s:200    .text:0000000000000178 .LVL26
     /tmp/ccADjw9t.s:212    .text:0000000000000194 .LVL29
     /tmp/ccADjw9t.s:220    .text:00000000000001a8 .LVL30
     /tmp/ccADjw9t.s:3626   .debug_str:0000000000000033 .LASF94
     /tmp/ccADjw9t.s:241    .text:00000000000001c0 .LFB35
     /tmp/ccADjw9t.s:415    .text:0000000000000340 .LFE35
     /tmp/ccADjw9t.s:3414   .debug_loc:00000000000000cc .LLST4
     /tmp/ccADjw9t.s:3428   .debug_loc:0000000000000105 .LLST5
     /tmp/ccADjw9t.s:3448   .debug_loc:0000000000000162 .LLST6
     /tmp/ccADjw9t.s:3456   .debug_loc:0000000000000186 .LLST7
     /tmp/ccADjw9t.s:271    .text:00000000000001f4 .LVL36
     /tmp/ccADjw9t.s:278    .text:0000000000000208 .LVL37
     /tmp/ccADjw9t.s:283    .text:0000000000000218 .LVL38
GAS LISTING /tmp/ccADjw9t.s 			page 31


     /tmp/ccADjw9t.s:295    .text:0000000000000234 .LVL41
     /tmp/ccADjw9t.s:306    .text:0000000000000240 .LVL42
     /tmp/ccADjw9t.s:320    .text:0000000000000254 .LVL44
     /tmp/ccADjw9t.s:327    .text:0000000000000268 .LVL45
     /tmp/ccADjw9t.s:332    .text:0000000000000278 .LVL46
     /tmp/ccADjw9t.s:337    .text:0000000000000284 .LVL47
     /tmp/ccADjw9t.s:345    .text:0000000000000298 .LVL50
     /tmp/ccADjw9t.s:352    .text:00000000000002ac .LVL51
     /tmp/ccADjw9t.s:357    .text:00000000000002bc .LVL52
     /tmp/ccADjw9t.s:367    .text:00000000000002d4 .LVL53
     /tmp/ccADjw9t.s:374    .text:00000000000002e8 .LVL54
     /tmp/ccADjw9t.s:379    .text:00000000000002f8 .LVL55
     /tmp/ccADjw9t.s:391    .text:0000000000000314 .LVL58
     /tmp/ccADjw9t.s:399    .text:0000000000000328 .LVL59
     /tmp/ccADjw9t.s:3624   .debug_str:0000000000000027 .LASF95
     /tmp/ccADjw9t.s:420    .text:0000000000000340 .LFB34
     /tmp/ccADjw9t.s:542    .text:0000000000000414 .LFE34
     /tmp/ccADjw9t.s:3467   .debug_loc:00000000000001bc .LLST8
     /tmp/ccADjw9t.s:438    .text:0000000000000358 .LBB2
     /tmp/ccADjw9t.s:514    .text:00000000000003d8 .LBE2
     /tmp/ccADjw9t.s:3481   .debug_loc:00000000000001f5 .LLST9
     /tmp/ccADjw9t.s:3604   .debug_ranges:0000000000000000 .Ldebug_ranges0
     /tmp/ccADjw9t.s:3493   .debug_loc:000000000000022c .LLST10
     /tmp/ccADjw9t.s:461    .text:0000000000000378 .LBB6
     /tmp/ccADjw9t.s:476    .text:0000000000000390 .LBE6
     /tmp/ccADjw9t.s:3505   .debug_loc:0000000000000263 .LLST11
     /tmp/ccADjw9t.s:450    .text:0000000000000368 .LVL65
     /tmp/ccADjw9t.s:492    .text:00000000000003ac .LVL71
     /tmp/ccADjw9t.s:499    .text:00000000000003c0 .LVL72
     /tmp/ccADjw9t.s:504    .text:00000000000003d0 .LVL73
     /tmp/ccADjw9t.s:519    .text:00000000000003e8 .LVL75
     /tmp/ccADjw9t.s:527    .text:00000000000003fc .LVL76
     /tmp/ccADjw9t.s:3764   .debug_str:00000000000004f1 .LASF96
     /tmp/ccADjw9t.s:547    .text:0000000000000414 .LFB33
     /tmp/ccADjw9t.s:665    .text:00000000000004e0 .LFE33
     /tmp/ccADjw9t.s:3516   .debug_loc:0000000000000299 .LLST12
     /tmp/ccADjw9t.s:565    .text:000000000000042c .LBB10
     /tmp/ccADjw9t.s:641    .text:00000000000004ac .LBE10
     /tmp/ccADjw9t.s:3530   .debug_loc:00000000000002d2 .LLST13
     /tmp/ccADjw9t.s:3542   .debug_loc:0000000000000309 .LLST14
     /tmp/ccADjw9t.s:588    .text:000000000000044c .LBB14
     /tmp/ccADjw9t.s:603    .text:0000000000000464 .LBE14
     /tmp/ccADjw9t.s:3554   .debug_loc:0000000000000340 .LLST15
     /tmp/ccADjw9t.s:577    .text:000000000000043c .LVL81
     /tmp/ccADjw9t.s:619    .text:0000000000000480 .LVL87
     /tmp/ccADjw9t.s:626    .text:0000000000000494 .LVL88
     /tmp/ccADjw9t.s:631    .text:00000000000004a4 .LVL89
     /tmp/ccADjw9t.s:646    .text:00000000000004bc .LVL91
     /tmp/ccADjw9t.s:3838   .debug_str:0000000000000744 .LASF117
     /tmp/ccADjw9t.s:9      .text:0000000000000000 .LFB32
     /tmp/ccADjw9t.s:83     .text:0000000000000078 .LFE32
     /tmp/ccADjw9t.s:3565   .debug_loc:0000000000000376 .LLST0
     /tmp/ccADjw9t.s:43     .text:000000000000003c .LVL2
     /tmp/ccADjw9t.s:48     .text:000000000000004c .LVL3
     /tmp/ccADjw9t.s:71     .text:0000000000000070 .LVL6
     /tmp/ccADjw9t.s:3784   .debug_str:000000000000059a .LASF97
     /tmp/ccADjw9t.s:3676   .debug_str:00000000000001a7 .LASF99
GAS LISTING /tmp/ccADjw9t.s 			page 32


     /tmp/ccADjw9t.s:3850   .debug_str:0000000000000799 .LASF98
     /tmp/ccADjw9t.s:3852   .debug_str:00000000000007ac .LASF100
     /tmp/ccADjw9t.s:3696   .debug_str:000000000000023d .LASF101
     /tmp/ccADjw9t.s:3670   .debug_str:000000000000016a .LASF102
     /tmp/ccADjw9t.s:3766   .debug_str:00000000000004fd .LASF103
     /tmp/ccADjw9t.s:3698   .debug_str:0000000000000252 .LASF104
     /tmp/ccADjw9t.s:91     .text:0000000000000078 .LVL8
     /tmp/ccADjw9t.s:108    .text:0000000000000094 .LVL10
     /tmp/ccADjw9t.s:105    .text:0000000000000090 .LVL9
     /tmp/ccADjw9t.s:133    .text:00000000000000d4 .LVL14
     /tmp/ccADjw9t.s:135    .text:00000000000000d8 .LVL15
     /tmp/ccADjw9t.s:203    .text:000000000000017c .LVL27
     /tmp/ccADjw9t.s:205    .text:0000000000000180 .LVL28
     /tmp/ccADjw9t.s:228    .text:00000000000001b4 .LVL31
     /tmp/ccADjw9t.s:160    .text:0000000000000108 .LVL19
     /tmp/ccADjw9t.s:164    .text:0000000000000110 .LVL20
     /tmp/ccADjw9t.s:231    .text:00000000000001b8 .LVL32
     /tmp/ccADjw9t.s:244    .text:00000000000001c0 .LVL33
     /tmp/ccADjw9t.s:261    .text:00000000000001dc .LVL35
     /tmp/ccADjw9t.s:258    .text:00000000000001d8 .LVL34
     /tmp/ccADjw9t.s:286    .text:000000000000021c .LVL39
     /tmp/ccADjw9t.s:288    .text:0000000000000220 .LVL40
     /tmp/ccADjw9t.s:382    .text:00000000000002fc .LVL56
     /tmp/ccADjw9t.s:384    .text:0000000000000300 .LVL57
     /tmp/ccADjw9t.s:407    .text:0000000000000334 .LVL60
     /tmp/ccADjw9t.s:314    .text:0000000000000244 .LVL43
     /tmp/ccADjw9t.s:339    .text:0000000000000288 .LVL48
     /tmp/ccADjw9t.s:343    .text:0000000000000290 .LVL49
     /tmp/ccADjw9t.s:410    .text:0000000000000338 .LVL61
     /tmp/ccADjw9t.s:423    .text:0000000000000340 .LVL62
     /tmp/ccADjw9t.s:442    .text:0000000000000360 .LVL64
     /tmp/ccADjw9t.s:437    .text:0000000000000358 .LVL63
     /tmp/ccADjw9t.s:537    .text:000000000000040c .LVL77
     /tmp/ccADjw9t.s:482    .text:0000000000000394 .LVL70
     /tmp/ccADjw9t.s:510    .text:00000000000003d8 .LVL74
     /tmp/ccADjw9t.s:465    .text:000000000000037c .LVL67
     /tmp/ccADjw9t.s:474    .text:0000000000000390 .LVL69
     /tmp/ccADjw9t.s:550    .text:0000000000000414 .LVL78
     /tmp/ccADjw9t.s:569    .text:0000000000000434 .LVL80
     /tmp/ccADjw9t.s:564    .text:000000000000042c .LVL79
     /tmp/ccADjw9t.s:660    .text:00000000000004d8 .LVL92
     /tmp/ccADjw9t.s:609    .text:0000000000000468 .LVL86
     /tmp/ccADjw9t.s:637    .text:00000000000004ac .LVL90
     /tmp/ccADjw9t.s:592    .text:0000000000000450 .LVL83
     /tmp/ccADjw9t.s:601    .text:0000000000000464 .LVL85
     /tmp/ccADjw9t.s:13     .text:0000000000000000 .LVL0
     /tmp/ccADjw9t.s:37     .text:0000000000000030 .LVL1
     /tmp/ccADjw9t.s:59     .text:000000000000005c .LVL4
     /tmp/ccADjw9t.s:65     .text:0000000000000068 .LVL5
     /tmp/ccADjw9t.s:73     .text:0000000000000074 .LVL7
     /tmp/ccADjw9t.s:849    .debug_info:0000000000000000 .Ldebug_info0
     /tmp/ccADjw9t.s:445    .text:0000000000000360 .LBB4
     /tmp/ccADjw9t.s:478    .text:0000000000000390 .LBE4
     /tmp/ccADjw9t.s:506    .text:00000000000003d0 .LBB8
     /tmp/ccADjw9t.s:512    .text:00000000000003d8 .LBE8
     /tmp/ccADjw9t.s:572    .text:0000000000000434 .LBB12
     /tmp/ccADjw9t.s:605    .text:0000000000000464 .LBE12
GAS LISTING /tmp/ccADjw9t.s 			page 33


     /tmp/ccADjw9t.s:633    .text:00000000000004a4 .LBB16
     /tmp/ccADjw9t.s:639    .text:00000000000004ac .LBE16

UNDEFINED SYMBOLS
_Z15thread_dispatchv
_Z11printStringPKc
_Z8printIntiii
_Z13thread_createPP3TCBPFvPvES2_
