GAS LISTING /tmp/cc4kawoN.s 			page 1


   1              		.file	"userMain.cpp"
   2              		.option nopic
   3              		.option norelax
   4              		.text
   5              	.Ltext0:
   6              		.align	2
   7              		.globl	_Z8userMainv
   9              	_Z8userMainv:
  10              	.LFB32:
  11              		.file 1 "test/userMain.cpp"
   1:test/userMain.cpp **** #include "printing.hpp"
   2:test/userMain.cpp **** 
   3:test/userMain.cpp **** #define LEVEL_1_IMPLEMENTED 0
   4:test/userMain.cpp **** #define LEVEL_2_IMPLEMENTED 1
   5:test/userMain.cpp **** #define LEVEL_3_IMPLEMENTED 1
   6:test/userMain.cpp **** #define LEVEL_4_IMPLEMENTED 1
   7:test/userMain.cpp **** 
   8:test/userMain.cpp **** #if LEVEL_2_IMPLEMENTED == 1
   9:test/userMain.cpp **** // TEST 1 (zadatak 2, niti C API i sinhrona promena konteksta)
  10:test/userMain.cpp **** #include "../test/Threads_C_API_test.hpp"
  11:test/userMain.cpp **** // TEST 2 (zadatak 2., niti CPP API i sinhrona promena konteksta)
  12:test/userMain.cpp **** #include "../test/Threads_CPP_API_test.hpp"
  13:test/userMain.cpp **** // TEST 7 (zadatak 2., testiranje da li se korisnicki kod izvrsava u korisnickom rezimu)
  14:test/userMain.cpp **** #include "../test/System_Mode_test.hpp"
  15:test/userMain.cpp **** #endif
  16:test/userMain.cpp **** 
  17:test/userMain.cpp **** #if LEVEL_3_IMPLEMENTED == 1
  18:test/userMain.cpp **** // TEST 3 (zadatak 3., kompletan C API sa semaforima, sinhrona promena konteksta)
  19:test/userMain.cpp **** #include "../test/ConsumerProducer_C_API_test.hpp"
  20:test/userMain.cpp **** // TEST 4 (zadatak 3., kompletan CPP API sa semaforima, sinhrona promena konteksta)
  21:test/userMain.cpp **** #include "../test/ConsumerProducer_CPP_Sync_API_test.hpp"
  22:test/userMain.cpp **** #endif
  23:test/userMain.cpp **** 
  24:test/userMain.cpp **** #if LEVEL_4_IMPLEMENTED == 1
  25:test/userMain.cpp **** // TEST 5 (zadatak 4., thread_sleep test C API)
  26:test/userMain.cpp **** #include "../test/ThreadSleep_C_API_test.hpp"
  27:test/userMain.cpp **** // TEST 6 (zadatak 4. CPP API i asinhrona promena konteksta)
  28:test/userMain.cpp **** #include "../test/ConsumerProducer_CPP_API_test.hpp"
  29:test/userMain.cpp **** #include "System_Mode_test.hpp"
  30:test/userMain.cpp **** 
  31:test/userMain.cpp **** #endif
  32:test/userMain.cpp **** 
  33:test/userMain.cpp **** void userMain() {
  12              		.loc 1 33 17
  13              		.cfi_startproc
  14 0000 130101FE 		addi	sp,sp,-32
  15              		.cfi_def_cfa_offset 32
  16 0004 233C1100 		sd	ra,24(sp)
  17 0008 23388100 		sd	s0,16(sp)
  18 000c 23349100 		sd	s1,8(sp)
  19 0010 23302101 		sd	s2,0(sp)
  20              		.cfi_offset 1, -8
  21              		.cfi_offset 8, -16
  22              		.cfi_offset 9, -24
  23              		.cfi_offset 18, -32
  24 0014 13040102 		addi	s0,sp,32
  25              		.cfi_def_cfa 8, 0
GAS LISTING /tmp/cc4kawoN.s 			page 2


  34:test/userMain.cpp ****     printString("Unesite broj testa? [1-7]\n");
  26              		.loc 1 34 5
  27              		.loc 1 34 16 is_stmt 0
  28 0018 17050000 		lla	a0,.LC0
  28      13050500 
  29 0020 97000000 		call	_Z11printStringPKc
  29      E7800000 
  30              	.LVL0:
  35:test/userMain.cpp ****     int test = getc() - '0';
  31              		.loc 1 35 5 is_stmt 1
  32              		.loc 1 35 20 is_stmt 0
  33 0028 97000000 		call	_Z4getcv
  33      E7800000 
  34              	.LVL1:
  35              		.loc 1 35 25
  36 0030 9B0405FD 		addiw	s1,a0,-48
  37 0034 1B890400 		sext.w	s2,s1
  38              	.LVL2:
  36:test/userMain.cpp ****     getc(); // Enter posle broja
  39              		.loc 1 36 5 is_stmt 1
  40              		.loc 1 36 9 is_stmt 0
  41 0038 97000000 		call	_Z4getcv
  41      E7800000 
  42              	.LVL3:
  37:test/userMain.cpp **** 
  38:test/userMain.cpp ****     if ((test >= 1 && test <= 2) || test == 7) {
  43              		.loc 1 38 5 is_stmt 1
  39:test/userMain.cpp ****         if (LEVEL_2_IMPLEMENTED == 0) {
  40:test/userMain.cpp ****             printString("Nije navedeno da je zadatak 2 implementiran\n");
  41:test/userMain.cpp ****             return;
  42:test/userMain.cpp ****         }
  43:test/userMain.cpp ****     }
  44:test/userMain.cpp **** 
  45:test/userMain.cpp ****     if (test >= 3 && test <= 4) {
  44              		.loc 1 45 5
  46:test/userMain.cpp ****         if (LEVEL_3_IMPLEMENTED == 0) {
  47:test/userMain.cpp ****             printString("Nije navedeno da je zadatak 3 implementiran\n");
  48:test/userMain.cpp ****             return;
  49:test/userMain.cpp ****         }
  50:test/userMain.cpp ****     }
  51:test/userMain.cpp **** 
  52:test/userMain.cpp ****     if (test >= 5 && test <= 6) {
  45              		.loc 1 52 5
  53:test/userMain.cpp ****         if (LEVEL_4_IMPLEMENTED == 0) {
  54:test/userMain.cpp ****             printString("Nije navedeno da je zadatak 4 implementiran\n");
  55:test/userMain.cpp ****             return;
  56:test/userMain.cpp ****         }
  57:test/userMain.cpp ****     }
  58:test/userMain.cpp **** 
  59:test/userMain.cpp ****     switch (test) {
  46              		.loc 1 59 5
  47 0040 93077000 		li	a5,7
  48 0044 63E82711 		bgtu	s2,a5,.L2
  49 0048 93940402 		slli	s1,s1,32
  50              	.LVL4:
  51 004c 93D40402 		srli	s1,s1,32
  52 0050 93942400 		slli	s1,s1,2
GAS LISTING /tmp/cc4kawoN.s 			page 3


  53 0054 17070000 		lla	a4,.L4
  53      13070700 
  54 005c B384E400 		add	s1,s1,a4
  55 0060 83A70400 		lw	a5,0(s1)
  56 0064 B387E700 		add	a5,a5,a4
  57 0068 67800700 		jr	a5
  58              		.section	.rodata
  59              		.align	2
  60              		.align	2
  61              	.L4:
  62 0000 00000000 		.word	.L2-.L4
  63 0004 00000000 		.word	.L10-.L4
  64 0008 00000000 		.word	.L9-.L4
  65 000c 00000000 		.word	.L8-.L4
  66 0010 00000000 		.word	.L7-.L4
  67 0014 00000000 		.word	.L6-.L4
  68 0018 00000000 		.word	.L5-.L4
  69 001c 00000000 		.word	.L3-.L4
  70              		.text
  71              	.L10:
  60:test/userMain.cpp ****         case 1:
  72              		.loc 1 60 9
  61:test/userMain.cpp **** #if LEVEL_2_IMPLEMENTED == 1
  62:test/userMain.cpp ****             Threads_C_API_test();
  73              		.loc 1 62 13
  74              		.loc 1 62 31 is_stmt 0
  75 006c 97000000 		call	_Z18Threads_C_API_testv
  75      E7800000 
  76              	.LVL5:
  63:test/userMain.cpp ****             printString("TEST 1 (zadatak 2, niti C API i sinhrona promena konteksta)\n");
  77              		.loc 1 63 13 is_stmt 1
  78              		.loc 1 63 24 is_stmt 0
  79 0074 17050000 		lla	a0,.LC1
  79      13050500 
  80 007c 97000000 		call	_Z11printStringPKc
  80      E7800000 
  81              	.LVL6:
  64:test/userMain.cpp **** #endif
  65:test/userMain.cpp ****             break;
  82              		.loc 1 65 13 is_stmt 1
  83              	.L1:
  66:test/userMain.cpp ****         case 2:
  67:test/userMain.cpp **** #if LEVEL_2_IMPLEMENTED == 1
  68:test/userMain.cpp ****             Threads_CPP_API_test();
  69:test/userMain.cpp ****             printString("TEST 2 (zadatak 2., niti CPP API i sinhrona promena konteksta)\n");
  70:test/userMain.cpp **** #endif
  71:test/userMain.cpp ****             break;
  72:test/userMain.cpp ****         case 3:
  73:test/userMain.cpp **** #if LEVEL_3_IMPLEMENTED == 1
  74:test/userMain.cpp ****             producerConsumer_C_API();
  75:test/userMain.cpp ****             printString("TEST 3 (zadatak 3., kompletan C API sa semaforima, sinhrona promena kontek
  76:test/userMain.cpp **** #endif
  77:test/userMain.cpp ****             break;
  78:test/userMain.cpp ****         case 4:
  79:test/userMain.cpp **** #if LEVEL_3_IMPLEMENTED == 1
  80:test/userMain.cpp ****             producerConsumer_CPP_Sync_API();
  81:test/userMain.cpp ****             printString("TEST 4 (zadatak 3., kompletan CPP API sa semaforima, sinhrona promena kont
GAS LISTING /tmp/cc4kawoN.s 			page 4


  82:test/userMain.cpp **** #endif
  83:test/userMain.cpp ****             break;
  84:test/userMain.cpp ****         case 5:
  85:test/userMain.cpp **** #if LEVEL_4_IMPLEMENTED == 1
  86:test/userMain.cpp ****             testSleeping();
  87:test/userMain.cpp ****             printString("TEST 5 (zadatak 4., thread_sleep test C API)\n");
  88:test/userMain.cpp **** #endif
  89:test/userMain.cpp ****             break;
  90:test/userMain.cpp ****         case 6:
  91:test/userMain.cpp **** #if LEVEL_4_IMPLEMENTED == 1
  92:test/userMain.cpp ****             testConsumerProducer();
  93:test/userMain.cpp ****             printString("TEST 6 (zadatak 4. CPP API i asinhrona promena konteksta)\n");
  94:test/userMain.cpp **** #endif
  95:test/userMain.cpp ****             break;
  96:test/userMain.cpp ****         case 7:
  97:test/userMain.cpp **** #if LEVEL_2_IMPLEMENTED == 1
  98:test/userMain.cpp ****             System_Mode_test();
  99:test/userMain.cpp ****             printString("Test se nije uspesno zavrsio\n");
 100:test/userMain.cpp ****             printString("TEST 7 (zadatak 2., testiranje da li se korisnicki kod izvrsava u korisnic
 101:test/userMain.cpp **** #endif
 102:test/userMain.cpp ****             break;
 103:test/userMain.cpp ****         default:
 104:test/userMain.cpp ****             printString("Niste uneli odgovarajuci broj za test\n");
 105:test/userMain.cpp ****     }
 106:test/userMain.cpp **** }
  84              		.loc 1 106 1 is_stmt 0
  85 0084 83308101 		ld	ra,24(sp)
  86              		.cfi_remember_state
  87              		.cfi_restore 1
  88 0088 03340101 		ld	s0,16(sp)
  89              		.cfi_restore 8
  90 008c 83348100 		ld	s1,8(sp)
  91              		.cfi_restore 9
  92 0090 03390100 		ld	s2,0(sp)
  93              		.cfi_restore 18
  94              	.LVL7:
  95 0094 13010102 		addi	sp,sp,32
  96              		.cfi_def_cfa_register 2
  97 0098 67800000 		jr	ra
  98              	.LVL8:
  99              	.L9:
 100              		.cfi_restore_state
  66:test/userMain.cpp ****         case 2:
 101              		.loc 1 66 9 is_stmt 1
  68:test/userMain.cpp ****             printString("TEST 2 (zadatak 2., niti CPP API i sinhrona promena konteksta)\n");
 102              		.loc 1 68 13
  68:test/userMain.cpp ****             printString("TEST 2 (zadatak 2., niti CPP API i sinhrona promena konteksta)\n");
 103              		.loc 1 68 33 is_stmt 0
 104 009c 97000000 		call	_Z20Threads_CPP_API_testv
 104      E7800000 
 105              	.LVL9:
  69:test/userMain.cpp **** #endif
 106              		.loc 1 69 13 is_stmt 1
  69:test/userMain.cpp **** #endif
 107              		.loc 1 69 24 is_stmt 0
 108 00a4 17050000 		lla	a0,.LC2
 108      13050500 
GAS LISTING /tmp/cc4kawoN.s 			page 5


 109 00ac 97000000 		call	_Z11printStringPKc
 109      E7800000 
 110              	.LVL10:
  71:test/userMain.cpp ****         case 3:
 111              		.loc 1 71 13 is_stmt 1
 112 00b4 6FF01FFD 		j	.L1
 113              	.L8:
  72:test/userMain.cpp **** #if LEVEL_3_IMPLEMENTED == 1
 114              		.loc 1 72 9
  74:test/userMain.cpp ****             printString("TEST 3 (zadatak 3., kompletan C API sa semaforima, sinhrona promena kontek
 115              		.loc 1 74 13
  74:test/userMain.cpp ****             printString("TEST 3 (zadatak 3., kompletan C API sa semaforima, sinhrona promena kontek
 116              		.loc 1 74 35 is_stmt 0
 117 00b8 97000000 		call	_Z22producerConsumer_C_APIv
 117      E7800000 
 118              	.LVL11:
  75:test/userMain.cpp **** #endif
 119              		.loc 1 75 13 is_stmt 1
  75:test/userMain.cpp **** #endif
 120              		.loc 1 75 24 is_stmt 0
 121 00c0 17050000 		lla	a0,.LC3
 121      13050500 
 122 00c8 97000000 		call	_Z11printStringPKc
 122      E7800000 
 123              	.LVL12:
  77:test/userMain.cpp ****         case 4:
 124              		.loc 1 77 13 is_stmt 1
 125 00d0 6FF05FFB 		j	.L1
 126              	.L7:
  78:test/userMain.cpp **** #if LEVEL_3_IMPLEMENTED == 1
 127              		.loc 1 78 9
  80:test/userMain.cpp ****             printString("TEST 4 (zadatak 3., kompletan CPP API sa semaforima, sinhrona promena kont
 128              		.loc 1 80 13
  80:test/userMain.cpp ****             printString("TEST 4 (zadatak 3., kompletan CPP API sa semaforima, sinhrona promena kont
 129              		.loc 1 80 42 is_stmt 0
 130 00d4 97000000 		call	_Z29producerConsumer_CPP_Sync_APIv
 130      E7800000 
 131              	.LVL13:
  81:test/userMain.cpp **** #endif
 132              		.loc 1 81 13 is_stmt 1
  81:test/userMain.cpp **** #endif
 133              		.loc 1 81 24 is_stmt 0
 134 00dc 17050000 		lla	a0,.LC4
 134      13050500 
 135 00e4 97000000 		call	_Z11printStringPKc
 135      E7800000 
 136              	.LVL14:
  83:test/userMain.cpp ****         case 5:
 137              		.loc 1 83 13 is_stmt 1
 138 00ec 6FF09FF9 		j	.L1
 139              	.L6:
  84:test/userMain.cpp **** #if LEVEL_4_IMPLEMENTED == 1
 140              		.loc 1 84 9
  86:test/userMain.cpp ****             printString("TEST 5 (zadatak 4., thread_sleep test C API)\n");
 141              		.loc 1 86 13
  86:test/userMain.cpp ****             printString("TEST 5 (zadatak 4., thread_sleep test C API)\n");
 142              		.loc 1 86 25 is_stmt 0
GAS LISTING /tmp/cc4kawoN.s 			page 6


 143 00f0 97000000 		call	_Z12testSleepingv
 143      E7800000 
 144              	.LVL15:
  87:test/userMain.cpp **** #endif
 145              		.loc 1 87 13 is_stmt 1
  87:test/userMain.cpp **** #endif
 146              		.loc 1 87 24 is_stmt 0
 147 00f8 17050000 		lla	a0,.LC5
 147      13050500 
 148 0100 97000000 		call	_Z11printStringPKc
 148      E7800000 
 149              	.LVL16:
  89:test/userMain.cpp ****         case 6:
 150              		.loc 1 89 13 is_stmt 1
 151 0108 6FF0DFF7 		j	.L1
 152              	.L5:
  90:test/userMain.cpp **** #if LEVEL_4_IMPLEMENTED == 1
 153              		.loc 1 90 9
  92:test/userMain.cpp ****             printString("TEST 6 (zadatak 4. CPP API i asinhrona promena konteksta)\n");
 154              		.loc 1 92 13
  92:test/userMain.cpp ****             printString("TEST 6 (zadatak 4. CPP API i asinhrona promena konteksta)\n");
 155              		.loc 1 92 33 is_stmt 0
 156 010c 97000000 		call	_Z20testConsumerProducerv
 156      E7800000 
 157              	.LVL17:
  93:test/userMain.cpp **** #endif
 158              		.loc 1 93 13 is_stmt 1
  93:test/userMain.cpp **** #endif
 159              		.loc 1 93 24 is_stmt 0
 160 0114 17050000 		lla	a0,.LC6
 160      13050500 
 161 011c 97000000 		call	_Z11printStringPKc
 161      E7800000 
 162              	.LVL18:
  95:test/userMain.cpp ****         case 7:
 163              		.loc 1 95 13 is_stmt 1
 164 0124 6FF01FF6 		j	.L1
 165              	.L3:
  96:test/userMain.cpp **** #if LEVEL_2_IMPLEMENTED == 1
 166              		.loc 1 96 9
  98:test/userMain.cpp ****             printString("Test se nije uspesno zavrsio\n");
 167              		.loc 1 98 13
  98:test/userMain.cpp ****             printString("Test se nije uspesno zavrsio\n");
 168              		.loc 1 98 29 is_stmt 0
 169 0128 97000000 		call	_Z16System_Mode_testv
 169      E7800000 
 170              	.LVL19:
  99:test/userMain.cpp ****             printString("TEST 7 (zadatak 2., testiranje da li se korisnicki kod izvrsava u korisnic
 171              		.loc 1 99 13 is_stmt 1
  99:test/userMain.cpp ****             printString("TEST 7 (zadatak 2., testiranje da li se korisnicki kod izvrsava u korisnic
 172              		.loc 1 99 24 is_stmt 0
 173 0130 17050000 		lla	a0,.LC7
 173      13050500 
 174 0138 97000000 		call	_Z11printStringPKc
 174      E7800000 
 175              	.LVL20:
 100:test/userMain.cpp **** #endif
GAS LISTING /tmp/cc4kawoN.s 			page 7


 176              		.loc 1 100 13 is_stmt 1
 100:test/userMain.cpp **** #endif
 177              		.loc 1 100 24 is_stmt 0
 178 0140 17050000 		lla	a0,.LC8
 178      13050500 
 179 0148 97000000 		call	_Z11printStringPKc
 179      E7800000 
 180              	.LVL21:
 102:test/userMain.cpp ****         default:
 181              		.loc 1 102 13 is_stmt 1
 182 0150 6FF05FF3 		j	.L1
 183              	.L2:
 103:test/userMain.cpp ****             printString("Niste uneli odgovarajuci broj za test\n");
 184              		.loc 1 103 9
 104:test/userMain.cpp ****     }
 185              		.loc 1 104 13
 104:test/userMain.cpp ****     }
 186              		.loc 1 104 24 is_stmt 0
 187 0154 17050000 		lla	a0,.LC9
 187      13050500 
 188 015c 97000000 		call	_Z11printStringPKc
 188      E7800000 
 189              	.LVL22:
 190 0164 6FF01FF2 		j	.L1
 191              		.cfi_endproc
 192              	.LFE32:
 194              		.section	.rodata.str1.8,"aMS",@progbits,1
 195              		.align	3
 196              	.LC0:
 197 0000 556E6573 		.string	"Unesite broj testa? [1-7]\n"
 197      69746520 
 197      62726F6A 
 197      20746573 
 197      74613F20 
 198 001b 00000000 		.zero	5
 198      00
 199              	.LC1:
 200 0020 54455354 		.string	"TEST 1 (zadatak 2, niti C API i sinhrona promena konteksta)\n"
 200      20312028 
 200      7A616461 
 200      74616B20 
 200      322C206E 
 201 005d 000000   		.zero	3
 202              	.LC2:
 203 0060 54455354 		.string	"TEST 2 (zadatak 2., niti CPP API i sinhrona promena konteksta)\n"
 203      20322028 
 203      7A616461 
 203      74616B20 
 203      322E2C20 
 204              	.LC3:
 205 00a0 54455354 		.string	"TEST 3 (zadatak 3., kompletan C API sa semaforima, sinhrona promena konteksta)\n"
 205      20332028 
 205      7A616461 
 205      74616B20 
 205      332E2C20 
 206              	.LC4:
 207 00f0 54455354 		.string	"TEST 4 (zadatak 3., kompletan CPP API sa semaforima, sinhrona promena konteksta)\n"
GAS LISTING /tmp/cc4kawoN.s 			page 8


 207      20342028 
 207      7A616461 
 207      74616B20 
 207      332E2C20 
 208 0142 00000000 		.zero	6
 208      0000
 209              	.LC5:
 210 0148 54455354 		.string	"TEST 5 (zadatak 4., thread_sleep test C API)\n"
 210      20352028 
 210      7A616461 
 210      74616B20 
 210      342E2C20 
 211 0176 0000     		.zero	2
 212              	.LC6:
 213 0178 54455354 		.string	"TEST 6 (zadatak 4. CPP API i asinhrona promena konteksta)\n"
 213      20362028 
 213      7A616461 
 213      74616B20 
 213      342E2043 
 214 01b3 00000000 		.zero	5
 214      00
 215              	.LC7:
 216 01b8 54657374 		.string	"Test se nije uspesno zavrsio\n"
 216      20736520 
 216      6E696A65 
 216      20757370 
 216      65736E6F 
 217 01d6 0000     		.zero	2
 218              	.LC8:
 219 01d8 54455354 		.string	"TEST 7 (zadatak 2., testiranje da li se korisnicki kod izvrsava u korisnickom rezimu)\n"
 219      20372028 
 219      7A616461 
 219      74616B20 
 219      322E2C20 
 220 022f 00       		.zero	1
 221              	.LC9:
 222 0230 4E697374 		.string	"Niste uneli odgovarajuci broj za test\n"
 222      6520756E 
 222      656C6920 
 222      6F64676F 
 222      76617261 
 223              		.text
 224              	.Letext0:
 225              		.file 2 "test/../h/../lib/hw.h"
 226              		.file 3 "test/printing.hpp"
 227              		.file 4 "test/../h/syscall_c.hpp"
 228              		.file 5 "test/../test/Threads_C_API_test.hpp"
 229              		.file 6 "test/../test/Threads_CPP_API_test.hpp"
 230              		.file 7 "test/../test/ConsumerProducer_C_API_test.hpp"
 231              		.file 8 "test/../test/ConsumerProducer_CPP_Sync_API_test.hpp"
 232              		.file 9 "test/../test/ThreadSleep_C_API_test.hpp"
 233              		.file 10 "test/../test/ConsumerProducer_CPP_API_test.hpp"
 234              		.file 11 "test/../test/System_Mode_test.hpp"
GAS LISTING /tmp/cc4kawoN.s 			page 9

